
Allocating common symbols
Common symbol       size              file

HSEStartUpStatus    0x1               ..\obj\STM32_USART.o
CardType            0x1               ..\obj\diskio.o
sd_var              0xc               ..\obj\main.o

Discarded input sections

 .text          0x00000000        0x0 ..\obj\startup_stm32f10x_md_vl.o
 .data          0x00000000        0x0 ..\obj\startup_stm32f10x_md_vl.o
 .bss           0x00000000        0x0 ..\obj\startup_stm32f10x_md_vl.o
 .text          0x00000000        0x0 ..\obj\stm32_pio.o
 .data          0x00000000        0x0 ..\obj\stm32_pio.o
 .bss           0x00000000        0x0 ..\obj\stm32_pio.o
 .text          0x00000000        0x0 ..\obj\core_cm3.o
 .data          0x00000000        0x0 ..\obj\core_cm3.o
 .bss           0x00000000        0x0 ..\obj\core_cm3.o
 .text.__get_PSP
                0x00000000       0x10 ..\obj\core_cm3.o
 .text.__set_PSP
                0x00000000        0x8 ..\obj\core_cm3.o
 .text.__get_MSP
                0x00000000       0x10 ..\obj\core_cm3.o
 .text.__set_MSP
                0x00000000        0x8 ..\obj\core_cm3.o
 .text.__get_BASEPRI
                0x00000000       0x20 ..\obj\core_cm3.o
 .text.__set_BASEPRI
                0x00000000       0x18 ..\obj\core_cm3.o
 .text.__get_PRIMASK
                0x00000000       0x20 ..\obj\core_cm3.o
 .text.__set_PRIMASK
                0x00000000       0x18 ..\obj\core_cm3.o
 .text.__get_FAULTMASK
                0x00000000       0x20 ..\obj\core_cm3.o
 .text.__set_FAULTMASK
                0x00000000       0x18 ..\obj\core_cm3.o
 .text.__get_CONTROL
                0x00000000       0x20 ..\obj\core_cm3.o
 .text.__set_CONTROL
                0x00000000       0x18 ..\obj\core_cm3.o
 .text.__REV    0x00000000       0x24 ..\obj\core_cm3.o
 .text.__REV16  0x00000000       0x24 ..\obj\core_cm3.o
 .text.__REVSH  0x00000000       0x24 ..\obj\core_cm3.o
 .text.__RBIT   0x00000000       0x24 ..\obj\core_cm3.o
 .text.__LDREXB
                0x00000000       0x24 ..\obj\core_cm3.o
 .text.__LDREXH
                0x00000000       0x24 ..\obj\core_cm3.o
 .text.__LDREXW
                0x00000000       0x24 ..\obj\core_cm3.o
 .text.__STREXB
                0x00000000       0x2c ..\obj\core_cm3.o
 .text.__STREXH
                0x00000000       0x2c ..\obj\core_cm3.o
 .text.__STREXW
                0x00000000       0x28 ..\obj\core_cm3.o
 .text          0x00000000        0x0 ..\obj\system_stm32f10x.o
 .data          0x00000000       0x14 ..\obj\system_stm32f10x.o
 .bss           0x00000000        0x0 ..\obj\system_stm32f10x.o
 .text.SystemCoreClockUpdate
                0x00000000       0xe4 ..\obj\system_stm32f10x.o
 .text          0x00000000        0x0 ..\obj\STM32_USART.o
 .data          0x00000000        0x0 ..\obj\STM32_USART.o
 .bss           0x00000000        0x0 ..\obj\STM32_USART.o
 .text.STM_RCC_GetFlagStatus
                0x00000000       0x84 ..\obj\STM32_USART.o
 .text.STM_RCC_WaitForHSEStartUp
                0x00000000       0x64 ..\obj\STM32_USART.o
 .text.STM_RCC_Configuration
                0x00000000      0x130 ..\obj\STM32_USART.o
 COMMON         0x00000000        0x1 ..\obj\STM32_USART.o
 .text          0x00000000        0x0 ..\obj\diskio.o
 .bss           0x00000000        0x0 ..\obj\diskio.o
 .text          0x00000000        0x0 ..\obj\main.o
 .bss           0x00000000        0x0 ..\obj\main.o
 .text          0x00000000        0x0 ..\obj\stm_spi_master.o
 .data          0x00000000        0x0 ..\obj\stm_spi_master.o
 .bss           0x00000000        0x0 ..\obj\stm_spi_master.o
 .text          0x00000000        0x0 ..\obj\printf.o
 .bss           0x00000000        0x0 ..\obj\printf.o
 .text.snprintf
                0x00000000       0x34 ..\obj\printf.o
 .text.fprintf  0x00000000       0x30 ..\obj\printf.o
 .text.sprintf  0x00000000       0x30 ..\obj\printf.o
 .text          0x00000000        0x0 ..\obj\stm32f10x_rcc.o
 .data          0x00000000       0x14 ..\obj\stm32f10x_rcc.o
 .bss           0x00000000        0x0 ..\obj\stm32f10x_rcc.o
 .text.RCC_DeInit
                0x00000000       0x64 ..\obj\stm32f10x_rcc.o
 .text.RCC_HSEConfig
                0x00000000       0x5c ..\obj\stm32f10x_rcc.o
 .text.RCC_WaitForHSEStartUp
                0x00000000       0x64 ..\obj\stm32f10x_rcc.o
 .text.RCC_AdjustHSICalibrationValue
                0x00000000       0x40 ..\obj\stm32f10x_rcc.o
 .text.RCC_HSICmd
                0x00000000       0x20 ..\obj\stm32f10x_rcc.o
 .text.RCC_PLLConfig
                0x00000000       0x44 ..\obj\stm32f10x_rcc.o
 .text.RCC_PLLCmd
                0x00000000       0x20 ..\obj\stm32f10x_rcc.o
 .text.RCC_PREDIV1Config
                0x00000000       0x48 ..\obj\stm32f10x_rcc.o
 .text.RCC_SYSCLKConfig
                0x00000000       0x3c ..\obj\stm32f10x_rcc.o
 .text.RCC_GetSYSCLKSource
                0x00000000       0x1c ..\obj\stm32f10x_rcc.o
 .text.RCC_HCLKConfig
                0x00000000       0x3c ..\obj\stm32f10x_rcc.o
 .text.RCC_PCLK1Config
                0x00000000       0x3c ..\obj\stm32f10x_rcc.o
 .text.RCC_PCLK2Config
                0x00000000       0x40 ..\obj\stm32f10x_rcc.o
 .text.RCC_ITConfig
                0x00000000       0x50 ..\obj\stm32f10x_rcc.o
 .text.RCC_USBCLKConfig
                0x00000000       0x1c ..\obj\stm32f10x_rcc.o
 .text.RCC_ADCCLKConfig
                0x00000000       0x3c ..\obj\stm32f10x_rcc.o
 .text.RCC_LSEConfig
                0x00000000       0x48 ..\obj\stm32f10x_rcc.o
 .text.RCC_LSICmd
                0x00000000       0x20 ..\obj\stm32f10x_rcc.o
 .text.RCC_RTCCLKConfig
                0x00000000       0x24 ..\obj\stm32f10x_rcc.o
 .text.RCC_RTCCLKCmd
                0x00000000       0x20 ..\obj\stm32f10x_rcc.o
 .text.RCC_GetClocksFreq
                0x00000000      0x17c ..\obj\stm32f10x_rcc.o
 .text.RCC_AHBPeriphClockCmd
                0x00000000       0x44 ..\obj\stm32f10x_rcc.o
 .text.RCC_APB2PeriphResetCmd
                0x00000000       0x44 ..\obj\stm32f10x_rcc.o
 .text.RCC_APB1PeriphResetCmd
                0x00000000       0x44 ..\obj\stm32f10x_rcc.o
 .text.RCC_BackupResetCmd
                0x00000000       0x20 ..\obj\stm32f10x_rcc.o
 .text.RCC_ClockSecuritySystemCmd
                0x00000000       0x20 ..\obj\stm32f10x_rcc.o
 .text.RCC_MCOConfig
                0x00000000       0x20 ..\obj\stm32f10x_rcc.o
 .text.RCC_GetFlagStatus
                0x00000000       0x84 ..\obj\stm32f10x_rcc.o
 .text.RCC_ClearFlag
                0x00000000       0x1c ..\obj\stm32f10x_rcc.o
 .text.RCC_GetITStatus
                0x00000000       0x40 ..\obj\stm32f10x_rcc.o
 .text.RCC_ClearITPendingBit
                0x00000000       0x20 ..\obj\stm32f10x_rcc.o
 .text          0x00000000        0x0 ..\obj\syscalls.o
 .data          0x00000000        0x0 ..\obj\syscalls.o
 .bss           0x00000000        0x4 ..\obj\syscalls.o
 .text._sbrk    0x00000000       0x40 ..\obj\syscalls.o
 .text.link     0x00000000       0x1c ..\obj\syscalls.o
 .text._close   0x00000000       0x18 ..\obj\syscalls.o
 .text._fstat   0x00000000       0x24 ..\obj\syscalls.o
 .text._isatty  0x00000000       0x18 ..\obj\syscalls.o
 .text._lseek   0x00000000       0x1c ..\obj\syscalls.o
 .text._read    0x00000000       0x1c ..\obj\syscalls.o
 .text._write   0x00000000       0x1c ..\obj\syscalls.o
 .text.abort    0x00000000        0x8 ..\obj\syscalls.o
 .text          0x00000000        0x0 ..\obj\ff.o
 .data          0x00000000        0x0 ..\obj\ff.o
 .text.dir_read
                0x00000000       0x9c ..\obj\ff.o
 .text.dir_remove
                0x00000000       0x58 ..\obj\ff.o
 .text.get_fileinfo
                0x00000000      0x104 ..\obj\ff.o
 .text.f_chdrive
                0x00000000       0x30 ..\obj\ff.o
 .text.f_chdir  0x00000000       0xb0 ..\obj\ff.o
 .text.f_getcwd
                0x00000000      0x254 ..\obj\ff.o
 .text.f_opendir
                0x00000000       0xb8 ..\obj\ff.o
 .text.f_readdir
                0x00000000       0x9c ..\obj\ff.o
 .text.f_stat   0x00000000       0x78 ..\obj\ff.o
 .text.f_getfree
                0x00000000      0x19c ..\obj\ff.o
 .text.f_truncate
                0x00000000      0x128 ..\obj\ff.o
 .text.f_unlink
                0x00000000      0x1a8 ..\obj\ff.o
 .text.f_mkdir  0x00000000      0x294 ..\obj\ff.o
 .text.f_chmod  0x00000000       0xe4 ..\obj\ff.o
 .text.f_utime  0x00000000       0xc0 ..\obj\ff.o
 .text.f_rename
                0x00000000      0x220 ..\obj\ff.o
 .text.f_mkfs   0x00000000      0x7b4 ..\obj\ff.o
 .text          0x00000000        0x0 ..\obj\mmc_driver.o
 .data          0x00000000        0x0 ..\obj\mmc_driver.o
 .bss           0x00000000        0x0 ..\obj\mmc_driver.o
 .text.MSD_GetCSDRegister
                0x00000000      0x31c ..\obj\mmc_driver.o
 .text.MSD_GetCIDRegister
                0x00000000      0x180 ..\obj\mmc_driver.o
 .text.MSD_GetStatus
                0x00000000       0x74 ..\obj\mmc_driver.o
 .text.MSD_GetChipSize
                0x00000000       0xf8 ..\obj\mmc_driver.o
 .text.MSD_GetBlockSize
                0x00000000       0x18 ..\obj\mmc_driver.o

Memory Configuration

Name             Origin             Length             Attributes
rom              0x08000000         0x00020000         xr
ram              0x20000000         0x00002000         xrw
*default*        0x00000000         0xffffffff

Linker script and memory map

                0x20002000                _eram = 0x20002000

.text           0x08000000     0x5bcc
 *(.isr_vector .isr_vector.*)
 .isr_vector    0x08000000      0x124 ..\obj\startup_stm32f10x_md_vl.o
                0x08000000                g_pfnVectors
 *(.text .text.* .gnu.linkonce.t.*)
 .text.Default_Reset_Handler
                0x08000124       0x68 ..\obj\startup_stm32f10x_md_vl.o
                0x08000124                Default_Reset_Handler
                0x08000124                Reset_Handler
 .text.Default_Handler
                0x0800018c        0x8 ..\obj\startup_stm32f10x_md_vl.o
                0x0800018c                EXTI2_IRQHandler
                0x0800018c                DebugMon_Handler
                0x0800018c                TIM1_CC_IRQHandler
                0x0800018c                HardFault_Handler
                0x0800018c                SysTick_Handler
                0x0800018c                PVD_IRQHandler
                0x0800018c                PendSV_Handler
                0x0800018c                NMI_Handler
                0x0800018c                EXTI3_IRQHandler
                0x0800018c                EXTI0_IRQHandler
                0x0800018c                I2C2_EV_IRQHandler
                0x0800018c                TIM1_UP_TIM16_IRQHandler
                0x0800018c                UsageFault_Handler
                0x0800018c                TAMPER_IRQHandler
                0x0800018c                TIM6_DAC_IRQHandler
                0x0800018c                DMA1_Channel4_IRQHandler
                0x0800018c                ADC1_IRQHandler
                0x0800018c                USART3_IRQHandler
                0x0800018c                RTC_IRQHandler
                0x0800018c                DMA1_Channel7_IRQHandler
                0x0800018c                TIM4_IRQHandler
                0x0800018c                I2C1_EV_IRQHandler
                0x0800018c                DMA1_Channel6_IRQHandler
                0x0800018c                TIM3_IRQHandler
                0x0800018c                RCC_IRQHandler
                0x0800018c                DMA1_Channel1_IRQHandler
                0x0800018c                CEC_IRQHandler
                0x0800018c                EXTI15_10_IRQHandler
                0x0800018c                TIM7_IRQHandler
                0x0800018c                EXTI9_5_IRQHandler
                0x0800018c                MemManage_Handler
                0x0800018c                SVC_Handler
                0x0800018c                DMA1_Channel5_IRQHandler
                0x0800018c                EXTI4_IRQHandler
                0x0800018c                TIM1_TRG_COM_TIM17_IRQHandler
                0x0800018c                DMA1_Channel3_IRQHandler
                0x0800018c                WWDG_IRQHandler
                0x0800018c                TIM2_IRQHandler
                0x0800018c                EXTI1_IRQHandler
                0x0800018c                RTCAlarm_IRQHandler
                0x0800018c                USART2_IRQHandler
                0x0800018c                I2C2_ER_IRQHandler
                0x0800018c                DMA1_Channel2_IRQHandler
                0x0800018c                FLASH_IRQHandler
                0x0800018c                BusFault_Handler
                0x0800018c                USART1_IRQHandler
                0x0800018c                I2C1_ER_IRQHandler
                0x0800018c                TIM1_BRK_TIM15_IRQHandler
 .text.STM32_GetGPIO
                0x08000194       0x90 ..\obj\stm32_pio.o
 .text.STM32_PIO_Init
                0x08000224       0xb8 ..\obj\stm32_pio.o
 .text.STM32_PIO_SetDir
                0x080002dc      0x16c ..\obj\stm32_pio.o
 .text.STM32_PIO_Read
                0x08000448       0xe0 ..\obj\stm32_pio.o
 .text.STM32_PIO_Out
                0x08000528       0x74 ..\obj\stm32_pio.o
 .text.STM32_PIO_Cfg
                0x0800059c       0x24 ..\obj\stm32_pio.o
 .text.SystemInit
                0x080005c0       0x70 ..\obj\system_stm32f10x.o
                0x080005c0                SystemInit
 .text.SetSysClock
                0x08000630        0xc ..\obj\system_stm32f10x.o
 .text.SetSysClockTo24
                0x0800063c       0xdc ..\obj\system_stm32f10x.o
 .text.STM_GPIO_Init
                0x08000718      0x1c4 ..\obj\STM32_USART.o
                0x08000718                STM_GPIO_Init
 .text.STM_RCC_GetClockFreq
                0x080008dc      0x174 ..\obj\STM32_USART.o
                0x080008dc                STM_RCC_GetClockFreq
 .text.STM_UART_Init
                0x08000a50      0x31c ..\obj\STM32_USART.o
 .text.STM_UART_Write
                0x08000d6c       0x54 ..\obj\STM32_USART.o
 .text.STM_UART_Read
                0x08000dc0       0x54 ..\obj\STM32_USART.o
 .text.STM_UART_SetRate
                0x08000e14       0xc8 ..\obj\STM32_USART.o
 .text.STM_UART_Cfg
                0x08000edc      0x28c ..\obj\STM32_USART.o
 .text.STM_Serial1_Init
                0x08001168       0x20 ..\obj\STM32_USART.o
 .text.STM_Serial2_Init
                0x08001188       0x20 ..\obj\STM32_USART.o
 .text.STM_Serial3_Init
                0x080011a8       0x20 ..\obj\STM32_USART.o
 .text.STM_Serial1_Write
                0x080011c8       0x24 ..\obj\STM32_USART.o
 .text.STM_Serial2_Write
                0x080011ec       0x24 ..\obj\STM32_USART.o
 .text.STM_Serial3_Write
                0x08001210       0x24 ..\obj\STM32_USART.o
 .text.STM_Serial1_Read
                0x08001234       0x24 ..\obj\STM32_USART.o
 .text.STM_Serial2_Read
                0x08001258       0x24 ..\obj\STM32_USART.o
 .text.STM_Serial3_Read
                0x0800127c       0x24 ..\obj\STM32_USART.o
 .text.STM_Serial1_Cfg
                0x080012a0       0x2c ..\obj\STM32_USART.o
 .text.STM_Serial2_Cfg
                0x080012cc       0x2c ..\obj\STM32_USART.o
 .text.STM_Serial3_Cfg
                0x080012f8       0x2c ..\obj\STM32_USART.o
 .text.deselect
                0x08001324       0x14 ..\obj\diskio.o
                0x08001324                deselect
 .text.disk_status
                0x08001338       0xa4 ..\obj\diskio.o
                0x08001338                disk_status
 .text.disk_initialize
                0x080013dc       0x64 ..\obj\diskio.o
                0x080013dc                disk_initialize
 .text.disk_read
                0x08001440       0xb4 ..\obj\diskio.o
                0x08001440                disk_read
 .text.disk_write
                0x080014f4       0xc0 ..\obj\diskio.o
                0x080014f4                disk_write
 .text.disk_ioctl
                0x080015b4      0x194 ..\obj\diskio.o
                0x080015b4                disk_ioctl
 .text.die      0x08001748       0x28 ..\obj\main.o
                0x08001748                die
 .text.get_fattime
                0x08001770       0x14 ..\obj\main.o
                0x08001770                get_fattime
 .text.delay    0x08001784       0x40 ..\obj\main.o
                0x08001784                delay
 .text.main     0x080017c4      0x320 ..\obj\main.o
                0x080017c4                main
 .text.SPI1_IRQHandler
                0x08001ae4        0xc ..\obj\stm_spi_master.o
                0x08001ae4                SPI1_IRQHandler
 .text.SPI2_IRQHandler
                0x08001af0        0xc ..\obj\stm_spi_master.o
                0x08001af0                SPI2_IRQHandler
 .text.STM32_SPI_SetRate
                0x08001afc      0x1a8 ..\obj\stm_spi_master.o
 .text.STM32_SPI_Init
                0x08001ca4      0x24c ..\obj\stm_spi_master.o
 .text.STM32_SPI_ReadWrite
                0x08001ef0       0x68 ..\obj\stm_spi_master.o
 .text.STM32_SPI_Write
                0x08001f58       0x78 ..\obj\stm_spi_master.o
 .text.STM32_SPI_Read
                0x08001fd0       0x84 ..\obj\stm_spi_master.o
 .text.STM32_SPI_Cfg
                0x08002054      0x190 ..\obj\stm_spi_master.o
 .text.STM32_SPI1_Init
                0x080021e4       0x28 ..\obj\stm_spi_master.o
 .text.STM32_SPI2_Init
                0x0800220c       0x28 ..\obj\stm_spi_master.o
 .text.STM32_SPI3_Init
                0x08002234       0x28 ..\obj\stm_spi_master.o
 .text.STM32_SPI1_ReadWrite
                0x0800225c       0x20 ..\obj\stm_spi_master.o
 .text.STM32_SPI2_ReadWrite
                0x0800227c       0x20 ..\obj\stm_spi_master.o
 .text.STM32_SPI3_ReadWrite
                0x0800229c       0x20 ..\obj\stm_spi_master.o
 .text.STM32_SPI1_Write
                0x080022bc       0x24 ..\obj\stm_spi_master.o
 .text.STM32_SPI2_Write
                0x080022e0       0x24 ..\obj\stm_spi_master.o
 .text.STM32_SPI3_Write
                0x08002304       0x24 ..\obj\stm_spi_master.o
 .text.STM32_SPI1_Read
                0x08002328       0x24 ..\obj\stm_spi_master.o
 .text.STM32_SPI2_Read
                0x0800234c       0x24 ..\obj\stm_spi_master.o
 .text.STM32_SPI3_Read
                0x08002370       0x24 ..\obj\stm_spi_master.o
 .text.STM32_SPI1_Cfg
                0x08002394       0x2c ..\obj\stm_spi_master.o
 .text.STM32_SPI2_Cfg
                0x080023c0       0x2c ..\obj\stm_spi_master.o
 .text.STM32_SPI3_Cfg
                0x080023ec       0x2c ..\obj\stm_spi_master.o
 .text.PrintChar
                0x08002418       0x2c ..\obj\printf.o
                0x08002418                PrintChar
 .text.PutChar  0x08002444       0x24 ..\obj\printf.o
                0x08002444                PutChar
 .text.PutString
                0x08002468       0x48 ..\obj\printf.o
                0x08002468                PutString
 .text.PutUnsignedInt
                0x080024b0       0xb4 ..\obj\printf.o
                0x080024b0                PutUnsignedInt
 .text.PutSignedInt
                0x08002564      0x11c ..\obj\printf.o
                0x08002564                PutSignedInt
 .text.PutHexa  0x08002680       0xe8 ..\obj\printf.o
                0x08002680                PutHexa
 .text.vsnprintf
                0x08002768      0x2a4 ..\obj\printf.o
                0x08002768                vsnprintf
 .text.vsprintf
                0x08002a0c       0x28 ..\obj\printf.o
                0x08002a0c                vsprintf
 .text.vfprintf
                0x08002a34       0x88 ..\obj\printf.o
                0x08002a34                vfprintf
 .text.vprintf  0x08002abc       0x2c ..\obj\printf.o
                0x08002abc                vprintf
 .text.printf   0x08002ae8       0x2c ..\obj\printf.o
                0x08002ae8                printf
 .text.puts     0x08002b14       0x28 ..\obj\printf.o
                0x08002b14                puts
 .text.fputc    0x08002b3c       0x44 ..\obj\printf.o
                0x08002b3c                fputc
 .text.fputs    0x08002b80       0x50 ..\obj\printf.o
                0x08002b80                fputs
 .text.RCC_APB2PeriphClockCmd
                0x08002bd0       0x44 ..\obj\stm32f10x_rcc.o
                0x08002bd0                RCC_APB2PeriphClockCmd
 .text.RCC_APB1PeriphClockCmd
                0x08002c14       0x44 ..\obj\stm32f10x_rcc.o
                0x08002c14                RCC_APB1PeriphClockCmd
 .text.mem_cpy  0x08002c58       0x78 ..\obj\ff.o
 .text.mem_set  0x08002cd0       0x44 ..\obj\ff.o
 .text.mem_cmp  0x08002d14       0x70 ..\obj\ff.o
 .text.chk_chr  0x08002d84       0x38 ..\obj\ff.o
 .text.move_window
                0x08002dbc       0xd4 ..\obj\ff.o
 .text.sync     0x08002e90       0xe8 ..\obj\ff.o
 .text.clust2sect
                0x08002f78       0x44 ..\obj\ff.o
                0x08002f78                clust2sect
 .text.get_fat  0x08002fbc      0x160 ..\obj\ff.o
                0x08002fbc                get_fat
 .text.put_fat  0x0800311c      0x1ec ..\obj\ff.o
                0x0800311c                put_fat
 .text.remove_chain
                0x08003308       0xb0 ..\obj\ff.o
 .text.create_chain
                0x080033b8      0x12c ..\obj\ff.o
 .text.dir_sdi  0x080034e4      0x118 ..\obj\ff.o
                0x080034e4                dir_sdi
 .text.dir_next
                0x080035fc      0x1dc ..\obj\ff.o
 .text.dir_find
                0x080037d8       0xa4 ..\obj\ff.o
 .text.dir_register
                0x0800387c       0xbc ..\obj\ff.o
 .text.create_name
                0x08003938      0x228 ..\obj\ff.o
 .text.follow_path
                0x08003b60      0x130 ..\obj\ff.o
 .text.check_fs
                0x08003c90       0x94 ..\obj\ff.o
 .text.chk_mounted
                0x08003d24      0x4a0 ..\obj\ff.o
 .text.validate
                0x080041c4       0x54 ..\obj\ff.o
 .text.f_mount  0x08004218       0x5c ..\obj\ff.o
                0x08004218                f_mount
 .text.f_open   0x08004274      0x264 ..\obj\ff.o
                0x08004274                f_open
 .text.f_read   0x080044d8      0x2f0 ..\obj\ff.o
                0x080044d8                f_read
 .text.f_write  0x080047c8      0x354 ..\obj\ff.o
                0x080047c8                f_write
 .text.f_sync   0x08004b1c      0x118 ..\obj\ff.o
                0x08004b1c                f_sync
 .text.f_close  0x08004c34       0x2c ..\obj\ff.o
                0x08004c34                f_close
 .text.f_lseek  0x08004c60      0x2e4 ..\obj\ff.o
                0x08004c60                f_lseek
 .text.SS_LOW   0x08004f44       0x24 ..\obj\mmc_driver.o
                0x08004f44                SS_LOW
 .text.SS_HIGH  0x08004f68       0x24 ..\obj\mmc_driver.o
                0x08004f68                SS_HIGH
 .text.MSD_Init
                0x08004f8c       0x68 ..\obj\mmc_driver.o
                0x08004f8c                MSD_Init
 .text.MSD_WriteBlock
                0x08004ff4       0xd0 ..\obj\mmc_driver.o
                0x08004ff4                MSD_WriteBlock
 .text.MSD_ReadBlock
                0x080050c4       0xc0 ..\obj\mmc_driver.o
                0x080050c4                MSD_ReadBlock
 .text.MSD_WriteBuffer
                0x08005184       0xec ..\obj\mmc_driver.o
                0x08005184                MSD_WriteBuffer
 .text.MSD_ReadBuffer
                0x08005270       0xb8 ..\obj\mmc_driver.o
                0x08005270                MSD_ReadBuffer
 .text.crc7update
                0x08005328       0x7c ..\obj\mmc_driver.o
                0x08005328                crc7update
 .text.MSD_SendCmd
                0x080053a4       0xc4 ..\obj\mmc_driver.o
                0x080053a4                MSD_SendCmd
 .text.MSD_GetDataResponse
                0x08005468       0x98 ..\obj\mmc_driver.o
                0x08005468                MSD_GetDataResponse
 .text.MSD_GetResponse
                0x08005500       0x60 ..\obj\mmc_driver.o
                0x08005500                MSD_GetResponse
 .text.MSD_GoIdleState
                0x08005560      0x330 ..\obj\mmc_driver.o
                0x08005560                MSD_GoIdleState
 *(.glue_7t)
 .glue_7t       0x00000000        0x0 linker stubs
 *(.glue_7)
 .glue_7        0x00000000        0x0 linker stubs
 *(.rodata .rodata* .gnu.linkonce.r.*)
 .rodata        0x08005890       0x14 ..\obj\stm32_pio.o
                0x08005890                pi_pio
 .rodata        0x080058a4       0x44 ..\obj\STM32_USART.o
                0x080058b8                pi_serial1
                0x080058c8                pi_serial2
                0x080058d8                pi_serial3
 .rodata        0x080058e8      0x124 ..\obj\main.o
 .rodata        0x08005a0c       0x3c ..\obj\stm_spi_master.o
                0x08005a0c                pi_spi1
                0x08005a20                pi_spi2
                0x08005a34                pi_spi3
 .rodata        0x08005a48       0x24 ..\obj\printf.o
 .rodata        0x08005a6c       0x74 ..\obj\ff.o
 .rodata        0x08005ae0       0xec ..\obj\mmc_driver.o

.vfp11_veneer   0x08005bcc        0x0
 .vfp11_veneer  0x00000000        0x0 linker stubs

.v4_bx          0x08005bcc        0x0
 .v4_bx         0x00000000        0x0 linker stubs

.ARM.extab
 *(.ARM.extab* .gnu.linkonce.armextab.*)

.ARM.exidx
 *(.ARM.exidx* .gnu.linkonce.armexidx.*)
                0x08005bcc                . = ALIGN (0x4)
                0x08005bcc                _etext = .
                0x08005bcc                _sidata = .

.data           0x20000000      0x100 load address 0x08005bcc
                0x20000000                _sdata = .
 *(.data .data.*)
 .data          0x20000000        0x1 ..\obj\diskio.o
 *fill*         0x20000001        0x3 00
 .data          0x20000004        0x8 ..\obj\main.o
                0x20000004                UART
                0x20000008                sd
 .data          0x2000000c       0xf4 ..\obj\printf.o
                0x2000000c                r
                0x200000fc                _impure_ptr
                0x20000100                . = ALIGN (0x4)
                0x20000100                _edata = .

.bss            0x20000100       0x1c load address 0x08005ccc
                0x20000100                _sbss = .
 *(.bss .bss.*)
 .bss           0x20000100        0xc ..\obj\ff.o
 *(COMMON)
 COMMON         0x2000010c        0x1 ..\obj\diskio.o
                0x2000010c                CardType
 *fill*         0x2000010d        0x3 00
 COMMON         0x20000110        0xc ..\obj\main.o
                0x20000110                sd_var
                0x2000011c                . = ALIGN (0x4)
                0x2000011c                _ebss = .

.co_stack       0x2000011c     0x1404 load address 0x08005ce8
                0x20000120                . = ALIGN (0x8)
 *fill*         0x2000011c        0x4 00
 *(.co_stack .co_stack.*)
 .co_stack      0x20000120     0x1400 ..\obj\startup_stm32f10x_md_vl.o
                0x20000120                pulStack
                0x20001520                . = ALIGN (0x4)
                0x20001520                _end = .
LOAD ..\obj\startup_stm32f10x_md_vl.o
LOAD ..\obj\stm32_pio.o
LOAD ..\obj\core_cm3.o
LOAD ..\obj\system_stm32f10x.o
LOAD ..\obj\STM32_USART.o
LOAD ..\obj\diskio.o
LOAD ..\obj\main.o
LOAD ..\obj\stm_spi_master.o
LOAD ..\obj\printf.o
LOAD ..\obj\stm32f10x_rcc.o
LOAD ..\obj\syscalls.o
LOAD ..\obj\ff.o
LOAD ..\obj\mmc_driver.o
START GROUP
LOAD j:/cocenter/cooide/gcc/sourcery g++ lite/bin/../lib/gcc/arm-none-eabi/4.5.2/thumb2\libgcc.a
LOAD j:/cocenter/cooide/gcc/sourcery g++ lite/bin/../lib/gcc/arm-none-eabi/4.5.2/../../../../arm-none-eabi/lib/thumb2\libc.a
END GROUP
OUTPUT(STM32FAT.elf elf32-littlearm)

.debug_abbrev   0x00000000     0x130e
 .debug_abbrev  0x00000000       0xac ..\obj\startup_stm32f10x_md_vl.o
 .debug_abbrev  0x000000ac      0x14e ..\obj\stm32_pio.o
 .debug_abbrev  0x000001fa       0xd5 ..\obj\core_cm3.o
 .debug_abbrev  0x000002cf      0x17e ..\obj\system_stm32f10x.o
 .debug_abbrev  0x0000044d      0x214 ..\obj\STM32_USART.o
 .debug_abbrev  0x00000661      0x155 ..\obj\diskio.o
 .debug_abbrev  0x000007b6      0x1c4 ..\obj\main.o
 .debug_abbrev  0x0000097a      0x1a6 ..\obj\stm_spi_master.o
 .debug_abbrev  0x00000b20      0x26d ..\obj\printf.o
 .debug_abbrev  0x00000d8d      0x191 ..\obj\stm32f10x_rcc.o
 .debug_abbrev  0x00000f1e       0xde ..\obj\syscalls.o
 .debug_abbrev  0x00000ffc      0x160 ..\obj\ff.o
 .debug_abbrev  0x0000115c      0x1b2 ..\obj\mmc_driver.o

.debug_info     0x00000000     0x7cc9
 .debug_info    0x00000000      0x132 ..\obj\startup_stm32f10x_md_vl.o
 .debug_info    0x00000132      0x52e ..\obj\stm32_pio.o
 .debug_info    0x00000660      0x548 ..\obj\core_cm3.o
 .debug_info    0x00000ba8      0x433 ..\obj\system_stm32f10x.o
 .debug_info    0x00000fdb      0xfc9 ..\obj\STM32_USART.o
 .debug_info    0x00001fa4      0x574 ..\obj\diskio.o
 .debug_info    0x00002518      0x9bf ..\obj\main.o
 .debug_info    0x00002ed7      0xaef ..\obj\stm_spi_master.o
 .debug_info    0x000039c6      0xff5 ..\obj\printf.o
 .debug_info    0x000049bb      0x976 ..\obj\stm32f10x_rcc.o
 .debug_info    0x00005331      0x440 ..\obj\syscalls.o
 .debug_info    0x00005771     0x19e1 ..\obj\ff.o
 .debug_info    0x00007152      0xb77 ..\obj\mmc_driver.o

.debug_line     0x00000000     0x330b
 .debug_line    0x00000000       0xa6 ..\obj\startup_stm32f10x_md_vl.o
 .debug_line    0x000000a6      0x267 ..\obj\stm32_pio.o
 .debug_line    0x0000030d      0x281 ..\obj\core_cm3.o
 .debug_line    0x0000058e      0x20f ..\obj\system_stm32f10x.o
 .debug_line    0x0000079d      0x4c5 ..\obj\STM32_USART.o
 .debug_line    0x00000c62      0x28f ..\obj\diskio.o
 .debug_line    0x00000ef1      0x2a8 ..\obj\main.o
 .debug_line    0x00001199      0x40d ..\obj\stm_spi_master.o
 .debug_line    0x000015a6      0x42d ..\obj\printf.o
 .debug_line    0x000019d3      0x485 ..\obj\stm32f10x_rcc.o
 .debug_line    0x00001e58      0x18f ..\obj\syscalls.o
 .debug_line    0x00001fe7      0xe88 ..\obj\ff.o
 .debug_line    0x00002e6f      0x49c ..\obj\mmc_driver.o

.debug_loc      0x00000000     0x2ca0
 .debug_loc     0x00000000       0x64 ..\obj\startup_stm32f10x_md_vl.o
 .debug_loc     0x00000064      0x150 ..\obj\stm32_pio.o
 .debug_loc     0x000001b4      0x3f0 ..\obj\core_cm3.o
 .debug_loc     0x000005a4       0xc8 ..\obj\system_stm32f10x.o
 .debug_loc     0x0000066c      0x4d2 ..\obj\STM32_USART.o
 .debug_loc     0x00000b3e      0x144 ..\obj\diskio.o
 .debug_loc     0x00000c82       0xd6 ..\obj\main.o
 .debug_loc     0x00000d58      0x4f0 ..\obj\stm_spi_master.o
 .debug_loc     0x00001248      0x3ea ..\obj\printf.o
 .debug_loc     0x00001632      0x714 ..\obj\stm32f10x_rcc.o
 .debug_loc     0x00001d46      0x1ec ..\obj\syscalls.o
 .debug_loc     0x00001f32      0x9b6 ..\obj\ff.o
 .debug_loc     0x000028e8      0x3b8 ..\obj\mmc_driver.o

.debug_pubnames
                0x00000000      0xb04
 .debug_pubnames
                0x00000000       0x4a ..\obj\startup_stm32f10x_md_vl.o
 .debug_pubnames
                0x0000004a       0x1d ..\obj\stm32_pio.o
 .debug_pubnames
                0x00000067      0x159 ..\obj\core_cm3.o
 .debug_pubnames
                0x000001c0       0x61 ..\obj\system_stm32f10x.o
 .debug_pubnames
                0x00000221       0xd1 ..\obj\STM32_USART.o
 .debug_pubnames
                0x000002f2       0x7c ..\obj\diskio.o
 .debug_pubnames
                0x0000036e       0x58 ..\obj\main.o
 .debug_pubnames
                0x000003c6       0x5e ..\obj\stm_spi_master.o
 .debug_pubnames
                0x00000424      0x101 ..\obj\printf.o
 .debug_pubnames
                0x00000525      0x2da ..\obj\stm32f10x_rcc.o
 .debug_pubnames
                0x000007ff       0x71 ..\obj\syscalls.o
 .debug_pubnames
                0x00000870      0x14a ..\obj\ff.o
 .debug_pubnames
                0x000009ba      0x14a ..\obj\mmc_driver.o

.debug_aranges  0x00000000      0x7c0
 .debug_aranges
                0x00000000       0x28 ..\obj\startup_stm32f10x_md_vl.o
 .debug_aranges
                0x00000028       0x48 ..\obj\stm32_pio.o
 .debug_aranges
                0x00000070       0xc8 ..\obj\core_cm3.o
 .debug_aranges
                0x00000138       0x38 ..\obj\system_stm32f10x.o
 .debug_aranges
                0x00000170       0xc8 ..\obj\STM32_USART.o
 .debug_aranges
                0x00000238       0x48 ..\obj\diskio.o
 .debug_aranges
                0x00000280       0x38 ..\obj\main.o
 .debug_aranges
                0x000002b8       0xd0 ..\obj\stm_spi_master.o
 .debug_aranges
                0x00000388       0xa0 ..\obj\printf.o
 .debug_aranges
                0x00000428      0x120 ..\obj\stm32f10x_rcc.o
 .debug_aranges
                0x00000548       0x60 ..\obj\syscalls.o
 .debug_aranges
                0x000005a8      0x178 ..\obj\ff.o
 .debug_aranges
                0x00000720       0xa0 ..\obj\mmc_driver.o

.debug_ranges   0x00000000      0x6f0
 .debug_ranges  0x00000000       0x18 ..\obj\startup_stm32f10x_md_vl.o
 .debug_ranges  0x00000018       0x38 ..\obj\stm32_pio.o
 .debug_ranges  0x00000050       0xb8 ..\obj\core_cm3.o
 .debug_ranges  0x00000108       0x28 ..\obj\system_stm32f10x.o
 .debug_ranges  0x00000130       0xb8 ..\obj\STM32_USART.o
 .debug_ranges  0x000001e8       0x38 ..\obj\diskio.o
 .debug_ranges  0x00000220       0x28 ..\obj\main.o
 .debug_ranges  0x00000248       0xc0 ..\obj\stm_spi_master.o
 .debug_ranges  0x00000308       0x90 ..\obj\printf.o
 .debug_ranges  0x00000398      0x110 ..\obj\stm32f10x_rcc.o
 .debug_ranges  0x000004a8       0x50 ..\obj\syscalls.o
 .debug_ranges  0x000004f8      0x168 ..\obj\ff.o
 .debug_ranges  0x00000660       0x90 ..\obj\mmc_driver.o

.debug_str      0x00000000     0x24e8
 .debug_str     0x00000000       0xc0 ..\obj\startup_stm32f10x_md_vl.o
                                 0xdf (size before relaxing)
 .debug_str     0x000000c0      0x1be ..\obj\stm32_pio.o
                                0x213 (size before relaxing)
 .debug_str     0x0000027e      0x163 ..\obj\core_cm3.o
                                0x22a (size before relaxing)
 .debug_str     0x000003e1      0x11e ..\obj\system_stm32f10x.o
                                0x232 (size before relaxing)
 .debug_str     0x000004ff      0x921 ..\obj\STM32_USART.o
                                0xad3 (size before relaxing)
 .debug_str     0x00000e20       0xe6 ..\obj\diskio.o
                                0x1e7 (size before relaxing)
 .debug_str     0x00000f06      0x3f2 ..\obj\main.o
                                0x53d (size before relaxing)
 .debug_str     0x000012f8      0x260 ..\obj\stm_spi_master.o
                                0x5ce (size before relaxing)
 .debug_str     0x00001558      0x48e ..\obj\printf.o
                                0x614 (size before relaxing)
 .debug_str     0x000019e6      0x361 ..\obj\stm32f10x_rcc.o
                                0x5cb (size before relaxing)
 .debug_str     0x00001d47      0x141 ..\obj\syscalls.o
                                0x24d (size before relaxing)
 .debug_str     0x00001e88      0x29e ..\obj\ff.o
                                0x5d2 (size before relaxing)
 .debug_str     0x00002126      0x3c2 ..\obj\mmc_driver.o
                                0x523 (size before relaxing)

.comment        0x00000000       0x2a
 .comment       0x00000000       0x2a ..\obj\startup_stm32f10x_md_vl.o
                                 0x2b (size before relaxing)
 .comment       0x00000000       0x2b ..\obj\stm32_pio.o
 .comment       0x00000000       0x2b ..\obj\core_cm3.o
 .comment       0x00000000       0x2b ..\obj\system_stm32f10x.o
 .comment       0x00000000       0x2b ..\obj\STM32_USART.o
 .comment       0x00000000       0x2b ..\obj\diskio.o
 .comment       0x00000000       0x2b ..\obj\main.o
 .comment       0x00000000       0x2b ..\obj\stm_spi_master.o
 .comment       0x00000000       0x2b ..\obj\printf.o
 .comment       0x00000000       0x2b ..\obj\stm32f10x_rcc.o
 .comment       0x00000000       0x2b ..\obj\syscalls.o
 .comment       0x00000000       0x2b ..\obj\ff.o
 .comment       0x00000000       0x2b ..\obj\mmc_driver.o

.ARM.attributes
                0x00000000       0x31
 .ARM.attributes
                0x00000000       0x31 ..\obj\startup_stm32f10x_md_vl.o
 .ARM.attributes
                0x00000031       0x31 ..\obj\stm32_pio.o
 .ARM.attributes
                0x00000062       0x31 ..\obj\core_cm3.o
 .ARM.attributes
                0x00000093       0x31 ..\obj\system_stm32f10x.o
 .ARM.attributes
                0x000000c4       0x31 ..\obj\STM32_USART.o
 .ARM.attributes
                0x000000f5       0x31 ..\obj\diskio.o
 .ARM.attributes
                0x00000126       0x31 ..\obj\main.o
 .ARM.attributes
                0x00000157       0x31 ..\obj\stm_spi_master.o
 .ARM.attributes
                0x00000188       0x31 ..\obj\printf.o
 .ARM.attributes
                0x000001b9       0x31 ..\obj\stm32f10x_rcc.o
 .ARM.attributes
                0x000001ea       0x31 ..\obj\syscalls.o
 .ARM.attributes
                0x0000021b       0x31 ..\obj\ff.o
 .ARM.attributes
                0x0000024c       0x31 ..\obj\mmc_driver.o

.debug_frame    0x00000000     0x1984
 .debug_frame   0x00000000       0x48 ..\obj\startup_stm32f10x_md_vl.o
 .debug_frame   0x00000048       0xc8 ..\obj\stm32_pio.o
 .debug_frame   0x00000110      0x280 ..\obj\core_cm3.o
 .debug_frame   0x00000390       0x80 ..\obj\system_stm32f10x.o
 .debug_frame   0x00000410      0x2bc ..\obj\STM32_USART.o
 .debug_frame   0x000006cc       0xcc ..\obj\diskio.o
 .debug_frame   0x00000798       0x88 ..\obj\main.o
 .debug_frame   0x00000820      0x2d8 ..\obj\stm_spi_master.o
 .debug_frame   0x00000af8      0x248 ..\obj\printf.o
 .debug_frame   0x00000d40      0x3a4 ..\obj\stm32f10x_rcc.o
 .debug_frame   0x000010e4      0x108 ..\obj\syscalls.o
 .debug_frame   0x000011ec      0x570 ..\obj\ff.o
 .debug_frame   0x0000175c      0x228 ..\obj\mmc_driver.o

.debug_pubtypes
                0x00000000      0x87a
 .debug_pubtypes
                0x00000000       0x68 ..\obj\stm32_pio.o
 .debug_pubtypes
                0x00000068       0x50 ..\obj\core_cm3.o
 .debug_pubtypes
                0x000000b8       0x55 ..\obj\system_stm32f10x.o
 .debug_pubtypes
                0x0000010d      0x20b ..\obj\STM32_USART.o
 .debug_pubtypes
                0x00000318       0x87 ..\obj\diskio.o
 .debug_pubtypes
                0x0000039f       0xb4 ..\obj\main.o
 .debug_pubtypes
                0x00000453       0x78 ..\obj\stm_spi_master.o
 .debug_pubtypes
                0x000004cb      0x161 ..\obj\printf.o
 .debug_pubtypes
                0x0000062c       0x9e ..\obj\stm32f10x_rcc.o
 .debug_pubtypes
                0x000006ca       0xaa ..\obj\syscalls.o
 .debug_pubtypes
                0x00000774       0x7f ..\obj\ff.o
 .debug_pubtypes
                0x000007f3       0x87 ..\obj\mmc_driver.o
