
Debug/bin\STM32UARTIntOS.elf:     file format elf32-littlearm


Disassembly of section .text:

08000000 <g_pfnVectors>:
 8000000:	74 10 00 20 dd 02 00 08 45 03 00 08 45 03 00 08     t.. ....E...E...
 8000010:	45 03 00 08 45 03 00 08 45 03 00 08 00 00 00 00     E...E...E.......
	...
 800002c:	45 03 00 08 45 03 00 08 00 00 00 00 fd 34 00 08     E...E........4..
 800003c:	99 3e 00 08 45 03 00 08 45 03 00 08 45 03 00 08     .>..E...E...E...
 800004c:	45 03 00 08 45 03 00 08 45 03 00 08 45 03 00 08     E...E...E...E...
 800005c:	45 03 00 08 45 03 00 08 45 03 00 08 45 03 00 08     E...E...E...E...
 800006c:	45 03 00 08 45 03 00 08 45 03 00 08 45 03 00 08     E...E...E...E...
 800007c:	45 03 00 08 45 03 00 08 45 03 00 08 45 03 00 08     E...E...E...E...
	...
 800009c:	45 03 00 08 45 03 00 08 45 03 00 08 45 03 00 08     E...E...E...E...
 80000ac:	45 03 00 08 45 03 00 08 45 03 00 08 45 03 00 08     E...E...E...E...
 80000bc:	45 03 00 08 45 03 00 08 45 03 00 08 45 03 00 08     E...E...E...E...
 80000cc:	45 03 00 08 45 03 00 08 fd 1f 00 08 45 03 00 08     E...E.......E...
 80000dc:	45 03 00 08 45 03 00 08 45 03 00 08 45 03 00 08     E...E...E...E...
	...
 8000118:	45 03 00 08 45 03 00 08 5f f8 08 f1                 E...E..._...

08000124 <CoCreateKheap>:
 8000124:	b480      	push	{r7}
 8000126:	af00      	add	r7, sp, #0
 8000128:	4a0e      	ldr	r2, [pc, #56]	; (8000164 <CoCreateKheap+0x40>)
 800012a:	4b0f      	ldr	r3, [pc, #60]	; (8000168 <CoCreateKheap+0x44>)
 800012c:	601a      	str	r2, [r3, #0]
 800012e:	4b0d      	ldr	r3, [pc, #52]	; (8000164 <CoCreateKheap+0x40>)
 8000130:	f103 02c8 	add.w	r2, r3, #200	; 0xc8
 8000134:	4b0c      	ldr	r3, [pc, #48]	; (8000168 <CoCreateKheap+0x44>)
 8000136:	605a      	str	r2, [r3, #4]
 8000138:	4a0a      	ldr	r2, [pc, #40]	; (8000164 <CoCreateKheap+0x40>)
 800013a:	4b0c      	ldr	r3, [pc, #48]	; (800016c <CoCreateKheap+0x48>)
 800013c:	601a      	str	r2, [r3, #0]
 800013e:	4b0b      	ldr	r3, [pc, #44]	; (800016c <CoCreateKheap+0x48>)
 8000140:	681b      	ldr	r3, [r3, #0]
 8000142:	f04f 0200 	mov.w	r2, #0
 8000146:	601a      	str	r2, [r3, #0]
 8000148:	4b08      	ldr	r3, [pc, #32]	; (800016c <CoCreateKheap+0x48>)
 800014a:	681b      	ldr	r3, [r3, #0]
 800014c:	f04f 0200 	mov.w	r2, #0
 8000150:	605a      	str	r2, [r3, #4]
 8000152:	4b06      	ldr	r3, [pc, #24]	; (800016c <CoCreateKheap+0x48>)
 8000154:	681b      	ldr	r3, [r3, #0]
 8000156:	f04f 0200 	mov.w	r2, #0
 800015a:	609a      	str	r2, [r3, #8]
 800015c:	46bd      	mov	sp, r7
 800015e:	bc80      	pop	{r7}
 8000160:	4770      	bx	lr
 8000162:	bf00      	nop
 8000164:	20000110 	.word	0x20000110
 8000168:	200001dc 	.word	0x200001dc
 800016c:	200001d8 	.word	0x200001d8

08000170 <CoEnterISR>:
 8000170:	b580      	push	{r7, lr}
 8000172:	af00      	add	r7, sp, #0
 8000174:	4801      	ldr	r0, [pc, #4]	; (800017c <CoEnterISR+0xc>)
 8000176:	f003 f973 	bl	8003460 <Inc8>
 800017a:	bd80      	pop	{r7, pc}
 800017c:	200001e4 	.word	0x200001e4

08000180 <CoExitISR>:
 8000180:	b580      	push	{r7, lr}
 8000182:	af00      	add	r7, sp, #0
 8000184:	480f      	ldr	r0, [pc, #60]	; (80001c4 <CoExitISR+0x44>)
 8000186:	f003 f985 	bl	8003494 <Dec8>
 800018a:	4b0e      	ldr	r3, [pc, #56]	; (80001c4 <CoExitISR+0x44>)
 800018c:	781b      	ldrb	r3, [r3, #0]
 800018e:	b2db      	uxtb	r3, r3
 8000190:	2b00      	cmp	r3, #0
 8000192:	d116      	bne.n	80001c2 <CoExitISR+0x42>
 8000194:	4b0c      	ldr	r3, [pc, #48]	; (80001c8 <CoExitISR+0x48>)
 8000196:	781b      	ldrb	r3, [r3, #0]
 8000198:	b2db      	uxtb	r3, r3
 800019a:	2b01      	cmp	r3, #1
 800019c:	d111      	bne.n	80001c2 <CoExitISR+0x42>
 800019e:	4b0b      	ldr	r3, [pc, #44]	; (80001cc <CoExitISR+0x4c>)
 80001a0:	781b      	ldrb	r3, [r3, #0]
 80001a2:	b2db      	uxtb	r3, r3
 80001a4:	f103 0301 	add.w	r3, r3, #1
 80001a8:	b2da      	uxtb	r2, r3
 80001aa:	4b08      	ldr	r3, [pc, #32]	; (80001cc <CoExitISR+0x4c>)
 80001ac:	701a      	strb	r2, [r3, #0]
 80001ae:	f001 fcc7 	bl	8001b40 <Schedule>
 80001b2:	4b06      	ldr	r3, [pc, #24]	; (80001cc <CoExitISR+0x4c>)
 80001b4:	781b      	ldrb	r3, [r3, #0]
 80001b6:	b2db      	uxtb	r3, r3
 80001b8:	f103 33ff 	add.w	r3, r3, #4294967295
 80001bc:	b2da      	uxtb	r2, r3
 80001be:	4b03      	ldr	r3, [pc, #12]	; (80001cc <CoExitISR+0x4c>)
 80001c0:	701a      	strb	r2, [r3, #0]
 80001c2:	bd80      	pop	{r7, pc}
 80001c4:	200001e4 	.word	0x200001e4
 80001c8:	200001e6 	.word	0x200001e6
 80001cc:	200001e5 	.word	0x200001e5

080001d0 <OsSchedUnlock>:
 80001d0:	b580      	push	{r7, lr}
 80001d2:	af00      	add	r7, sp, #0
 80001d4:	4b0f      	ldr	r3, [pc, #60]	; (8000214 <OsSchedUnlock+0x44>)
 80001d6:	781b      	ldrb	r3, [r3, #0]
 80001d8:	b2db      	uxtb	r3, r3
 80001da:	2b01      	cmp	r3, #1
 80001dc:	d111      	bne.n	8000202 <OsSchedUnlock+0x32>
 80001de:	4b0e      	ldr	r3, [pc, #56]	; (8000218 <OsSchedUnlock+0x48>)
 80001e0:	781b      	ldrb	r3, [r3, #0]
 80001e2:	2b01      	cmp	r3, #1
 80001e4:	d101      	bne.n	80001ea <OsSchedUnlock+0x1a>
 80001e6:	f001 fe7b 	bl	8001ee0 <RespondSRQ>
 80001ea:	4b0c      	ldr	r3, [pc, #48]	; (800021c <OsSchedUnlock+0x4c>)
 80001ec:	781b      	ldrb	r3, [r3, #0]
 80001ee:	b2db      	uxtb	r3, r3
 80001f0:	2b01      	cmp	r3, #1
 80001f2:	d101      	bne.n	80001f8 <OsSchedUnlock+0x28>
 80001f4:	f001 fca4 	bl	8001b40 <Schedule>
 80001f8:	4b06      	ldr	r3, [pc, #24]	; (8000214 <OsSchedUnlock+0x44>)
 80001fa:	f04f 0200 	mov.w	r2, #0
 80001fe:	701a      	strb	r2, [r3, #0]
 8000200:	e007      	b.n	8000212 <OsSchedUnlock+0x42>
 8000202:	4b04      	ldr	r3, [pc, #16]	; (8000214 <OsSchedUnlock+0x44>)
 8000204:	781b      	ldrb	r3, [r3, #0]
 8000206:	b2db      	uxtb	r3, r3
 8000208:	f103 33ff 	add.w	r3, r3, #4294967295
 800020c:	b2da      	uxtb	r2, r3
 800020e:	4b01      	ldr	r3, [pc, #4]	; (8000214 <OsSchedUnlock+0x44>)
 8000210:	701a      	strb	r2, [r3, #0]
 8000212:	bd80      	pop	{r7, pc}
 8000214:	200001e5 	.word	0x200001e5
 8000218:	200003d4 	.word	0x200003d4
 800021c:	200001e6 	.word	0x200001e6

08000220 <CoInitOS>:
 8000220:	b580      	push	{r7, lr}
 8000222:	af00      	add	r7, sp, #0
 8000224:	4b17      	ldr	r3, [pc, #92]	; (8000284 <CoInitOS+0x64>)
 8000226:	4a18      	ldr	r2, [pc, #96]	; (8000288 <CoInitOS+0x68>)
 8000228:	601a      	str	r2, [r3, #0]
 800022a:	4b18      	ldr	r3, [pc, #96]	; (800028c <CoInitOS+0x6c>)
 800022c:	f04f 0207 	mov.w	r2, #7
 8000230:	601a      	str	r2, [r3, #0]
 8000232:	4b17      	ldr	r3, [pc, #92]	; (8000290 <CoInitOS+0x70>)
 8000234:	4a16      	ldr	r2, [pc, #88]	; (8000290 <CoInitOS+0x70>)
 8000236:	6812      	ldr	r2, [r2, #0]
 8000238:	f042 427f 	orr.w	r2, r2, #4278190080	; 0xff000000
 800023c:	601a      	str	r2, [r3, #0]
 800023e:	4a15      	ldr	r2, [pc, #84]	; (8000294 <CoInitOS+0x74>)
 8000240:	4b14      	ldr	r3, [pc, #80]	; (8000294 <CoInitOS+0x74>)
 8000242:	681b      	ldr	r3, [r3, #0]
 8000244:	ea6f 4303 	mvn.w	r3, r3, lsl #16
 8000248:	ea6f 4313 	mvn.w	r3, r3, lsr #16
 800024c:	6013      	str	r3, [r2, #0]
 800024e:	f001 fb6f 	bl	8001930 <CreateTCBList>
 8000252:	f002 ff09 	bl	8003068 <CreateEventList>
 8000256:	f7ff ff65 	bl	8000124 <CoCreateKheap>
 800025a:	4b0f      	ldr	r3, [pc, #60]	; (8000298 <CoInitOS+0x78>)
 800025c:	781b      	ldrb	r3, [r3, #0]
 800025e:	b2db      	uxtb	r3, r3
 8000260:	f103 0301 	add.w	r3, r3, #1
 8000264:	b2da      	uxtb	r2, r3
 8000266:	4b0c      	ldr	r3, [pc, #48]	; (8000298 <CoInitOS+0x78>)
 8000268:	701a      	strb	r2, [r3, #0]
 800026a:	480c      	ldr	r0, [pc, #48]	; (800029c <CoInitOS+0x7c>)
 800026c:	f04f 0100 	mov.w	r1, #0
 8000270:	f44f 52ca 	mov.w	r2, #6464	; 0x1940
 8000274:	4b0a      	ldr	r3, [pc, #40]	; (80002a0 <CoInitOS+0x80>)
 8000276:	f001 fd3d 	bl	8001cf4 <CreateTask>
 800027a:	4809      	ldr	r0, [pc, #36]	; (80002a0 <CoInitOS+0x80>)
 800027c:	f003 f92e 	bl	80034dc <SetEnvironment>
 8000280:	bd80      	pop	{r7, pc}
 8000282:	bf00      	nop
 8000284:	e000e014 	.word	0xe000e014
 8000288:	0003a97f 	.word	0x0003a97f
 800028c:	e000e010 	.word	0xe000e010
 8000290:	e000ed1c 	.word	0xe000ed1c
 8000294:	e000ed20 	.word	0xe000ed20
 8000298:	200001e5 	.word	0x200001e5
 800029c:	08004359 	.word	0x08004359
 80002a0:	20000388 	.word	0x20000388

080002a4 <CoStartOS>:
 80002a4:	b580      	push	{r7, lr}
 80002a6:	af00      	add	r7, sp, #0
 80002a8:	4b09      	ldr	r3, [pc, #36]	; (80002d0 <CoStartOS+0x2c>)
 80002aa:	4a0a      	ldr	r2, [pc, #40]	; (80002d4 <CoStartOS+0x30>)
 80002ac:	601a      	str	r2, [r3, #0]
 80002ae:	4b08      	ldr	r3, [pc, #32]	; (80002d0 <CoStartOS+0x2c>)
 80002b0:	681a      	ldr	r2, [r3, #0]
 80002b2:	4b09      	ldr	r3, [pc, #36]	; (80002d8 <CoStartOS+0x34>)
 80002b4:	601a      	str	r2, [r3, #0]
 80002b6:	4b06      	ldr	r3, [pc, #24]	; (80002d0 <CoStartOS+0x2c>)
 80002b8:	681b      	ldr	r3, [r3, #0]
 80002ba:	f04f 0201 	mov.w	r2, #1
 80002be:	715a      	strb	r2, [r3, #5]
 80002c0:	4b03      	ldr	r3, [pc, #12]	; (80002d0 <CoStartOS+0x2c>)
 80002c2:	681b      	ldr	r3, [r3, #0]
 80002c4:	4618      	mov	r0, r3
 80002c6:	f001 fbf1 	bl	8001aac <RemoveFromTCBRdyList>
 80002ca:	f7ff ff81 	bl	80001d0 <OsSchedUnlock>
 80002ce:	bd80      	pop	{r7, pc}
 80002d0:	20000398 	.word	0x20000398
 80002d4:	20000220 	.word	0x20000220
 80002d8:	20000394 	.word	0x20000394

080002dc <Default_Reset_Handler>:
 80002dc:	b580      	push	{r7, lr}
 80002de:	b082      	sub	sp, #8
 80002e0:	af00      	add	r7, sp, #0
 80002e2:	4b13      	ldr	r3, [pc, #76]	; (8000330 <zero_loop+0x1c>)
 80002e4:	607b      	str	r3, [r7, #4]
 80002e6:	4b13      	ldr	r3, [pc, #76]	; (8000334 <zero_loop+0x20>)
 80002e8:	603b      	str	r3, [r7, #0]
 80002ea:	e00b      	b.n	8000304 <Default_Reset_Handler+0x28>
 80002ec:	687b      	ldr	r3, [r7, #4]
 80002ee:	681a      	ldr	r2, [r3, #0]
 80002f0:	683b      	ldr	r3, [r7, #0]
 80002f2:	601a      	str	r2, [r3, #0]
 80002f4:	683b      	ldr	r3, [r7, #0]
 80002f6:	f103 0304 	add.w	r3, r3, #4
 80002fa:	603b      	str	r3, [r7, #0]
 80002fc:	687b      	ldr	r3, [r7, #4]
 80002fe:	f103 0304 	add.w	r3, r3, #4
 8000302:	607b      	str	r3, [r7, #4]
 8000304:	683a      	ldr	r2, [r7, #0]
 8000306:	4b0c      	ldr	r3, [pc, #48]	; (8000338 <zero_loop+0x24>)
 8000308:	429a      	cmp	r2, r3
 800030a:	d3ef      	bcc.n	80002ec <Default_Reset_Handler+0x10>
 800030c:	480b      	ldr	r0, [pc, #44]	; (800033c <zero_loop+0x28>)
 800030e:	490c      	ldr	r1, [pc, #48]	; (8000340 <zero_loop+0x2c>)
 8000310:	f04f 0200 	mov.w	r2, #0

08000314 <zero_loop>:
 8000314:	4288      	cmp	r0, r1
 8000316:	bfb8      	it	lt
 8000318:	f840 2b04 	strlt.w	r2, [r0], #4
 800031c:	dbfa      	blt.n	8000314 <zero_loop>
 800031e:	f000 fc1d 	bl	8000b5c <SystemInit>
 8000322:	f001 ffcf 	bl	80022c4 <main>
 8000326:	f107 0708 	add.w	r7, r7, #8
 800032a:	46bd      	mov	sp, r7
 800032c:	bd80      	pop	{r7, pc}
 800032e:	bf00      	nop
 8000330:	0800469c 	.word	0x0800469c
 8000334:	20000000 	.word	0x20000000
 8000338:	2000010c 	.word	0x2000010c
 800033c:	20000110 	.word	0x20000110
 8000340:	20000c74 	.word	0x20000c74

08000344 <ADC1_IRQHandler>:
 8000344:	b480      	push	{r7}
 8000346:	af00      	add	r7, sp, #0
 8000348:	e7fe      	b.n	8000348 <ADC1_IRQHandler+0x4>
 800034a:	bf00      	nop

0800034c <STM32_GetGPIO>:
 800034c:	b480      	push	{r7}
 800034e:	b085      	sub	sp, #20
 8000350:	af00      	add	r7, sp, #0
 8000352:	4603      	mov	r3, r0
 8000354:	71fb      	strb	r3, [r7, #7]
 8000356:	f04f 0300 	mov.w	r3, #0
 800035a:	60fb      	str	r3, [r7, #12]
 800035c:	79fb      	ldrb	r3, [r7, #7]
 800035e:	2b06      	cmp	r3, #6
 8000360:	d825      	bhi.n	80003ae <STM32_GetGPIO+0x62>
 8000362:	a201      	add	r2, pc, #4	; (adr r2, 8000368 <STM32_GetGPIO+0x1c>)
 8000364:	f852 f023 	ldr.w	pc, [r2, r3, lsl #2]
 8000368:	08000385 	.word	0x08000385
 800036c:	0800038b 	.word	0x0800038b
 8000370:	08000391 	.word	0x08000391
 8000374:	08000397 	.word	0x08000397
 8000378:	0800039d 	.word	0x0800039d
 800037c:	080003a3 	.word	0x080003a3
 8000380:	080003a9 	.word	0x080003a9
 8000384:	4b0e      	ldr	r3, [pc, #56]	; (80003c0 <STM32_GetGPIO+0x74>)
 8000386:	60fb      	str	r3, [r7, #12]
 8000388:	e012      	b.n	80003b0 <STM32_GetGPIO+0x64>
 800038a:	4b0e      	ldr	r3, [pc, #56]	; (80003c4 <STM32_GetGPIO+0x78>)
 800038c:	60fb      	str	r3, [r7, #12]
 800038e:	e00f      	b.n	80003b0 <STM32_GetGPIO+0x64>
 8000390:	4b0d      	ldr	r3, [pc, #52]	; (80003c8 <STM32_GetGPIO+0x7c>)
 8000392:	60fb      	str	r3, [r7, #12]
 8000394:	e00c      	b.n	80003b0 <STM32_GetGPIO+0x64>
 8000396:	4b0d      	ldr	r3, [pc, #52]	; (80003cc <STM32_GetGPIO+0x80>)
 8000398:	60fb      	str	r3, [r7, #12]
 800039a:	e009      	b.n	80003b0 <STM32_GetGPIO+0x64>
 800039c:	4b0c      	ldr	r3, [pc, #48]	; (80003d0 <STM32_GetGPIO+0x84>)
 800039e:	60fb      	str	r3, [r7, #12]
 80003a0:	e006      	b.n	80003b0 <STM32_GetGPIO+0x64>
 80003a2:	4b0c      	ldr	r3, [pc, #48]	; (80003d4 <STM32_GetGPIO+0x88>)
 80003a4:	60fb      	str	r3, [r7, #12]
 80003a6:	e003      	b.n	80003b0 <STM32_GetGPIO+0x64>
 80003a8:	4b0b      	ldr	r3, [pc, #44]	; (80003d8 <STM32_GetGPIO+0x8c>)
 80003aa:	60fb      	str	r3, [r7, #12]
 80003ac:	e000      	b.n	80003b0 <STM32_GetGPIO+0x64>
 80003ae:	bf00      	nop
 80003b0:	68fb      	ldr	r3, [r7, #12]
 80003b2:	4618      	mov	r0, r3
 80003b4:	f107 0714 	add.w	r7, r7, #20
 80003b8:	46bd      	mov	sp, r7
 80003ba:	bc80      	pop	{r7}
 80003bc:	4770      	bx	lr
 80003be:	bf00      	nop
 80003c0:	40010800 	.word	0x40010800
 80003c4:	40010c00 	.word	0x40010c00
 80003c8:	40011000 	.word	0x40011000
 80003cc:	40011400 	.word	0x40011400
 80003d0:	40011800 	.word	0x40011800
 80003d4:	40011c00 	.word	0x40011c00
 80003d8:	40012000 	.word	0x40012000

080003dc <STM32_PIO_Init>:
 80003dc:	b580      	push	{r7, lr}
 80003de:	b084      	sub	sp, #16
 80003e0:	af00      	add	r7, sp, #0
 80003e2:	4603      	mov	r3, r0
 80003e4:	80fb      	strh	r3, [r7, #6]
 80003e6:	f04f 0300 	mov.w	r3, #0
 80003ea:	60fb      	str	r3, [r7, #12]
 80003ec:	88fb      	ldrh	r3, [r7, #6]
 80003ee:	ea4f 2313 	mov.w	r3, r3, lsr #8
 80003f2:	b29b      	uxth	r3, r3
 80003f4:	72fb      	strb	r3, [r7, #11]
 80003f6:	88fb      	ldrh	r3, [r7, #6]
 80003f8:	72bb      	strb	r3, [r7, #10]
 80003fa:	7afb      	ldrb	r3, [r7, #11]
 80003fc:	4618      	mov	r0, r3
 80003fe:	f7ff ffa5 	bl	800034c <STM32_GetGPIO>
 8000402:	60f8      	str	r0, [r7, #12]
 8000404:	7afb      	ldrb	r3, [r7, #11]
 8000406:	2b06      	cmp	r3, #6
 8000408:	d802      	bhi.n	8000410 <STM32_PIO_Init+0x34>
 800040a:	7abb      	ldrb	r3, [r7, #10]
 800040c:	2b0f      	cmp	r3, #15
 800040e:	d902      	bls.n	8000416 <STM32_PIO_Init+0x3a>
 8000410:	f04f 0301 	mov.w	r3, #1
 8000414:	e036      	b.n	8000484 <STM32_PIO_Init+0xa8>
 8000416:	7afb      	ldrb	r3, [r7, #11]
 8000418:	2b04      	cmp	r3, #4
 800041a:	d830      	bhi.n	800047e <STM32_PIO_Init+0xa2>
 800041c:	a201      	add	r2, pc, #4	; (adr r2, 8000424 <STM32_PIO_Init+0x48>)
 800041e:	f852 f023 	ldr.w	pc, [r2, r3, lsl #2]
 8000422:	bf00      	nop
 8000424:	08000439 	.word	0x08000439
 8000428:	08000447 	.word	0x08000447
 800042c:	08000455 	.word	0x08000455
 8000430:	08000463 	.word	0x08000463
 8000434:	08000471 	.word	0x08000471
 8000438:	4b15      	ldr	r3, [pc, #84]	; (8000490 <STM32_PIO_Init+0xb4>)
 800043a:	4a15      	ldr	r2, [pc, #84]	; (8000490 <STM32_PIO_Init+0xb4>)
 800043c:	6992      	ldr	r2, [r2, #24]
 800043e:	f042 0205 	orr.w	r2, r2, #5
 8000442:	619a      	str	r2, [r3, #24]
 8000444:	e01c      	b.n	8000480 <STM32_PIO_Init+0xa4>
 8000446:	4b12      	ldr	r3, [pc, #72]	; (8000490 <STM32_PIO_Init+0xb4>)
 8000448:	4a11      	ldr	r2, [pc, #68]	; (8000490 <STM32_PIO_Init+0xb4>)
 800044a:	6992      	ldr	r2, [r2, #24]
 800044c:	f042 0209 	orr.w	r2, r2, #9
 8000450:	619a      	str	r2, [r3, #24]
 8000452:	e015      	b.n	8000480 <STM32_PIO_Init+0xa4>
 8000454:	4b0e      	ldr	r3, [pc, #56]	; (8000490 <STM32_PIO_Init+0xb4>)
 8000456:	4a0e      	ldr	r2, [pc, #56]	; (8000490 <STM32_PIO_Init+0xb4>)
 8000458:	6992      	ldr	r2, [r2, #24]
 800045a:	f042 0211 	orr.w	r2, r2, #17
 800045e:	619a      	str	r2, [r3, #24]
 8000460:	e00e      	b.n	8000480 <STM32_PIO_Init+0xa4>
 8000462:	4b0b      	ldr	r3, [pc, #44]	; (8000490 <STM32_PIO_Init+0xb4>)
 8000464:	4a0a      	ldr	r2, [pc, #40]	; (8000490 <STM32_PIO_Init+0xb4>)
 8000466:	6992      	ldr	r2, [r2, #24]
 8000468:	f042 0221 	orr.w	r2, r2, #33	; 0x21
 800046c:	619a      	str	r2, [r3, #24]
 800046e:	e007      	b.n	8000480 <STM32_PIO_Init+0xa4>
 8000470:	4b07      	ldr	r3, [pc, #28]	; (8000490 <STM32_PIO_Init+0xb4>)
 8000472:	4a07      	ldr	r2, [pc, #28]	; (8000490 <STM32_PIO_Init+0xb4>)
 8000474:	6992      	ldr	r2, [r2, #24]
 8000476:	f042 0241 	orr.w	r2, r2, #65	; 0x41
 800047a:	619a      	str	r2, [r3, #24]
 800047c:	e000      	b.n	8000480 <STM32_PIO_Init+0xa4>
 800047e:	bf00      	nop
 8000480:	f04f 0300 	mov.w	r3, #0
 8000484:	4618      	mov	r0, r3
 8000486:	f107 0710 	add.w	r7, r7, #16
 800048a:	46bd      	mov	sp, r7
 800048c:	bd80      	pop	{r7, pc}
 800048e:	bf00      	nop
 8000490:	40021000 	.word	0x40021000

08000494 <STM32_PIO_SetDir>:
 8000494:	b580      	push	{r7, lr}
 8000496:	b084      	sub	sp, #16
 8000498:	af00      	add	r7, sp, #0
 800049a:	4602      	mov	r2, r0
 800049c:	460b      	mov	r3, r1
 800049e:	80fa      	strh	r2, [r7, #6]
 80004a0:	717b      	strb	r3, [r7, #5]
 80004a2:	f04f 0300 	mov.w	r3, #0
 80004a6:	60fb      	str	r3, [r7, #12]
 80004a8:	88fb      	ldrh	r3, [r7, #6]
 80004aa:	ea4f 2313 	mov.w	r3, r3, lsr #8
 80004ae:	b29b      	uxth	r3, r3
 80004b0:	72fb      	strb	r3, [r7, #11]
 80004b2:	88fb      	ldrh	r3, [r7, #6]
 80004b4:	72bb      	strb	r3, [r7, #10]
 80004b6:	7afb      	ldrb	r3, [r7, #11]
 80004b8:	4618      	mov	r0, r3
 80004ba:	f7ff ff47 	bl	800034c <STM32_GetGPIO>
 80004be:	60f8      	str	r0, [r7, #12]
 80004c0:	797b      	ldrb	r3, [r7, #5]
 80004c2:	2b00      	cmp	r3, #0
 80004c4:	d158      	bne.n	8000578 <STM32_PIO_SetDir+0xe4>
 80004c6:	7abb      	ldrb	r3, [r7, #10]
 80004c8:	2b07      	cmp	r3, #7
 80004ca:	d92c      	bls.n	8000526 <STM32_PIO_SetDir+0x92>
 80004cc:	7abb      	ldrb	r3, [r7, #10]
 80004ce:	f1a3 0308 	sub.w	r3, r3, #8
 80004d2:	72bb      	strb	r3, [r7, #10]
 80004d4:	68fb      	ldr	r3, [r7, #12]
 80004d6:	685a      	ldr	r2, [r3, #4]
 80004d8:	7abb      	ldrb	r3, [r7, #10]
 80004da:	ea4f 0383 	mov.w	r3, r3, lsl #2
 80004de:	f04f 0103 	mov.w	r1, #3
 80004e2:	fa01 f303 	lsl.w	r3, r1, r3
 80004e6:	ea6f 0303 	mvn.w	r3, r3
 80004ea:	401a      	ands	r2, r3
 80004ec:	68fb      	ldr	r3, [r7, #12]
 80004ee:	605a      	str	r2, [r3, #4]
 80004f0:	68fb      	ldr	r3, [r7, #12]
 80004f2:	685a      	ldr	r2, [r3, #4]
 80004f4:	7abb      	ldrb	r3, [r7, #10]
 80004f6:	ea4f 0383 	mov.w	r3, r3, lsl #2
 80004fa:	f04f 0108 	mov.w	r1, #8
 80004fe:	fa01 f303 	lsl.w	r3, r1, r3
 8000502:	ea6f 0303 	mvn.w	r3, r3
 8000506:	401a      	ands	r2, r3
 8000508:	68fb      	ldr	r3, [r7, #12]
 800050a:	605a      	str	r2, [r3, #4]
 800050c:	68fb      	ldr	r3, [r7, #12]
 800050e:	685a      	ldr	r2, [r3, #4]
 8000510:	7abb      	ldrb	r3, [r7, #10]
 8000512:	ea4f 0383 	mov.w	r3, r3, lsl #2
 8000516:	f04f 0104 	mov.w	r1, #4
 800051a:	fa01 f303 	lsl.w	r3, r1, r3
 800051e:	431a      	orrs	r2, r3
 8000520:	68fb      	ldr	r3, [r7, #12]
 8000522:	605a      	str	r2, [r3, #4]
 8000524:	e064      	b.n	80005f0 <STM32_PIO_SetDir+0x15c>
 8000526:	68fb      	ldr	r3, [r7, #12]
 8000528:	681a      	ldr	r2, [r3, #0]
 800052a:	7abb      	ldrb	r3, [r7, #10]
 800052c:	ea4f 0383 	mov.w	r3, r3, lsl #2
 8000530:	f04f 0103 	mov.w	r1, #3
 8000534:	fa01 f303 	lsl.w	r3, r1, r3
 8000538:	ea6f 0303 	mvn.w	r3, r3
 800053c:	401a      	ands	r2, r3
 800053e:	68fb      	ldr	r3, [r7, #12]
 8000540:	601a      	str	r2, [r3, #0]
 8000542:	68fb      	ldr	r3, [r7, #12]
 8000544:	681a      	ldr	r2, [r3, #0]
 8000546:	7abb      	ldrb	r3, [r7, #10]
 8000548:	ea4f 0383 	mov.w	r3, r3, lsl #2
 800054c:	f04f 0108 	mov.w	r1, #8
 8000550:	fa01 f303 	lsl.w	r3, r1, r3
 8000554:	ea6f 0303 	mvn.w	r3, r3
 8000558:	401a      	ands	r2, r3
 800055a:	68fb      	ldr	r3, [r7, #12]
 800055c:	601a      	str	r2, [r3, #0]
 800055e:	68fb      	ldr	r3, [r7, #12]
 8000560:	681a      	ldr	r2, [r3, #0]
 8000562:	7abb      	ldrb	r3, [r7, #10]
 8000564:	ea4f 0383 	mov.w	r3, r3, lsl #2
 8000568:	f04f 0104 	mov.w	r1, #4
 800056c:	fa01 f303 	lsl.w	r3, r1, r3
 8000570:	431a      	orrs	r2, r3
 8000572:	68fb      	ldr	r3, [r7, #12]
 8000574:	601a      	str	r2, [r3, #0]
 8000576:	e03b      	b.n	80005f0 <STM32_PIO_SetDir+0x15c>
 8000578:	7abb      	ldrb	r3, [r7, #10]
 800057a:	2b07      	cmp	r3, #7
 800057c:	d91e      	bls.n	80005bc <STM32_PIO_SetDir+0x128>
 800057e:	7abb      	ldrb	r3, [r7, #10]
 8000580:	f1a3 0308 	sub.w	r3, r3, #8
 8000584:	72bb      	strb	r3, [r7, #10]
 8000586:	68fb      	ldr	r3, [r7, #12]
 8000588:	685a      	ldr	r2, [r3, #4]
 800058a:	7abb      	ldrb	r3, [r7, #10]
 800058c:	ea4f 0383 	mov.w	r3, r3, lsl #2
 8000590:	f04f 0103 	mov.w	r1, #3
 8000594:	fa01 f303 	lsl.w	r3, r1, r3
 8000598:	431a      	orrs	r2, r3
 800059a:	68fb      	ldr	r3, [r7, #12]
 800059c:	605a      	str	r2, [r3, #4]
 800059e:	68fb      	ldr	r3, [r7, #12]
 80005a0:	685a      	ldr	r2, [r3, #4]
 80005a2:	7abb      	ldrb	r3, [r7, #10]
 80005a4:	ea4f 0383 	mov.w	r3, r3, lsl #2
 80005a8:	f04f 010c 	mov.w	r1, #12
 80005ac:	fa01 f303 	lsl.w	r3, r1, r3
 80005b0:	ea6f 0303 	mvn.w	r3, r3
 80005b4:	401a      	ands	r2, r3
 80005b6:	68fb      	ldr	r3, [r7, #12]
 80005b8:	605a      	str	r2, [r3, #4]
 80005ba:	e019      	b.n	80005f0 <STM32_PIO_SetDir+0x15c>
 80005bc:	68fb      	ldr	r3, [r7, #12]
 80005be:	681a      	ldr	r2, [r3, #0]
 80005c0:	7abb      	ldrb	r3, [r7, #10]
 80005c2:	ea4f 0383 	mov.w	r3, r3, lsl #2
 80005c6:	f04f 0103 	mov.w	r1, #3
 80005ca:	fa01 f303 	lsl.w	r3, r1, r3
 80005ce:	431a      	orrs	r2, r3
 80005d0:	68fb      	ldr	r3, [r7, #12]
 80005d2:	601a      	str	r2, [r3, #0]
 80005d4:	68fb      	ldr	r3, [r7, #12]
 80005d6:	681a      	ldr	r2, [r3, #0]
 80005d8:	7abb      	ldrb	r3, [r7, #10]
 80005da:	ea4f 0383 	mov.w	r3, r3, lsl #2
 80005de:	f04f 010c 	mov.w	r1, #12
 80005e2:	fa01 f303 	lsl.w	r3, r1, r3
 80005e6:	ea6f 0303 	mvn.w	r3, r3
 80005ea:	401a      	ands	r2, r3
 80005ec:	68fb      	ldr	r3, [r7, #12]
 80005ee:	601a      	str	r2, [r3, #0]
 80005f0:	f04f 0300 	mov.w	r3, #0
 80005f4:	4618      	mov	r0, r3
 80005f6:	f107 0710 	add.w	r7, r7, #16
 80005fa:	46bd      	mov	sp, r7
 80005fc:	bd80      	pop	{r7, pc}
 80005fe:	bf00      	nop

08000600 <STM32_PIO_Read>:
 8000600:	b580      	push	{r7, lr}
 8000602:	b086      	sub	sp, #24
 8000604:	af00      	add	r7, sp, #0
 8000606:	4603      	mov	r3, r0
 8000608:	80fb      	strh	r3, [r7, #6]
 800060a:	f04f 0300 	mov.w	r3, #0
 800060e:	613b      	str	r3, [r7, #16]
 8000610:	88fb      	ldrh	r3, [r7, #6]
 8000612:	ea4f 2313 	mov.w	r3, r3, lsr #8
 8000616:	b29b      	uxth	r3, r3
 8000618:	73fb      	strb	r3, [r7, #15]
 800061a:	88fb      	ldrh	r3, [r7, #6]
 800061c:	73bb      	strb	r3, [r7, #14]
 800061e:	7bfb      	ldrb	r3, [r7, #15]
 8000620:	4618      	mov	r0, r3
 8000622:	f7ff fe93 	bl	800034c <STM32_GetGPIO>
 8000626:	6138      	str	r0, [r7, #16]
 8000628:	7bbb      	ldrb	r3, [r7, #14]
 800062a:	2b07      	cmp	r3, #7
 800062c:	d92a      	bls.n	8000684 <STM32_PIO_Read+0x84>
 800062e:	693b      	ldr	r3, [r7, #16]
 8000630:	685a      	ldr	r2, [r3, #4]
 8000632:	7bbb      	ldrb	r3, [r7, #14]
 8000634:	f1a3 0308 	sub.w	r3, r3, #8
 8000638:	ea4f 0383 	mov.w	r3, r3, lsl #2
 800063c:	fa22 f303 	lsr.w	r3, r2, r3
 8000640:	f003 0303 	and.w	r3, r3, #3
 8000644:	2b00      	cmp	r3, #0
 8000646:	d10e      	bne.n	8000666 <STM32_PIO_Read+0x66>
 8000648:	693b      	ldr	r3, [r7, #16]
 800064a:	689a      	ldr	r2, [r3, #8]
 800064c:	7bbb      	ldrb	r3, [r7, #14]
 800064e:	fa22 f303 	lsr.w	r3, r2, r3
 8000652:	2b00      	cmp	r3, #0
 8000654:	d103      	bne.n	800065e <STM32_PIO_Read+0x5e>
 8000656:	f04f 0300 	mov.w	r3, #0
 800065a:	75fb      	strb	r3, [r7, #23]
 800065c:	e03a      	b.n	80006d4 <STM32_PIO_Read+0xd4>
 800065e:	f04f 0301 	mov.w	r3, #1
 8000662:	75fb      	strb	r3, [r7, #23]
 8000664:	e036      	b.n	80006d4 <STM32_PIO_Read+0xd4>
 8000666:	693b      	ldr	r3, [r7, #16]
 8000668:	68da      	ldr	r2, [r3, #12]
 800066a:	7bbb      	ldrb	r3, [r7, #14]
 800066c:	fa22 f303 	lsr.w	r3, r2, r3
 8000670:	2b00      	cmp	r3, #0
 8000672:	d103      	bne.n	800067c <STM32_PIO_Read+0x7c>
 8000674:	f04f 0300 	mov.w	r3, #0
 8000678:	75fb      	strb	r3, [r7, #23]
 800067a:	e02b      	b.n	80006d4 <STM32_PIO_Read+0xd4>
 800067c:	f04f 0301 	mov.w	r3, #1
 8000680:	75fb      	strb	r3, [r7, #23]
 8000682:	e027      	b.n	80006d4 <STM32_PIO_Read+0xd4>
 8000684:	693b      	ldr	r3, [r7, #16]
 8000686:	681a      	ldr	r2, [r3, #0]
 8000688:	7bbb      	ldrb	r3, [r7, #14]
 800068a:	ea4f 0383 	mov.w	r3, r3, lsl #2
 800068e:	fa22 f303 	lsr.w	r3, r2, r3
 8000692:	f003 0303 	and.w	r3, r3, #3
 8000696:	2b00      	cmp	r3, #0
 8000698:	d10e      	bne.n	80006b8 <STM32_PIO_Read+0xb8>
 800069a:	693b      	ldr	r3, [r7, #16]
 800069c:	689a      	ldr	r2, [r3, #8]
 800069e:	7bbb      	ldrb	r3, [r7, #14]
 80006a0:	fa22 f303 	lsr.w	r3, r2, r3
 80006a4:	2b00      	cmp	r3, #0
 80006a6:	d103      	bne.n	80006b0 <STM32_PIO_Read+0xb0>
 80006a8:	f04f 0300 	mov.w	r3, #0
 80006ac:	75fb      	strb	r3, [r7, #23]
 80006ae:	e011      	b.n	80006d4 <STM32_PIO_Read+0xd4>
 80006b0:	f04f 0301 	mov.w	r3, #1
 80006b4:	75fb      	strb	r3, [r7, #23]
 80006b6:	e00d      	b.n	80006d4 <STM32_PIO_Read+0xd4>
 80006b8:	693b      	ldr	r3, [r7, #16]
 80006ba:	68da      	ldr	r2, [r3, #12]
 80006bc:	7bbb      	ldrb	r3, [r7, #14]
 80006be:	fa22 f303 	lsr.w	r3, r2, r3
 80006c2:	2b00      	cmp	r3, #0
 80006c4:	d103      	bne.n	80006ce <STM32_PIO_Read+0xce>
 80006c6:	f04f 0300 	mov.w	r3, #0
 80006ca:	75fb      	strb	r3, [r7, #23]
 80006cc:	e002      	b.n	80006d4 <STM32_PIO_Read+0xd4>
 80006ce:	f04f 0301 	mov.w	r3, #1
 80006d2:	75fb      	strb	r3, [r7, #23]
 80006d4:	7dfb      	ldrb	r3, [r7, #23]
 80006d6:	4618      	mov	r0, r3
 80006d8:	f107 0718 	add.w	r7, r7, #24
 80006dc:	46bd      	mov	sp, r7
 80006de:	bd80      	pop	{r7, pc}

080006e0 <STM32_PIO_Out>:
 80006e0:	b580      	push	{r7, lr}
 80006e2:	b084      	sub	sp, #16
 80006e4:	af00      	add	r7, sp, #0
 80006e6:	4602      	mov	r2, r0
 80006e8:	460b      	mov	r3, r1
 80006ea:	80fa      	strh	r2, [r7, #6]
 80006ec:	717b      	strb	r3, [r7, #5]
 80006ee:	f04f 0300 	mov.w	r3, #0
 80006f2:	60fb      	str	r3, [r7, #12]
 80006f4:	88fb      	ldrh	r3, [r7, #6]
 80006f6:	ea4f 2313 	mov.w	r3, r3, lsr #8
 80006fa:	b29b      	uxth	r3, r3
 80006fc:	72fb      	strb	r3, [r7, #11]
 80006fe:	88fb      	ldrh	r3, [r7, #6]
 8000700:	72bb      	strb	r3, [r7, #10]
 8000702:	7afb      	ldrb	r3, [r7, #11]
 8000704:	4618      	mov	r0, r3
 8000706:	f7ff fe21 	bl	800034c <STM32_GetGPIO>
 800070a:	60f8      	str	r0, [r7, #12]
 800070c:	88fb      	ldrh	r3, [r7, #6]
 800070e:	4618      	mov	r0, r3
 8000710:	f7ff ff76 	bl	8000600 <STM32_PIO_Read>
 8000714:	4603      	mov	r3, r0
 8000716:	727b      	strb	r3, [r7, #9]
 8000718:	797b      	ldrb	r3, [r7, #5]
 800071a:	2b00      	cmp	r3, #0
 800071c:	d10a      	bne.n	8000734 <STM32_PIO_Out+0x54>
 800071e:	68fb      	ldr	r3, [r7, #12]
 8000720:	691a      	ldr	r2, [r3, #16]
 8000722:	7abb      	ldrb	r3, [r7, #10]
 8000724:	f04f 0101 	mov.w	r1, #1
 8000728:	fa01 f303 	lsl.w	r3, r1, r3
 800072c:	431a      	orrs	r2, r3
 800072e:	68fb      	ldr	r3, [r7, #12]
 8000730:	611a      	str	r2, [r3, #16]
 8000732:	e009      	b.n	8000748 <STM32_PIO_Out+0x68>
 8000734:	68fb      	ldr	r3, [r7, #12]
 8000736:	695a      	ldr	r2, [r3, #20]
 8000738:	7abb      	ldrb	r3, [r7, #10]
 800073a:	f04f 0101 	mov.w	r1, #1
 800073e:	fa01 f303 	lsl.w	r3, r1, r3
 8000742:	431a      	orrs	r2, r3
 8000744:	68fb      	ldr	r3, [r7, #12]
 8000746:	615a      	str	r2, [r3, #20]
 8000748:	7a7b      	ldrb	r3, [r7, #9]
 800074a:	4618      	mov	r0, r3
 800074c:	f107 0710 	add.w	r7, r7, #16
 8000750:	46bd      	mov	sp, r7
 8000752:	bd80      	pop	{r7, pc}

08000754 <STM32_PIO_Cfg>:
 8000754:	b480      	push	{r7}
 8000756:	b085      	sub	sp, #20
 8000758:	af00      	add	r7, sp, #0
 800075a:	60ba      	str	r2, [r7, #8]
 800075c:	607b      	str	r3, [r7, #4]
 800075e:	4603      	mov	r3, r0
 8000760:	81fb      	strh	r3, [r7, #14]
 8000762:	460b      	mov	r3, r1
 8000764:	737b      	strb	r3, [r7, #13]
 8000766:	f04f 0301 	mov.w	r3, #1
 800076a:	4618      	mov	r0, r3
 800076c:	f107 0714 	add.w	r7, r7, #20
 8000770:	46bd      	mov	sp, r7
 8000772:	bc80      	pop	{r7}
 8000774:	4770      	bx	lr
 8000776:	bf00      	nop

08000778 <InsertTmrList>:
 8000778:	b590      	push	{r4, r7, lr}
 800077a:	b087      	sub	sp, #28
 800077c:	af00      	add	r7, sp, #0
 800077e:	4603      	mov	r3, r0
 8000780:	71fb      	strb	r3, [r7, #7]
 8000782:	79fa      	ldrb	r2, [r7, #7]
 8000784:	498b      	ldr	r1, [pc, #556]	; (80009b4 <InsertTmrList+0x23c>)
 8000786:	4613      	mov	r3, r2
 8000788:	ea4f 0343 	mov.w	r3, r3, lsl #1
 800078c:	189b      	adds	r3, r3, r2
 800078e:	ea4f 03c3 	mov.w	r3, r3, lsl #3
 8000792:	18cb      	adds	r3, r1, r3
 8000794:	f103 0304 	add.w	r3, r3, #4
 8000798:	681b      	ldr	r3, [r3, #0]
 800079a:	60fb      	str	r3, [r7, #12]
 800079c:	68fb      	ldr	r3, [r7, #12]
 800079e:	2b00      	cmp	r3, #0
 80007a0:	f000 8103 	beq.w	80009aa <InsertTmrList+0x232>
 80007a4:	4b84      	ldr	r3, [pc, #528]	; (80009b8 <InsertTmrList+0x240>)
 80007a6:	781b      	ldrb	r3, [r3, #0]
 80007a8:	b2db      	uxtb	r3, r3
 80007aa:	f103 0301 	add.w	r3, r3, #1
 80007ae:	b2da      	uxtb	r2, r3
 80007b0:	4b81      	ldr	r3, [pc, #516]	; (80009b8 <InsertTmrList+0x240>)
 80007b2:	701a      	strb	r2, [r3, #0]
 80007b4:	4b81      	ldr	r3, [pc, #516]	; (80009bc <InsertTmrList+0x244>)
 80007b6:	681b      	ldr	r3, [r3, #0]
 80007b8:	2b00      	cmp	r3, #0
 80007ba:	d10c      	bne.n	80007d6 <InsertTmrList+0x5e>
 80007bc:	79fa      	ldrb	r2, [r7, #7]
 80007be:	4613      	mov	r3, r2
 80007c0:	ea4f 0343 	mov.w	r3, r3, lsl #1
 80007c4:	189b      	adds	r3, r3, r2
 80007c6:	ea4f 03c3 	mov.w	r3, r3, lsl #3
 80007ca:	461a      	mov	r2, r3
 80007cc:	4b79      	ldr	r3, [pc, #484]	; (80009b4 <InsertTmrList+0x23c>)
 80007ce:	18d2      	adds	r2, r2, r3
 80007d0:	4b7a      	ldr	r3, [pc, #488]	; (80009bc <InsertTmrList+0x244>)
 80007d2:	601a      	str	r2, [r3, #0]
 80007d4:	e0e6      	b.n	80009a4 <InsertTmrList+0x22c>
 80007d6:	4b79      	ldr	r3, [pc, #484]	; (80009bc <InsertTmrList+0x244>)
 80007d8:	681b      	ldr	r3, [r3, #0]
 80007da:	617b      	str	r3, [r7, #20]
 80007dc:	68fb      	ldr	r3, [r7, #12]
 80007de:	613b      	str	r3, [r7, #16]
 80007e0:	e0dc      	b.n	800099c <InsertTmrList+0x224>
 80007e2:	693a      	ldr	r2, [r7, #16]
 80007e4:	697b      	ldr	r3, [r7, #20]
 80007e6:	685b      	ldr	r3, [r3, #4]
 80007e8:	1ad3      	subs	r3, r2, r3
 80007ea:	613b      	str	r3, [r7, #16]
 80007ec:	693b      	ldr	r3, [r7, #16]
 80007ee:	2b00      	cmp	r3, #0
 80007f0:	f280 80a3 	bge.w	800093a <InsertTmrList+0x1c2>
 80007f4:	697b      	ldr	r3, [r7, #20]
 80007f6:	695b      	ldr	r3, [r3, #20]
 80007f8:	2b00      	cmp	r3, #0
 80007fa:	d034      	beq.n	8000866 <InsertTmrList+0xee>
 80007fc:	697b      	ldr	r3, [r7, #20]
 80007fe:	6959      	ldr	r1, [r3, #20]
 8000800:	79fa      	ldrb	r2, [r7, #7]
 8000802:	4613      	mov	r3, r2
 8000804:	ea4f 0343 	mov.w	r3, r3, lsl #1
 8000808:	189b      	adds	r3, r3, r2
 800080a:	ea4f 03c3 	mov.w	r3, r3, lsl #3
 800080e:	461a      	mov	r2, r3
 8000810:	4b68      	ldr	r3, [pc, #416]	; (80009b4 <InsertTmrList+0x23c>)
 8000812:	18d3      	adds	r3, r2, r3
 8000814:	610b      	str	r3, [r1, #16]
 8000816:	79fa      	ldrb	r2, [r7, #7]
 8000818:	697b      	ldr	r3, [r7, #20]
 800081a:	6959      	ldr	r1, [r3, #20]
 800081c:	4865      	ldr	r0, [pc, #404]	; (80009b4 <InsertTmrList+0x23c>)
 800081e:	4613      	mov	r3, r2
 8000820:	ea4f 0343 	mov.w	r3, r3, lsl #1
 8000824:	189b      	adds	r3, r3, r2
 8000826:	ea4f 03c3 	mov.w	r3, r3, lsl #3
 800082a:	18c3      	adds	r3, r0, r3
 800082c:	f103 0314 	add.w	r3, r3, #20
 8000830:	6019      	str	r1, [r3, #0]
 8000832:	79fa      	ldrb	r2, [r7, #7]
 8000834:	495f      	ldr	r1, [pc, #380]	; (80009b4 <InsertTmrList+0x23c>)
 8000836:	4613      	mov	r3, r2
 8000838:	ea4f 0343 	mov.w	r3, r3, lsl #1
 800083c:	189b      	adds	r3, r3, r2
 800083e:	ea4f 03c3 	mov.w	r3, r3, lsl #3
 8000842:	18cb      	adds	r3, r1, r3
 8000844:	f103 0310 	add.w	r3, r3, #16
 8000848:	697a      	ldr	r2, [r7, #20]
 800084a:	601a      	str	r2, [r3, #0]
 800084c:	79fa      	ldrb	r2, [r7, #7]
 800084e:	4613      	mov	r3, r2
 8000850:	ea4f 0343 	mov.w	r3, r3, lsl #1
 8000854:	189b      	adds	r3, r3, r2
 8000856:	ea4f 03c3 	mov.w	r3, r3, lsl #3
 800085a:	461a      	mov	r2, r3
 800085c:	4b55      	ldr	r3, [pc, #340]	; (80009b4 <InsertTmrList+0x23c>)
 800085e:	18d2      	adds	r2, r2, r3
 8000860:	697b      	ldr	r3, [r7, #20]
 8000862:	615a      	str	r2, [r3, #20]
 8000864:	e026      	b.n	80008b4 <InsertTmrList+0x13c>
 8000866:	79fa      	ldrb	r2, [r7, #7]
 8000868:	4b54      	ldr	r3, [pc, #336]	; (80009bc <InsertTmrList+0x244>)
 800086a:	6819      	ldr	r1, [r3, #0]
 800086c:	4851      	ldr	r0, [pc, #324]	; (80009b4 <InsertTmrList+0x23c>)
 800086e:	4613      	mov	r3, r2
 8000870:	ea4f 0343 	mov.w	r3, r3, lsl #1
 8000874:	189b      	adds	r3, r3, r2
 8000876:	ea4f 03c3 	mov.w	r3, r3, lsl #3
 800087a:	18c3      	adds	r3, r0, r3
 800087c:	f103 0310 	add.w	r3, r3, #16
 8000880:	6019      	str	r1, [r3, #0]
 8000882:	4b4e      	ldr	r3, [pc, #312]	; (80009bc <InsertTmrList+0x244>)
 8000884:	6819      	ldr	r1, [r3, #0]
 8000886:	79fa      	ldrb	r2, [r7, #7]
 8000888:	4613      	mov	r3, r2
 800088a:	ea4f 0343 	mov.w	r3, r3, lsl #1
 800088e:	189b      	adds	r3, r3, r2
 8000890:	ea4f 03c3 	mov.w	r3, r3, lsl #3
 8000894:	461a      	mov	r2, r3
 8000896:	4b47      	ldr	r3, [pc, #284]	; (80009b4 <InsertTmrList+0x23c>)
 8000898:	18d3      	adds	r3, r2, r3
 800089a:	614b      	str	r3, [r1, #20]
 800089c:	79fa      	ldrb	r2, [r7, #7]
 800089e:	4613      	mov	r3, r2
 80008a0:	ea4f 0343 	mov.w	r3, r3, lsl #1
 80008a4:	189b      	adds	r3, r3, r2
 80008a6:	ea4f 03c3 	mov.w	r3, r3, lsl #3
 80008aa:	461a      	mov	r2, r3
 80008ac:	4b41      	ldr	r3, [pc, #260]	; (80009b4 <InsertTmrList+0x23c>)
 80008ae:	18d2      	adds	r2, r2, r3
 80008b0:	4b42      	ldr	r3, [pc, #264]	; (80009bc <InsertTmrList+0x244>)
 80008b2:	601a      	str	r2, [r3, #0]
 80008b4:	79fa      	ldrb	r2, [r7, #7]
 80008b6:	79f9      	ldrb	r1, [r7, #7]
 80008b8:	483e      	ldr	r0, [pc, #248]	; (80009b4 <InsertTmrList+0x23c>)
 80008ba:	460b      	mov	r3, r1
 80008bc:	ea4f 0343 	mov.w	r3, r3, lsl #1
 80008c0:	185b      	adds	r3, r3, r1
 80008c2:	ea4f 03c3 	mov.w	r3, r3, lsl #3
 80008c6:	18c3      	adds	r3, r0, r3
 80008c8:	f103 0310 	add.w	r3, r3, #16
 80008cc:	681b      	ldr	r3, [r3, #0]
 80008ce:	6859      	ldr	r1, [r3, #4]
 80008d0:	693b      	ldr	r3, [r7, #16]
 80008d2:	18c9      	adds	r1, r1, r3
 80008d4:	4837      	ldr	r0, [pc, #220]	; (80009b4 <InsertTmrList+0x23c>)
 80008d6:	4613      	mov	r3, r2
 80008d8:	ea4f 0343 	mov.w	r3, r3, lsl #1
 80008dc:	189b      	adds	r3, r3, r2
 80008de:	ea4f 03c3 	mov.w	r3, r3, lsl #3
 80008e2:	18c3      	adds	r3, r0, r3
 80008e4:	f103 0304 	add.w	r3, r3, #4
 80008e8:	6019      	str	r1, [r3, #0]
 80008ea:	79fa      	ldrb	r2, [r7, #7]
 80008ec:	4931      	ldr	r1, [pc, #196]	; (80009b4 <InsertTmrList+0x23c>)
 80008ee:	4613      	mov	r3, r2
 80008f0:	ea4f 0343 	mov.w	r3, r3, lsl #1
 80008f4:	189b      	adds	r3, r3, r2
 80008f6:	ea4f 03c3 	mov.w	r3, r3, lsl #3
 80008fa:	18cb      	adds	r3, r1, r3
 80008fc:	f103 0310 	add.w	r3, r3, #16
 8000900:	6819      	ldr	r1, [r3, #0]
 8000902:	79fa      	ldrb	r2, [r7, #7]
 8000904:	482b      	ldr	r0, [pc, #172]	; (80009b4 <InsertTmrList+0x23c>)
 8000906:	4613      	mov	r3, r2
 8000908:	ea4f 0343 	mov.w	r3, r3, lsl #1
 800090c:	189b      	adds	r3, r3, r2
 800090e:	ea4f 03c3 	mov.w	r3, r3, lsl #3
 8000912:	18c3      	adds	r3, r0, r3
 8000914:	f103 0310 	add.w	r3, r3, #16
 8000918:	681b      	ldr	r3, [r3, #0]
 800091a:	6858      	ldr	r0, [r3, #4]
 800091c:	79fa      	ldrb	r2, [r7, #7]
 800091e:	4c25      	ldr	r4, [pc, #148]	; (80009b4 <InsertTmrList+0x23c>)
 8000920:	4613      	mov	r3, r2
 8000922:	ea4f 0343 	mov.w	r3, r3, lsl #1
 8000926:	189b      	adds	r3, r3, r2
 8000928:	ea4f 03c3 	mov.w	r3, r3, lsl #3
 800092c:	18e3      	adds	r3, r4, r3
 800092e:	f103 0304 	add.w	r3, r3, #4
 8000932:	681b      	ldr	r3, [r3, #0]
 8000934:	1ac3      	subs	r3, r0, r3
 8000936:	604b      	str	r3, [r1, #4]
 8000938:	e034      	b.n	80009a4 <InsertTmrList+0x22c>
 800093a:	693b      	ldr	r3, [r7, #16]
 800093c:	2b00      	cmp	r3, #0
 800093e:	db2a      	blt.n	8000996 <InsertTmrList+0x21e>
 8000940:	697b      	ldr	r3, [r7, #20]
 8000942:	691b      	ldr	r3, [r3, #16]
 8000944:	2b00      	cmp	r3, #0
 8000946:	d126      	bne.n	8000996 <InsertTmrList+0x21e>
 8000948:	79fa      	ldrb	r2, [r7, #7]
 800094a:	491a      	ldr	r1, [pc, #104]	; (80009b4 <InsertTmrList+0x23c>)
 800094c:	4613      	mov	r3, r2
 800094e:	ea4f 0343 	mov.w	r3, r3, lsl #1
 8000952:	189b      	adds	r3, r3, r2
 8000954:	ea4f 03c3 	mov.w	r3, r3, lsl #3
 8000958:	18cb      	adds	r3, r1, r3
 800095a:	f103 0314 	add.w	r3, r3, #20
 800095e:	697a      	ldr	r2, [r7, #20]
 8000960:	601a      	str	r2, [r3, #0]
 8000962:	79fa      	ldrb	r2, [r7, #7]
 8000964:	4613      	mov	r3, r2
 8000966:	ea4f 0343 	mov.w	r3, r3, lsl #1
 800096a:	189b      	adds	r3, r3, r2
 800096c:	ea4f 03c3 	mov.w	r3, r3, lsl #3
 8000970:	461a      	mov	r2, r3
 8000972:	4b10      	ldr	r3, [pc, #64]	; (80009b4 <InsertTmrList+0x23c>)
 8000974:	18d2      	adds	r2, r2, r3
 8000976:	697b      	ldr	r3, [r7, #20]
 8000978:	611a      	str	r2, [r3, #16]
 800097a:	79fa      	ldrb	r2, [r7, #7]
 800097c:	6939      	ldr	r1, [r7, #16]
 800097e:	480d      	ldr	r0, [pc, #52]	; (80009b4 <InsertTmrList+0x23c>)
 8000980:	4613      	mov	r3, r2
 8000982:	ea4f 0343 	mov.w	r3, r3, lsl #1
 8000986:	189b      	adds	r3, r3, r2
 8000988:	ea4f 03c3 	mov.w	r3, r3, lsl #3
 800098c:	18c3      	adds	r3, r0, r3
 800098e:	f103 0304 	add.w	r3, r3, #4
 8000992:	6019      	str	r1, [r3, #0]
 8000994:	e006      	b.n	80009a4 <InsertTmrList+0x22c>
 8000996:	697b      	ldr	r3, [r7, #20]
 8000998:	691b      	ldr	r3, [r3, #16]
 800099a:	617b      	str	r3, [r7, #20]
 800099c:	697b      	ldr	r3, [r7, #20]
 800099e:	2b00      	cmp	r3, #0
 80009a0:	f47f af1f 	bne.w	80007e2 <InsertTmrList+0x6a>
 80009a4:	f7ff fc14 	bl	80001d0 <OsSchedUnlock>
 80009a8:	e000      	b.n	80009ac <InsertTmrList+0x234>
 80009aa:	bf00      	nop
 80009ac:	f107 071c 	add.w	r7, r7, #28
 80009b0:	46bd      	mov	sp, r7
 80009b2:	bd90      	pop	{r4, r7, pc}
 80009b4:	200001e8 	.word	0x200001e8
 80009b8:	200001e5 	.word	0x200001e5
 80009bc:	20000218 	.word	0x20000218

080009c0 <RemoveTmrList>:
 80009c0:	b580      	push	{r7, lr}
 80009c2:	b084      	sub	sp, #16
 80009c4:	af00      	add	r7, sp, #0
 80009c6:	4603      	mov	r3, r0
 80009c8:	71fb      	strb	r3, [r7, #7]
 80009ca:	79fa      	ldrb	r2, [r7, #7]
 80009cc:	4613      	mov	r3, r2
 80009ce:	ea4f 0343 	mov.w	r3, r3, lsl #1
 80009d2:	189b      	adds	r3, r3, r2
 80009d4:	ea4f 03c3 	mov.w	r3, r3, lsl #3
 80009d8:	461a      	mov	r2, r3
 80009da:	4b31      	ldr	r3, [pc, #196]	; (8000aa0 <RemoveTmrList+0xe0>)
 80009dc:	18d3      	adds	r3, r2, r3
 80009de:	60fb      	str	r3, [r7, #12]
 80009e0:	4b30      	ldr	r3, [pc, #192]	; (8000aa4 <RemoveTmrList+0xe4>)
 80009e2:	781b      	ldrb	r3, [r3, #0]
 80009e4:	b2db      	uxtb	r3, r3
 80009e6:	f103 0301 	add.w	r3, r3, #1
 80009ea:	b2da      	uxtb	r2, r3
 80009ec:	4b2d      	ldr	r3, [pc, #180]	; (8000aa4 <RemoveTmrList+0xe4>)
 80009ee:	701a      	strb	r2, [r3, #0]
 80009f0:	68fb      	ldr	r3, [r7, #12]
 80009f2:	695b      	ldr	r3, [r3, #20]
 80009f4:	2b00      	cmp	r3, #0
 80009f6:	d108      	bne.n	8000a0a <RemoveTmrList+0x4a>
 80009f8:	68fb      	ldr	r3, [r7, #12]
 80009fa:	691b      	ldr	r3, [r3, #16]
 80009fc:	2b00      	cmp	r3, #0
 80009fe:	d104      	bne.n	8000a0a <RemoveTmrList+0x4a>
 8000a00:	4b29      	ldr	r3, [pc, #164]	; (8000aa8 <RemoveTmrList+0xe8>)
 8000a02:	f04f 0200 	mov.w	r2, #0
 8000a06:	601a      	str	r2, [r3, #0]
 8000a08:	e043      	b.n	8000a92 <RemoveTmrList+0xd2>
 8000a0a:	68fb      	ldr	r3, [r7, #12]
 8000a0c:	695b      	ldr	r3, [r3, #20]
 8000a0e:	2b00      	cmp	r3, #0
 8000a10:	d116      	bne.n	8000a40 <RemoveTmrList+0x80>
 8000a12:	68fb      	ldr	r3, [r7, #12]
 8000a14:	691a      	ldr	r2, [r3, #16]
 8000a16:	4b24      	ldr	r3, [pc, #144]	; (8000aa8 <RemoveTmrList+0xe8>)
 8000a18:	601a      	str	r2, [r3, #0]
 8000a1a:	4b23      	ldr	r3, [pc, #140]	; (8000aa8 <RemoveTmrList+0xe8>)
 8000a1c:	681b      	ldr	r3, [r3, #0]
 8000a1e:	f04f 0200 	mov.w	r2, #0
 8000a22:	615a      	str	r2, [r3, #20]
 8000a24:	68fb      	ldr	r3, [r7, #12]
 8000a26:	691b      	ldr	r3, [r3, #16]
 8000a28:	68fa      	ldr	r2, [r7, #12]
 8000a2a:	6912      	ldr	r2, [r2, #16]
 8000a2c:	6851      	ldr	r1, [r2, #4]
 8000a2e:	68fa      	ldr	r2, [r7, #12]
 8000a30:	6852      	ldr	r2, [r2, #4]
 8000a32:	188a      	adds	r2, r1, r2
 8000a34:	605a      	str	r2, [r3, #4]
 8000a36:	68fb      	ldr	r3, [r7, #12]
 8000a38:	f04f 0200 	mov.w	r2, #0
 8000a3c:	611a      	str	r2, [r3, #16]
 8000a3e:	e028      	b.n	8000a92 <RemoveTmrList+0xd2>
 8000a40:	68fb      	ldr	r3, [r7, #12]
 8000a42:	691b      	ldr	r3, [r3, #16]
 8000a44:	2b00      	cmp	r3, #0
 8000a46:	d109      	bne.n	8000a5c <RemoveTmrList+0x9c>
 8000a48:	68fb      	ldr	r3, [r7, #12]
 8000a4a:	695b      	ldr	r3, [r3, #20]
 8000a4c:	f04f 0200 	mov.w	r2, #0
 8000a50:	611a      	str	r2, [r3, #16]
 8000a52:	68fb      	ldr	r3, [r7, #12]
 8000a54:	f04f 0200 	mov.w	r2, #0
 8000a58:	615a      	str	r2, [r3, #20]
 8000a5a:	e01a      	b.n	8000a92 <RemoveTmrList+0xd2>
 8000a5c:	68fb      	ldr	r3, [r7, #12]
 8000a5e:	695b      	ldr	r3, [r3, #20]
 8000a60:	68fa      	ldr	r2, [r7, #12]
 8000a62:	6912      	ldr	r2, [r2, #16]
 8000a64:	611a      	str	r2, [r3, #16]
 8000a66:	68fb      	ldr	r3, [r7, #12]
 8000a68:	691b      	ldr	r3, [r3, #16]
 8000a6a:	68fa      	ldr	r2, [r7, #12]
 8000a6c:	6952      	ldr	r2, [r2, #20]
 8000a6e:	615a      	str	r2, [r3, #20]
 8000a70:	68fb      	ldr	r3, [r7, #12]
 8000a72:	691b      	ldr	r3, [r3, #16]
 8000a74:	68fa      	ldr	r2, [r7, #12]
 8000a76:	6912      	ldr	r2, [r2, #16]
 8000a78:	6851      	ldr	r1, [r2, #4]
 8000a7a:	68fa      	ldr	r2, [r7, #12]
 8000a7c:	6852      	ldr	r2, [r2, #4]
 8000a7e:	188a      	adds	r2, r1, r2
 8000a80:	605a      	str	r2, [r3, #4]
 8000a82:	68fb      	ldr	r3, [r7, #12]
 8000a84:	f04f 0200 	mov.w	r2, #0
 8000a88:	611a      	str	r2, [r3, #16]
 8000a8a:	68fb      	ldr	r3, [r7, #12]
 8000a8c:	f04f 0200 	mov.w	r2, #0
 8000a90:	615a      	str	r2, [r3, #20]
 8000a92:	f7ff fb9d 	bl	80001d0 <OsSchedUnlock>
 8000a96:	f107 0710 	add.w	r7, r7, #16
 8000a9a:	46bd      	mov	sp, r7
 8000a9c:	bd80      	pop	{r7, pc}
 8000a9e:	bf00      	nop
 8000aa0:	200001e8 	.word	0x200001e8
 8000aa4:	200001e5 	.word	0x200001e5
 8000aa8:	20000218 	.word	0x20000218

08000aac <TmrDispose>:
 8000aac:	b580      	push	{r7, lr}
 8000aae:	b082      	sub	sp, #8
 8000ab0:	af00      	add	r7, sp, #0
 8000ab2:	4b1c      	ldr	r3, [pc, #112]	; (8000b24 <TmrDispose+0x78>)
 8000ab4:	681b      	ldr	r3, [r3, #0]
 8000ab6:	607b      	str	r3, [r7, #4]
 8000ab8:	e028      	b.n	8000b0c <TmrDispose+0x60>
 8000aba:	687b      	ldr	r3, [r7, #4]
 8000abc:	785b      	ldrb	r3, [r3, #1]
 8000abe:	2b00      	cmp	r3, #0
 8000ac0:	d10c      	bne.n	8000adc <TmrDispose+0x30>
 8000ac2:	687b      	ldr	r3, [r7, #4]
 8000ac4:	781b      	ldrb	r3, [r3, #0]
 8000ac6:	4618      	mov	r0, r3
 8000ac8:	f7ff ff7a 	bl	80009c0 <RemoveTmrList>
 8000acc:	687b      	ldr	r3, [r7, #4]
 8000ace:	f04f 0201 	mov.w	r2, #1
 8000ad2:	709a      	strb	r2, [r3, #2]
 8000ad4:	687b      	ldr	r3, [r7, #4]
 8000ad6:	68db      	ldr	r3, [r3, #12]
 8000ad8:	4798      	blx	r3
 8000ada:	e014      	b.n	8000b06 <TmrDispose+0x5a>
 8000adc:	687b      	ldr	r3, [r7, #4]
 8000ade:	785b      	ldrb	r3, [r3, #1]
 8000ae0:	2b01      	cmp	r3, #1
 8000ae2:	d110      	bne.n	8000b06 <TmrDispose+0x5a>
 8000ae4:	687b      	ldr	r3, [r7, #4]
 8000ae6:	781b      	ldrb	r3, [r3, #0]
 8000ae8:	4618      	mov	r0, r3
 8000aea:	f7ff ff69 	bl	80009c0 <RemoveTmrList>
 8000aee:	687b      	ldr	r3, [r7, #4]
 8000af0:	689a      	ldr	r2, [r3, #8]
 8000af2:	687b      	ldr	r3, [r7, #4]
 8000af4:	605a      	str	r2, [r3, #4]
 8000af6:	687b      	ldr	r3, [r7, #4]
 8000af8:	781b      	ldrb	r3, [r3, #0]
 8000afa:	4618      	mov	r0, r3
 8000afc:	f7ff fe3c 	bl	8000778 <InsertTmrList>
 8000b00:	687b      	ldr	r3, [r7, #4]
 8000b02:	68db      	ldr	r3, [r3, #12]
 8000b04:	4798      	blx	r3
 8000b06:	4b07      	ldr	r3, [pc, #28]	; (8000b24 <TmrDispose+0x78>)
 8000b08:	681b      	ldr	r3, [r3, #0]
 8000b0a:	607b      	str	r3, [r7, #4]
 8000b0c:	687b      	ldr	r3, [r7, #4]
 8000b0e:	2b00      	cmp	r3, #0
 8000b10:	d003      	beq.n	8000b1a <TmrDispose+0x6e>
 8000b12:	687b      	ldr	r3, [r7, #4]
 8000b14:	685b      	ldr	r3, [r3, #4]
 8000b16:	2b00      	cmp	r3, #0
 8000b18:	d0cf      	beq.n	8000aba <TmrDispose+0xe>
 8000b1a:	f107 0708 	add.w	r7, r7, #8
 8000b1e:	46bd      	mov	sp, r7
 8000b20:	bd80      	pop	{r7, pc}
 8000b22:	bf00      	nop
 8000b24:	20000218 	.word	0x20000218

08000b28 <isr_TmrDispose>:
 8000b28:	b580      	push	{r7, lr}
 8000b2a:	af00      	add	r7, sp, #0
 8000b2c:	4b08      	ldr	r3, [pc, #32]	; (8000b50 <isr_TmrDispose+0x28>)
 8000b2e:	781b      	ldrb	r3, [r3, #0]
 8000b30:	b2db      	uxtb	r3, r3
 8000b32:	2b01      	cmp	r3, #1
 8000b34:	d908      	bls.n	8000b48 <isr_TmrDispose+0x20>
 8000b36:	4b07      	ldr	r3, [pc, #28]	; (8000b54 <isr_TmrDispose+0x2c>)
 8000b38:	f04f 0201 	mov.w	r2, #1
 8000b3c:	701a      	strb	r2, [r3, #0]
 8000b3e:	4b06      	ldr	r3, [pc, #24]	; (8000b58 <isr_TmrDispose+0x30>)
 8000b40:	f04f 0201 	mov.w	r2, #1
 8000b44:	701a      	strb	r2, [r3, #0]
 8000b46:	e001      	b.n	8000b4c <isr_TmrDispose+0x24>
 8000b48:	f7ff ffb0 	bl	8000aac <TmrDispose>
 8000b4c:	bd80      	pop	{r7, pc}
 8000b4e:	bf00      	nop
 8000b50:	200001e5 	.word	0x200001e5
 8000b54:	200003d4 	.word	0x200003d4
 8000b58:	200003d6 	.word	0x200003d6

08000b5c <SystemInit>:
 8000b5c:	b580      	push	{r7, lr}
 8000b5e:	af00      	add	r7, sp, #0
 8000b60:	4b17      	ldr	r3, [pc, #92]	; (8000bc0 <SystemInit+0x64>)
 8000b62:	4a17      	ldr	r2, [pc, #92]	; (8000bc0 <SystemInit+0x64>)
 8000b64:	6812      	ldr	r2, [r2, #0]
 8000b66:	f042 0201 	orr.w	r2, r2, #1
 8000b6a:	601a      	str	r2, [r3, #0]
 8000b6c:	4a14      	ldr	r2, [pc, #80]	; (8000bc0 <SystemInit+0x64>)
 8000b6e:	4b14      	ldr	r3, [pc, #80]	; (8000bc0 <SystemInit+0x64>)
 8000b70:	6859      	ldr	r1, [r3, #4]
 8000b72:	4b14      	ldr	r3, [pc, #80]	; (8000bc4 <SystemInit+0x68>)
 8000b74:	ea01 0303 	and.w	r3, r1, r3
 8000b78:	6053      	str	r3, [r2, #4]
 8000b7a:	4a11      	ldr	r2, [pc, #68]	; (8000bc0 <SystemInit+0x64>)
 8000b7c:	4b10      	ldr	r3, [pc, #64]	; (8000bc0 <SystemInit+0x64>)
 8000b7e:	681b      	ldr	r3, [r3, #0]
 8000b80:	f023 7384 	bic.w	r3, r3, #17301504	; 0x1080000
 8000b84:	f423 3380 	bic.w	r3, r3, #65536	; 0x10000
 8000b88:	6013      	str	r3, [r2, #0]
 8000b8a:	4b0d      	ldr	r3, [pc, #52]	; (8000bc0 <SystemInit+0x64>)
 8000b8c:	4a0c      	ldr	r2, [pc, #48]	; (8000bc0 <SystemInit+0x64>)
 8000b8e:	6812      	ldr	r2, [r2, #0]
 8000b90:	f422 2280 	bic.w	r2, r2, #262144	; 0x40000
 8000b94:	601a      	str	r2, [r3, #0]
 8000b96:	4b0a      	ldr	r3, [pc, #40]	; (8000bc0 <SystemInit+0x64>)
 8000b98:	4a09      	ldr	r2, [pc, #36]	; (8000bc0 <SystemInit+0x64>)
 8000b9a:	6852      	ldr	r2, [r2, #4]
 8000b9c:	f422 02fe 	bic.w	r2, r2, #8323072	; 0x7f0000
 8000ba0:	605a      	str	r2, [r3, #4]
 8000ba2:	4b07      	ldr	r3, [pc, #28]	; (8000bc0 <SystemInit+0x64>)
 8000ba4:	f44f 021f 	mov.w	r2, #10420224	; 0x9f0000
 8000ba8:	609a      	str	r2, [r3, #8]
 8000baa:	4b05      	ldr	r3, [pc, #20]	; (8000bc0 <SystemInit+0x64>)
 8000bac:	f04f 0200 	mov.w	r2, #0
 8000bb0:	62da      	str	r2, [r3, #44]	; 0x2c
 8000bb2:	f000 f80b 	bl	8000bcc <SetSysClock>
 8000bb6:	4b04      	ldr	r3, [pc, #16]	; (8000bc8 <SystemInit+0x6c>)
 8000bb8:	f04f 6200 	mov.w	r2, #134217728	; 0x8000000
 8000bbc:	609a      	str	r2, [r3, #8]
 8000bbe:	bd80      	pop	{r7, pc}
 8000bc0:	40021000 	.word	0x40021000
 8000bc4:	f8ff0000 	.word	0xf8ff0000
 8000bc8:	e000ed00 	.word	0xe000ed00

08000bcc <SetSysClock>:
 8000bcc:	b580      	push	{r7, lr}
 8000bce:	af00      	add	r7, sp, #0
 8000bd0:	f000 f802 	bl	8000bd8 <SetSysClockTo24>
 8000bd4:	bd80      	pop	{r7, pc}
 8000bd6:	bf00      	nop

08000bd8 <SetSysClockTo24>:
 8000bd8:	b480      	push	{r7}
 8000bda:	b083      	sub	sp, #12
 8000bdc:	af00      	add	r7, sp, #0
 8000bde:	f04f 0300 	mov.w	r3, #0
 8000be2:	607b      	str	r3, [r7, #4]
 8000be4:	f04f 0300 	mov.w	r3, #0
 8000be8:	603b      	str	r3, [r7, #0]
 8000bea:	4b31      	ldr	r3, [pc, #196]	; (8000cb0 <SetSysClockTo24+0xd8>)
 8000bec:	4a30      	ldr	r2, [pc, #192]	; (8000cb0 <SetSysClockTo24+0xd8>)
 8000bee:	6812      	ldr	r2, [r2, #0]
 8000bf0:	f442 3280 	orr.w	r2, r2, #65536	; 0x10000
 8000bf4:	601a      	str	r2, [r3, #0]
 8000bf6:	4b2e      	ldr	r3, [pc, #184]	; (8000cb0 <SetSysClockTo24+0xd8>)
 8000bf8:	681b      	ldr	r3, [r3, #0]
 8000bfa:	f403 3300 	and.w	r3, r3, #131072	; 0x20000
 8000bfe:	603b      	str	r3, [r7, #0]
 8000c00:	687b      	ldr	r3, [r7, #4]
 8000c02:	f103 0301 	add.w	r3, r3, #1
 8000c06:	607b      	str	r3, [r7, #4]
 8000c08:	683b      	ldr	r3, [r7, #0]
 8000c0a:	2b00      	cmp	r3, #0
 8000c0c:	d103      	bne.n	8000c16 <SetSysClockTo24+0x3e>
 8000c0e:	687b      	ldr	r3, [r7, #4]
 8000c10:	f5b3 6fa0 	cmp.w	r3, #1280	; 0x500
 8000c14:	d1ef      	bne.n	8000bf6 <SetSysClockTo24+0x1e>
 8000c16:	4b26      	ldr	r3, [pc, #152]	; (8000cb0 <SetSysClockTo24+0xd8>)
 8000c18:	681b      	ldr	r3, [r3, #0]
 8000c1a:	f403 3300 	and.w	r3, r3, #131072	; 0x20000
 8000c1e:	2b00      	cmp	r3, #0
 8000c20:	d003      	beq.n	8000c2a <SetSysClockTo24+0x52>
 8000c22:	f04f 0301 	mov.w	r3, #1
 8000c26:	603b      	str	r3, [r7, #0]
 8000c28:	e002      	b.n	8000c30 <SetSysClockTo24+0x58>
 8000c2a:	f04f 0300 	mov.w	r3, #0
 8000c2e:	603b      	str	r3, [r7, #0]
 8000c30:	683b      	ldr	r3, [r7, #0]
 8000c32:	2b01      	cmp	r3, #1
 8000c34:	d137      	bne.n	8000ca6 <SetSysClockTo24+0xce>
 8000c36:	4b1e      	ldr	r3, [pc, #120]	; (8000cb0 <SetSysClockTo24+0xd8>)
 8000c38:	4a1d      	ldr	r2, [pc, #116]	; (8000cb0 <SetSysClockTo24+0xd8>)
 8000c3a:	6852      	ldr	r2, [r2, #4]
 8000c3c:	605a      	str	r2, [r3, #4]
 8000c3e:	4b1c      	ldr	r3, [pc, #112]	; (8000cb0 <SetSysClockTo24+0xd8>)
 8000c40:	4a1b      	ldr	r2, [pc, #108]	; (8000cb0 <SetSysClockTo24+0xd8>)
 8000c42:	6852      	ldr	r2, [r2, #4]
 8000c44:	605a      	str	r2, [r3, #4]
 8000c46:	4b1a      	ldr	r3, [pc, #104]	; (8000cb0 <SetSysClockTo24+0xd8>)
 8000c48:	4a19      	ldr	r2, [pc, #100]	; (8000cb0 <SetSysClockTo24+0xd8>)
 8000c4a:	6852      	ldr	r2, [r2, #4]
 8000c4c:	605a      	str	r2, [r3, #4]
 8000c4e:	4b18      	ldr	r3, [pc, #96]	; (8000cb0 <SetSysClockTo24+0xd8>)
 8000c50:	4a17      	ldr	r2, [pc, #92]	; (8000cb0 <SetSysClockTo24+0xd8>)
 8000c52:	6852      	ldr	r2, [r2, #4]
 8000c54:	f422 127c 	bic.w	r2, r2, #4128768	; 0x3f0000
 8000c58:	605a      	str	r2, [r3, #4]
 8000c5a:	4b15      	ldr	r3, [pc, #84]	; (8000cb0 <SetSysClockTo24+0xd8>)
 8000c5c:	4a14      	ldr	r2, [pc, #80]	; (8000cb0 <SetSysClockTo24+0xd8>)
 8000c5e:	6852      	ldr	r2, [r2, #4]
 8000c60:	f442 1298 	orr.w	r2, r2, #1245184	; 0x130000
 8000c64:	605a      	str	r2, [r3, #4]
 8000c66:	4b12      	ldr	r3, [pc, #72]	; (8000cb0 <SetSysClockTo24+0xd8>)
 8000c68:	4a11      	ldr	r2, [pc, #68]	; (8000cb0 <SetSysClockTo24+0xd8>)
 8000c6a:	6812      	ldr	r2, [r2, #0]
 8000c6c:	f042 7280 	orr.w	r2, r2, #16777216	; 0x1000000
 8000c70:	601a      	str	r2, [r3, #0]
 8000c72:	bf00      	nop
 8000c74:	4b0e      	ldr	r3, [pc, #56]	; (8000cb0 <SetSysClockTo24+0xd8>)
 8000c76:	681b      	ldr	r3, [r3, #0]
 8000c78:	f003 7300 	and.w	r3, r3, #33554432	; 0x2000000
 8000c7c:	2b00      	cmp	r3, #0
 8000c7e:	d0f9      	beq.n	8000c74 <SetSysClockTo24+0x9c>
 8000c80:	4b0b      	ldr	r3, [pc, #44]	; (8000cb0 <SetSysClockTo24+0xd8>)
 8000c82:	4a0b      	ldr	r2, [pc, #44]	; (8000cb0 <SetSysClockTo24+0xd8>)
 8000c84:	6852      	ldr	r2, [r2, #4]
 8000c86:	f022 0203 	bic.w	r2, r2, #3
 8000c8a:	605a      	str	r2, [r3, #4]
 8000c8c:	4b08      	ldr	r3, [pc, #32]	; (8000cb0 <SetSysClockTo24+0xd8>)
 8000c8e:	4a08      	ldr	r2, [pc, #32]	; (8000cb0 <SetSysClockTo24+0xd8>)
 8000c90:	6852      	ldr	r2, [r2, #4]
 8000c92:	f042 0202 	orr.w	r2, r2, #2
 8000c96:	605a      	str	r2, [r3, #4]
 8000c98:	bf00      	nop
 8000c9a:	4b05      	ldr	r3, [pc, #20]	; (8000cb0 <SetSysClockTo24+0xd8>)
 8000c9c:	685b      	ldr	r3, [r3, #4]
 8000c9e:	f003 030c 	and.w	r3, r3, #12
 8000ca2:	2b08      	cmp	r3, #8
 8000ca4:	d1f9      	bne.n	8000c9a <SetSysClockTo24+0xc2>
 8000ca6:	f107 070c 	add.w	r7, r7, #12
 8000caa:	46bd      	mov	sp, r7
 8000cac:	bc80      	pop	{r7}
 8000cae:	4770      	bx	lr
 8000cb0:	40021000 	.word	0x40021000

08000cb4 <NVIC_Configuration>:
 8000cb4:	b580      	push	{r7, lr}
 8000cb6:	b082      	sub	sp, #8
 8000cb8:	af00      	add	r7, sp, #0
 8000cba:	f44f 60e0 	mov.w	r0, #1792	; 0x700
 8000cbe:	f003 f941 	bl	8003f44 <NVIC_PriorityGroupConfig>
 8000cc2:	f04f 0325 	mov.w	r3, #37	; 0x25
 8000cc6:	713b      	strb	r3, [r7, #4]
 8000cc8:	f04f 0301 	mov.w	r3, #1
 8000ccc:	717b      	strb	r3, [r7, #5]
 8000cce:	f04f 0300 	mov.w	r3, #0
 8000cd2:	71bb      	strb	r3, [r7, #6]
 8000cd4:	f04f 0301 	mov.w	r3, #1
 8000cd8:	71fb      	strb	r3, [r7, #7]
 8000cda:	f107 0304 	add.w	r3, r7, #4
 8000cde:	4618      	mov	r0, r3
 8000ce0:	f003 f942 	bl	8003f68 <NVIC_Init>
 8000ce4:	f107 0708 	add.w	r7, r7, #8
 8000ce8:	46bd      	mov	sp, r7
 8000cea:	bd80      	pop	{r7, pc}

08000cec <STM_GPIO_Init>:
 8000cec:	b480      	push	{r7}
 8000cee:	b089      	sub	sp, #36	; 0x24
 8000cf0:	af00      	add	r7, sp, #0
 8000cf2:	6078      	str	r0, [r7, #4]
 8000cf4:	6039      	str	r1, [r7, #0]
 8000cf6:	f04f 0300 	mov.w	r3, #0
 8000cfa:	61fb      	str	r3, [r7, #28]
 8000cfc:	f04f 0300 	mov.w	r3, #0
 8000d00:	613b      	str	r3, [r7, #16]
 8000d02:	f04f 0300 	mov.w	r3, #0
 8000d06:	61bb      	str	r3, [r7, #24]
 8000d08:	f04f 0300 	mov.w	r3, #0
 8000d0c:	60fb      	str	r3, [r7, #12]
 8000d0e:	f04f 0300 	mov.w	r3, #0
 8000d12:	617b      	str	r3, [r7, #20]
 8000d14:	f04f 0300 	mov.w	r3, #0
 8000d18:	60bb      	str	r3, [r7, #8]
 8000d1a:	683b      	ldr	r3, [r7, #0]
 8000d1c:	78db      	ldrb	r3, [r3, #3]
 8000d1e:	f003 030f 	and.w	r3, r3, #15
 8000d22:	61fb      	str	r3, [r7, #28]
 8000d24:	683b      	ldr	r3, [r7, #0]
 8000d26:	78db      	ldrb	r3, [r3, #3]
 8000d28:	f003 0310 	and.w	r3, r3, #16
 8000d2c:	2b00      	cmp	r3, #0
 8000d2e:	d005      	beq.n	8000d3c <STM_GPIO_Init+0x50>
 8000d30:	683b      	ldr	r3, [r7, #0]
 8000d32:	789b      	ldrb	r3, [r3, #2]
 8000d34:	69fa      	ldr	r2, [r7, #28]
 8000d36:	ea42 0303 	orr.w	r3, r2, r3
 8000d3a:	61fb      	str	r3, [r7, #28]
 8000d3c:	683b      	ldr	r3, [r7, #0]
 8000d3e:	881b      	ldrh	r3, [r3, #0]
 8000d40:	f003 03ff 	and.w	r3, r3, #255	; 0xff
 8000d44:	2b00      	cmp	r3, #0
 8000d46:	d053      	beq.n	8000df0 <STM_GPIO_Init+0x104>
 8000d48:	687b      	ldr	r3, [r7, #4]
 8000d4a:	681b      	ldr	r3, [r3, #0]
 8000d4c:	617b      	str	r3, [r7, #20]
 8000d4e:	f04f 0300 	mov.w	r3, #0
 8000d52:	61bb      	str	r3, [r7, #24]
 8000d54:	e043      	b.n	8000dde <STM_GPIO_Init+0xf2>
 8000d56:	69bb      	ldr	r3, [r7, #24]
 8000d58:	f04f 0201 	mov.w	r2, #1
 8000d5c:	fa02 f303 	lsl.w	r3, r2, r3
 8000d60:	60fb      	str	r3, [r7, #12]
 8000d62:	683b      	ldr	r3, [r7, #0]
 8000d64:	881b      	ldrh	r3, [r3, #0]
 8000d66:	461a      	mov	r2, r3
 8000d68:	68fb      	ldr	r3, [r7, #12]
 8000d6a:	ea02 0303 	and.w	r3, r2, r3
 8000d6e:	613b      	str	r3, [r7, #16]
 8000d70:	693a      	ldr	r2, [r7, #16]
 8000d72:	68fb      	ldr	r3, [r7, #12]
 8000d74:	429a      	cmp	r2, r3
 8000d76:	d12e      	bne.n	8000dd6 <STM_GPIO_Init+0xea>
 8000d78:	69bb      	ldr	r3, [r7, #24]
 8000d7a:	ea4f 0383 	mov.w	r3, r3, lsl #2
 8000d7e:	60fb      	str	r3, [r7, #12]
 8000d80:	68fb      	ldr	r3, [r7, #12]
 8000d82:	f04f 020f 	mov.w	r2, #15
 8000d86:	fa02 f303 	lsl.w	r3, r2, r3
 8000d8a:	60bb      	str	r3, [r7, #8]
 8000d8c:	68bb      	ldr	r3, [r7, #8]
 8000d8e:	ea6f 0303 	mvn.w	r3, r3
 8000d92:	697a      	ldr	r2, [r7, #20]
 8000d94:	ea02 0303 	and.w	r3, r2, r3
 8000d98:	617b      	str	r3, [r7, #20]
 8000d9a:	68fb      	ldr	r3, [r7, #12]
 8000d9c:	69fa      	ldr	r2, [r7, #28]
 8000d9e:	fa02 f303 	lsl.w	r3, r2, r3
 8000da2:	697a      	ldr	r2, [r7, #20]
 8000da4:	ea42 0303 	orr.w	r3, r2, r3
 8000da8:	617b      	str	r3, [r7, #20]
 8000daa:	683b      	ldr	r3, [r7, #0]
 8000dac:	78db      	ldrb	r3, [r3, #3]
 8000dae:	2b28      	cmp	r3, #40	; 0x28
 8000db0:	d106      	bne.n	8000dc0 <STM_GPIO_Init+0xd4>
 8000db2:	69bb      	ldr	r3, [r7, #24]
 8000db4:	f04f 0201 	mov.w	r2, #1
 8000db8:	fa02 f203 	lsl.w	r2, r2, r3
 8000dbc:	687b      	ldr	r3, [r7, #4]
 8000dbe:	615a      	str	r2, [r3, #20]
 8000dc0:	683b      	ldr	r3, [r7, #0]
 8000dc2:	78db      	ldrb	r3, [r3, #3]
 8000dc4:	2b48      	cmp	r3, #72	; 0x48
 8000dc6:	d106      	bne.n	8000dd6 <STM_GPIO_Init+0xea>
 8000dc8:	69bb      	ldr	r3, [r7, #24]
 8000dca:	f04f 0201 	mov.w	r2, #1
 8000dce:	fa02 f203 	lsl.w	r2, r2, r3
 8000dd2:	687b      	ldr	r3, [r7, #4]
 8000dd4:	611a      	str	r2, [r3, #16]
 8000dd6:	69bb      	ldr	r3, [r7, #24]
 8000dd8:	f103 0301 	add.w	r3, r3, #1
 8000ddc:	61bb      	str	r3, [r7, #24]
 8000dde:	69bb      	ldr	r3, [r7, #24]
 8000de0:	2b07      	cmp	r3, #7
 8000de2:	d9b8      	bls.n	8000d56 <STM_GPIO_Init+0x6a>
 8000de4:	687b      	ldr	r3, [r7, #4]
 8000de6:	697a      	ldr	r2, [r7, #20]
 8000de8:	601a      	str	r2, [r3, #0]
 8000dea:	f04f 0300 	mov.w	r3, #0
 8000dee:	617b      	str	r3, [r7, #20]
 8000df0:	683b      	ldr	r3, [r7, #0]
 8000df2:	881b      	ldrh	r3, [r3, #0]
 8000df4:	2bff      	cmp	r3, #255	; 0xff
 8000df6:	d956      	bls.n	8000ea6 <STM_GPIO_Init+0x1ba>
 8000df8:	687b      	ldr	r3, [r7, #4]
 8000dfa:	685b      	ldr	r3, [r3, #4]
 8000dfc:	617b      	str	r3, [r7, #20]
 8000dfe:	f04f 0300 	mov.w	r3, #0
 8000e02:	61bb      	str	r3, [r7, #24]
 8000e04:	e049      	b.n	8000e9a <STM_GPIO_Init+0x1ae>
 8000e06:	69bb      	ldr	r3, [r7, #24]
 8000e08:	f103 0308 	add.w	r3, r3, #8
 8000e0c:	f04f 0201 	mov.w	r2, #1
 8000e10:	fa02 f303 	lsl.w	r3, r2, r3
 8000e14:	60fb      	str	r3, [r7, #12]
 8000e16:	683b      	ldr	r3, [r7, #0]
 8000e18:	881b      	ldrh	r3, [r3, #0]
 8000e1a:	461a      	mov	r2, r3
 8000e1c:	68fb      	ldr	r3, [r7, #12]
 8000e1e:	ea02 0303 	and.w	r3, r2, r3
 8000e22:	613b      	str	r3, [r7, #16]
 8000e24:	693a      	ldr	r2, [r7, #16]
 8000e26:	68fb      	ldr	r3, [r7, #12]
 8000e28:	429a      	cmp	r2, r3
 8000e2a:	d132      	bne.n	8000e92 <STM_GPIO_Init+0x1a6>
 8000e2c:	69bb      	ldr	r3, [r7, #24]
 8000e2e:	ea4f 0383 	mov.w	r3, r3, lsl #2
 8000e32:	60fb      	str	r3, [r7, #12]
 8000e34:	68fb      	ldr	r3, [r7, #12]
 8000e36:	f04f 020f 	mov.w	r2, #15
 8000e3a:	fa02 f303 	lsl.w	r3, r2, r3
 8000e3e:	60bb      	str	r3, [r7, #8]
 8000e40:	68bb      	ldr	r3, [r7, #8]
 8000e42:	ea6f 0303 	mvn.w	r3, r3
 8000e46:	697a      	ldr	r2, [r7, #20]
 8000e48:	ea02 0303 	and.w	r3, r2, r3
 8000e4c:	617b      	str	r3, [r7, #20]
 8000e4e:	68fb      	ldr	r3, [r7, #12]
 8000e50:	69fa      	ldr	r2, [r7, #28]
 8000e52:	fa02 f303 	lsl.w	r3, r2, r3
 8000e56:	697a      	ldr	r2, [r7, #20]
 8000e58:	ea42 0303 	orr.w	r3, r2, r3
 8000e5c:	617b      	str	r3, [r7, #20]
 8000e5e:	683b      	ldr	r3, [r7, #0]
 8000e60:	78db      	ldrb	r3, [r3, #3]
 8000e62:	2b28      	cmp	r3, #40	; 0x28
 8000e64:	d108      	bne.n	8000e78 <STM_GPIO_Init+0x18c>
 8000e66:	69bb      	ldr	r3, [r7, #24]
 8000e68:	f103 0308 	add.w	r3, r3, #8
 8000e6c:	f04f 0201 	mov.w	r2, #1
 8000e70:	fa02 f203 	lsl.w	r2, r2, r3
 8000e74:	687b      	ldr	r3, [r7, #4]
 8000e76:	615a      	str	r2, [r3, #20]
 8000e78:	683b      	ldr	r3, [r7, #0]
 8000e7a:	78db      	ldrb	r3, [r3, #3]
 8000e7c:	2b48      	cmp	r3, #72	; 0x48
 8000e7e:	d108      	bne.n	8000e92 <STM_GPIO_Init+0x1a6>
 8000e80:	69bb      	ldr	r3, [r7, #24]
 8000e82:	f103 0308 	add.w	r3, r3, #8
 8000e86:	f04f 0201 	mov.w	r2, #1
 8000e8a:	fa02 f203 	lsl.w	r2, r2, r3
 8000e8e:	687b      	ldr	r3, [r7, #4]
 8000e90:	611a      	str	r2, [r3, #16]
 8000e92:	69bb      	ldr	r3, [r7, #24]
 8000e94:	f103 0301 	add.w	r3, r3, #1
 8000e98:	61bb      	str	r3, [r7, #24]
 8000e9a:	69bb      	ldr	r3, [r7, #24]
 8000e9c:	2b07      	cmp	r3, #7
 8000e9e:	d9b2      	bls.n	8000e06 <STM_GPIO_Init+0x11a>
 8000ea0:	687b      	ldr	r3, [r7, #4]
 8000ea2:	697a      	ldr	r2, [r7, #20]
 8000ea4:	605a      	str	r2, [r3, #4]
 8000ea6:	f107 0724 	add.w	r7, r7, #36	; 0x24
 8000eaa:	46bd      	mov	sp, r7
 8000eac:	bc80      	pop	{r7}
 8000eae:	4770      	bx	lr

08000eb0 <STM_RCC_GetClockFreq>:
 8000eb0:	b480      	push	{r7}
 8000eb2:	b087      	sub	sp, #28
 8000eb4:	af00      	add	r7, sp, #0
 8000eb6:	6078      	str	r0, [r7, #4]
 8000eb8:	f04f 0300 	mov.w	r3, #0
 8000ebc:	617b      	str	r3, [r7, #20]
 8000ebe:	f04f 0300 	mov.w	r3, #0
 8000ec2:	613b      	str	r3, [r7, #16]
 8000ec4:	f04f 0300 	mov.w	r3, #0
 8000ec8:	60fb      	str	r3, [r7, #12]
 8000eca:	f04f 0300 	mov.w	r3, #0
 8000ece:	60bb      	str	r3, [r7, #8]
 8000ed0:	4b4f      	ldr	r3, [pc, #316]	; (8001010 <STM_RCC_GetClockFreq+0x160>)
 8000ed2:	685b      	ldr	r3, [r3, #4]
 8000ed4:	f003 030c 	and.w	r3, r3, #12
 8000ed8:	617b      	str	r3, [r7, #20]
 8000eda:	697b      	ldr	r3, [r7, #20]
 8000edc:	2b04      	cmp	r3, #4
 8000ede:	d007      	beq.n	8000ef0 <STM_RCC_GetClockFreq+0x40>
 8000ee0:	2b08      	cmp	r3, #8
 8000ee2:	d009      	beq.n	8000ef8 <STM_RCC_GetClockFreq+0x48>
 8000ee4:	2b00      	cmp	r3, #0
 8000ee6:	d135      	bne.n	8000f54 <STM_RCC_GetClockFreq+0xa4>
 8000ee8:	687b      	ldr	r3, [r7, #4]
 8000eea:	4a4a      	ldr	r2, [pc, #296]	; (8001014 <STM_RCC_GetClockFreq+0x164>)
 8000eec:	601a      	str	r2, [r3, #0]
 8000eee:	e035      	b.n	8000f5c <STM_RCC_GetClockFreq+0xac>
 8000ef0:	687b      	ldr	r3, [r7, #4]
 8000ef2:	4a48      	ldr	r2, [pc, #288]	; (8001014 <STM_RCC_GetClockFreq+0x164>)
 8000ef4:	601a      	str	r2, [r3, #0]
 8000ef6:	e031      	b.n	8000f5c <STM_RCC_GetClockFreq+0xac>
 8000ef8:	4b45      	ldr	r3, [pc, #276]	; (8001010 <STM_RCC_GetClockFreq+0x160>)
 8000efa:	685b      	ldr	r3, [r3, #4]
 8000efc:	f403 1370 	and.w	r3, r3, #3932160	; 0x3c0000
 8000f00:	613b      	str	r3, [r7, #16]
 8000f02:	693b      	ldr	r3, [r7, #16]
 8000f04:	ea4f 4393 	mov.w	r3, r3, lsr #18
 8000f08:	f103 0302 	add.w	r3, r3, #2
 8000f0c:	613b      	str	r3, [r7, #16]
 8000f0e:	4b40      	ldr	r3, [pc, #256]	; (8001010 <STM_RCC_GetClockFreq+0x160>)
 8000f10:	685b      	ldr	r3, [r3, #4]
 8000f12:	f403 3380 	and.w	r3, r3, #65536	; 0x10000
 8000f16:	60fb      	str	r3, [r7, #12]
 8000f18:	68fb      	ldr	r3, [r7, #12]
 8000f1a:	2b00      	cmp	r3, #0
 8000f1c:	d106      	bne.n	8000f2c <STM_RCC_GetClockFreq+0x7c>
 8000f1e:	693b      	ldr	r3, [r7, #16]
 8000f20:	4a3d      	ldr	r2, [pc, #244]	; (8001018 <STM_RCC_GetClockFreq+0x168>)
 8000f22:	fb02 f203 	mul.w	r2, r2, r3
 8000f26:	687b      	ldr	r3, [r7, #4]
 8000f28:	601a      	str	r2, [r3, #0]
 8000f2a:	e017      	b.n	8000f5c <STM_RCC_GetClockFreq+0xac>
 8000f2c:	4b38      	ldr	r3, [pc, #224]	; (8001010 <STM_RCC_GetClockFreq+0x160>)
 8000f2e:	685b      	ldr	r3, [r3, #4]
 8000f30:	f403 3300 	and.w	r3, r3, #131072	; 0x20000
 8000f34:	2b00      	cmp	r3, #0
 8000f36:	d006      	beq.n	8000f46 <STM_RCC_GetClockFreq+0x96>
 8000f38:	693b      	ldr	r3, [r7, #16]
 8000f3a:	4a37      	ldr	r2, [pc, #220]	; (8001018 <STM_RCC_GetClockFreq+0x168>)
 8000f3c:	fb02 f203 	mul.w	r2, r2, r3
 8000f40:	687b      	ldr	r3, [r7, #4]
 8000f42:	601a      	str	r2, [r3, #0]
 8000f44:	e00a      	b.n	8000f5c <STM_RCC_GetClockFreq+0xac>
 8000f46:	693b      	ldr	r3, [r7, #16]
 8000f48:	4a32      	ldr	r2, [pc, #200]	; (8001014 <STM_RCC_GetClockFreq+0x164>)
 8000f4a:	fb02 f203 	mul.w	r2, r2, r3
 8000f4e:	687b      	ldr	r3, [r7, #4]
 8000f50:	601a      	str	r2, [r3, #0]
 8000f52:	e003      	b.n	8000f5c <STM_RCC_GetClockFreq+0xac>
 8000f54:	687b      	ldr	r3, [r7, #4]
 8000f56:	4a2f      	ldr	r2, [pc, #188]	; (8001014 <STM_RCC_GetClockFreq+0x164>)
 8000f58:	601a      	str	r2, [r3, #0]
 8000f5a:	bf00      	nop
 8000f5c:	4b2c      	ldr	r3, [pc, #176]	; (8001010 <STM_RCC_GetClockFreq+0x160>)
 8000f5e:	685b      	ldr	r3, [r3, #4]
 8000f60:	f003 03f0 	and.w	r3, r3, #240	; 0xf0
 8000f64:	617b      	str	r3, [r7, #20]
 8000f66:	697b      	ldr	r3, [r7, #20]
 8000f68:	ea4f 1313 	mov.w	r3, r3, lsr #4
 8000f6c:	617b      	str	r3, [r7, #20]
 8000f6e:	4a2b      	ldr	r2, [pc, #172]	; (800101c <STM_RCC_GetClockFreq+0x16c>)
 8000f70:	697b      	ldr	r3, [r7, #20]
 8000f72:	18d3      	adds	r3, r2, r3
 8000f74:	781b      	ldrb	r3, [r3, #0]
 8000f76:	60bb      	str	r3, [r7, #8]
 8000f78:	687b      	ldr	r3, [r7, #4]
 8000f7a:	681a      	ldr	r2, [r3, #0]
 8000f7c:	68bb      	ldr	r3, [r7, #8]
 8000f7e:	fa22 f203 	lsr.w	r2, r2, r3
 8000f82:	687b      	ldr	r3, [r7, #4]
 8000f84:	605a      	str	r2, [r3, #4]
 8000f86:	4b22      	ldr	r3, [pc, #136]	; (8001010 <STM_RCC_GetClockFreq+0x160>)
 8000f88:	685b      	ldr	r3, [r3, #4]
 8000f8a:	f403 63e0 	and.w	r3, r3, #1792	; 0x700
 8000f8e:	617b      	str	r3, [r7, #20]
 8000f90:	697b      	ldr	r3, [r7, #20]
 8000f92:	ea4f 2313 	mov.w	r3, r3, lsr #8
 8000f96:	617b      	str	r3, [r7, #20]
 8000f98:	4a20      	ldr	r2, [pc, #128]	; (800101c <STM_RCC_GetClockFreq+0x16c>)
 8000f9a:	697b      	ldr	r3, [r7, #20]
 8000f9c:	18d3      	adds	r3, r2, r3
 8000f9e:	781b      	ldrb	r3, [r3, #0]
 8000fa0:	60bb      	str	r3, [r7, #8]
 8000fa2:	687b      	ldr	r3, [r7, #4]
 8000fa4:	685a      	ldr	r2, [r3, #4]
 8000fa6:	68bb      	ldr	r3, [r7, #8]
 8000fa8:	fa22 f203 	lsr.w	r2, r2, r3
 8000fac:	687b      	ldr	r3, [r7, #4]
 8000fae:	609a      	str	r2, [r3, #8]
 8000fb0:	4b17      	ldr	r3, [pc, #92]	; (8001010 <STM_RCC_GetClockFreq+0x160>)
 8000fb2:	685b      	ldr	r3, [r3, #4]
 8000fb4:	f403 5360 	and.w	r3, r3, #14336	; 0x3800
 8000fb8:	617b      	str	r3, [r7, #20]
 8000fba:	697b      	ldr	r3, [r7, #20]
 8000fbc:	ea4f 23d3 	mov.w	r3, r3, lsr #11
 8000fc0:	617b      	str	r3, [r7, #20]
 8000fc2:	4a16      	ldr	r2, [pc, #88]	; (800101c <STM_RCC_GetClockFreq+0x16c>)
 8000fc4:	697b      	ldr	r3, [r7, #20]
 8000fc6:	18d3      	adds	r3, r2, r3
 8000fc8:	781b      	ldrb	r3, [r3, #0]
 8000fca:	60bb      	str	r3, [r7, #8]
 8000fcc:	687b      	ldr	r3, [r7, #4]
 8000fce:	685a      	ldr	r2, [r3, #4]
 8000fd0:	68bb      	ldr	r3, [r7, #8]
 8000fd2:	fa22 f203 	lsr.w	r2, r2, r3
 8000fd6:	687b      	ldr	r3, [r7, #4]
 8000fd8:	60da      	str	r2, [r3, #12]
 8000fda:	4b0d      	ldr	r3, [pc, #52]	; (8001010 <STM_RCC_GetClockFreq+0x160>)
 8000fdc:	685b      	ldr	r3, [r3, #4]
 8000fde:	f403 4340 	and.w	r3, r3, #49152	; 0xc000
 8000fe2:	617b      	str	r3, [r7, #20]
 8000fe4:	697b      	ldr	r3, [r7, #20]
 8000fe6:	ea4f 3393 	mov.w	r3, r3, lsr #14
 8000fea:	617b      	str	r3, [r7, #20]
 8000fec:	4a0c      	ldr	r2, [pc, #48]	; (8001020 <STM_RCC_GetClockFreq+0x170>)
 8000fee:	697b      	ldr	r3, [r7, #20]
 8000ff0:	18d3      	adds	r3, r2, r3
 8000ff2:	781b      	ldrb	r3, [r3, #0]
 8000ff4:	60bb      	str	r3, [r7, #8]
 8000ff6:	687b      	ldr	r3, [r7, #4]
 8000ff8:	68da      	ldr	r2, [r3, #12]
 8000ffa:	68bb      	ldr	r3, [r7, #8]
 8000ffc:	fbb2 f2f3 	udiv	r2, r2, r3
 8001000:	687b      	ldr	r3, [r7, #4]
 8001002:	611a      	str	r2, [r3, #16]
 8001004:	f107 071c 	add.w	r7, r7, #28
 8001008:	46bd      	mov	sp, r7
 800100a:	bc80      	pop	{r7}
 800100c:	4770      	bx	lr
 800100e:	bf00      	nop
 8001010:	40021000 	.word	0x40021000
 8001014:	007a1200 	.word	0x007a1200
 8001018:	003d0900 	.word	0x003d0900
 800101c:	080044d4 	.word	0x080044d4
 8001020:	080044e4 	.word	0x080044e4

08001024 <STM_UART_Init>:
 8001024:	b580      	push	{r7, lr}
 8001026:	b090      	sub	sp, #64	; 0x40
 8001028:	af00      	add	r7, sp, #0
 800102a:	6078      	str	r0, [r7, #4]
 800102c:	6039      	str	r1, [r7, #0]
 800102e:	f04f 0300 	mov.w	r3, #0
 8001032:	63bb      	str	r3, [r7, #56]	; 0x38
 8001034:	f04f 0300 	mov.w	r3, #0
 8001038:	63fb      	str	r3, [r7, #60]	; 0x3c
 800103a:	f04f 0300 	mov.w	r3, #0
 800103e:	637b      	str	r3, [r7, #52]	; 0x34
 8001040:	f04f 0300 	mov.w	r3, #0
 8001044:	633b      	str	r3, [r7, #48]	; 0x30
 8001046:	687a      	ldr	r2, [r7, #4]
 8001048:	4b8f      	ldr	r3, [pc, #572]	; (8001288 <STM_UART_Init+0x264>)
 800104a:	429a      	cmp	r2, r3
 800104c:	d106      	bne.n	800105c <STM_UART_Init+0x38>
 800104e:	f244 0004 	movw	r0, #16388	; 0x4004
 8001052:	f04f 0101 	mov.w	r1, #1
 8001056:	f001 fd55 	bl	8002b04 <RCC_APB2PeriphClockCmd>
 800105a:	e020      	b.n	800109e <STM_UART_Init+0x7a>
 800105c:	687a      	ldr	r2, [r7, #4]
 800105e:	4b8b      	ldr	r3, [pc, #556]	; (800128c <STM_UART_Init+0x268>)
 8001060:	429a      	cmp	r2, r3
 8001062:	d10c      	bne.n	800107e <STM_UART_Init+0x5a>
 8001064:	f04f 0004 	mov.w	r0, #4
 8001068:	f04f 0101 	mov.w	r1, #1
 800106c:	f001 fd4a 	bl	8002b04 <RCC_APB2PeriphClockCmd>
 8001070:	f44f 3000 	mov.w	r0, #131072	; 0x20000
 8001074:	f04f 0101 	mov.w	r1, #1
 8001078:	f001 fd66 	bl	8002b48 <RCC_APB1PeriphClockCmd>
 800107c:	e00f      	b.n	800109e <STM_UART_Init+0x7a>
 800107e:	687a      	ldr	r2, [r7, #4]
 8001080:	4b83      	ldr	r3, [pc, #524]	; (8001290 <STM_UART_Init+0x26c>)
 8001082:	429a      	cmp	r2, r3
 8001084:	d10b      	bne.n	800109e <STM_UART_Init+0x7a>
 8001086:	f04f 0008 	mov.w	r0, #8
 800108a:	f04f 0101 	mov.w	r1, #1
 800108e:	f001 fd39 	bl	8002b04 <RCC_APB2PeriphClockCmd>
 8001092:	f44f 2080 	mov.w	r0, #262144	; 0x40000
 8001096:	f04f 0101 	mov.w	r1, #1
 800109a:	f001 fd55 	bl	8002b48 <RCC_APB1PeriphClockCmd>
 800109e:	687a      	ldr	r2, [r7, #4]
 80010a0:	4b79      	ldr	r3, [pc, #484]	; (8001288 <STM_UART_Init+0x264>)
 80010a2:	429a      	cmp	r2, r3
 80010a4:	d123      	bne.n	80010ee <STM_UART_Init+0xca>
 80010a6:	4a7b      	ldr	r2, [pc, #492]	; (8001294 <STM_UART_Init+0x270>)
 80010a8:	4b7a      	ldr	r3, [pc, #488]	; (8001294 <STM_UART_Init+0x270>)
 80010aa:	699b      	ldr	r3, [r3, #24]
 80010ac:	f443 4380 	orr.w	r3, r3, #16384	; 0x4000
 80010b0:	f043 0304 	orr.w	r3, r3, #4
 80010b4:	6193      	str	r3, [r2, #24]
 80010b6:	f44f 7300 	mov.w	r3, #512	; 0x200
 80010ba:	813b      	strh	r3, [r7, #8]
 80010bc:	f04f 0318 	mov.w	r3, #24
 80010c0:	72fb      	strb	r3, [r7, #11]
 80010c2:	f04f 0303 	mov.w	r3, #3
 80010c6:	72bb      	strb	r3, [r7, #10]
 80010c8:	f107 0308 	add.w	r3, r7, #8
 80010cc:	4872      	ldr	r0, [pc, #456]	; (8001298 <STM_UART_Init+0x274>)
 80010ce:	4619      	mov	r1, r3
 80010d0:	f7ff fe0c 	bl	8000cec <STM_GPIO_Init>
 80010d4:	f44f 6380 	mov.w	r3, #1024	; 0x400
 80010d8:	813b      	strh	r3, [r7, #8]
 80010da:	f04f 0304 	mov.w	r3, #4
 80010de:	72fb      	strb	r3, [r7, #11]
 80010e0:	f107 0308 	add.w	r3, r7, #8
 80010e4:	486c      	ldr	r0, [pc, #432]	; (8001298 <STM_UART_Init+0x274>)
 80010e6:	4619      	mov	r1, r3
 80010e8:	f7ff fe00 	bl	8000cec <STM_GPIO_Init>
 80010ec:	e04e      	b.n	800118c <STM_UART_Init+0x168>
 80010ee:	687a      	ldr	r2, [r7, #4]
 80010f0:	4b66      	ldr	r3, [pc, #408]	; (800128c <STM_UART_Init+0x268>)
 80010f2:	429a      	cmp	r2, r3
 80010f4:	d123      	bne.n	800113e <STM_UART_Init+0x11a>
 80010f6:	4a67      	ldr	r2, [pc, #412]	; (8001294 <STM_UART_Init+0x270>)
 80010f8:	4b66      	ldr	r3, [pc, #408]	; (8001294 <STM_UART_Init+0x270>)
 80010fa:	69db      	ldr	r3, [r3, #28]
 80010fc:	f443 3300 	orr.w	r3, r3, #131072	; 0x20000
 8001100:	f043 0304 	orr.w	r3, r3, #4
 8001104:	61d3      	str	r3, [r2, #28]
 8001106:	f04f 0304 	mov.w	r3, #4
 800110a:	813b      	strh	r3, [r7, #8]
 800110c:	f04f 0318 	mov.w	r3, #24
 8001110:	72fb      	strb	r3, [r7, #11]
 8001112:	f04f 0303 	mov.w	r3, #3
 8001116:	72bb      	strb	r3, [r7, #10]
 8001118:	f107 0308 	add.w	r3, r7, #8
 800111c:	485e      	ldr	r0, [pc, #376]	; (8001298 <STM_UART_Init+0x274>)
 800111e:	4619      	mov	r1, r3
 8001120:	f7ff fde4 	bl	8000cec <STM_GPIO_Init>
 8001124:	f04f 0308 	mov.w	r3, #8
 8001128:	813b      	strh	r3, [r7, #8]
 800112a:	f04f 0304 	mov.w	r3, #4
 800112e:	72fb      	strb	r3, [r7, #11]
 8001130:	f107 0308 	add.w	r3, r7, #8
 8001134:	4858      	ldr	r0, [pc, #352]	; (8001298 <STM_UART_Init+0x274>)
 8001136:	4619      	mov	r1, r3
 8001138:	f7ff fdd8 	bl	8000cec <STM_GPIO_Init>
 800113c:	e026      	b.n	800118c <STM_UART_Init+0x168>
 800113e:	687a      	ldr	r2, [r7, #4]
 8001140:	4b53      	ldr	r3, [pc, #332]	; (8001290 <STM_UART_Init+0x26c>)
 8001142:	429a      	cmp	r2, r3
 8001144:	d122      	bne.n	800118c <STM_UART_Init+0x168>
 8001146:	4a53      	ldr	r2, [pc, #332]	; (8001294 <STM_UART_Init+0x270>)
 8001148:	4b52      	ldr	r3, [pc, #328]	; (8001294 <STM_UART_Init+0x270>)
 800114a:	69db      	ldr	r3, [r3, #28]
 800114c:	f443 2380 	orr.w	r3, r3, #262144	; 0x40000
 8001150:	f043 0308 	orr.w	r3, r3, #8
 8001154:	61d3      	str	r3, [r2, #28]
 8001156:	f44f 6380 	mov.w	r3, #1024	; 0x400
 800115a:	813b      	strh	r3, [r7, #8]
 800115c:	f04f 0318 	mov.w	r3, #24
 8001160:	72fb      	strb	r3, [r7, #11]
 8001162:	f04f 0303 	mov.w	r3, #3
 8001166:	72bb      	strb	r3, [r7, #10]
 8001168:	f107 0308 	add.w	r3, r7, #8
 800116c:	484b      	ldr	r0, [pc, #300]	; (800129c <STM_UART_Init+0x278>)
 800116e:	4619      	mov	r1, r3
 8001170:	f7ff fdbc 	bl	8000cec <STM_GPIO_Init>
 8001174:	f44f 6300 	mov.w	r3, #2048	; 0x800
 8001178:	813b      	strh	r3, [r7, #8]
 800117a:	f04f 0304 	mov.w	r3, #4
 800117e:	72fb      	strb	r3, [r7, #11]
 8001180:	f107 0308 	add.w	r3, r7, #8
 8001184:	4845      	ldr	r0, [pc, #276]	; (800129c <STM_UART_Init+0x278>)
 8001186:	4619      	mov	r1, r3
 8001188:	f7ff fdb0 	bl	8000cec <STM_GPIO_Init>
 800118c:	683b      	ldr	r3, [r7, #0]
 800118e:	60fb      	str	r3, [r7, #12]
 8001190:	f04f 0300 	mov.w	r3, #0
 8001194:	82bb      	strh	r3, [r7, #20]
 8001196:	f04f 030c 	mov.w	r3, #12
 800119a:	75bb      	strb	r3, [r7, #22]
 800119c:	f04f 0300 	mov.w	r3, #0
 80011a0:	75fb      	strb	r3, [r7, #23]
 80011a2:	f04f 0300 	mov.w	r3, #0
 80011a6:	763b      	strb	r3, [r7, #24]
 80011a8:	f04f 0301 	mov.w	r3, #1
 80011ac:	767b      	strb	r3, [r7, #25]
 80011ae:	f04f 0300 	mov.w	r3, #0
 80011b2:	76bb      	strb	r3, [r7, #26]
 80011b4:	7e3b      	ldrb	r3, [r7, #24]
 80011b6:	2b00      	cmp	r3, #0
 80011b8:	d007      	beq.n	80011ca <STM_UART_Init+0x1a6>
 80011ba:	687b      	ldr	r3, [r7, #4]
 80011bc:	687a      	ldr	r2, [r7, #4]
 80011be:	8a12      	ldrh	r2, [r2, #16]
 80011c0:	b292      	uxth	r2, r2
 80011c2:	f442 6280 	orr.w	r2, r2, #1024	; 0x400
 80011c6:	b292      	uxth	r2, r2
 80011c8:	821a      	strh	r2, [r3, #16]
 80011ca:	7dfb      	ldrb	r3, [r7, #23]
 80011cc:	2b00      	cmp	r3, #0
 80011ce:	d007      	beq.n	80011e0 <STM_UART_Init+0x1bc>
 80011d0:	687b      	ldr	r3, [r7, #4]
 80011d2:	687a      	ldr	r2, [r7, #4]
 80011d4:	8a12      	ldrh	r2, [r2, #16]
 80011d6:	b292      	uxth	r2, r2
 80011d8:	f442 6200 	orr.w	r2, r2, #2048	; 0x800
 80011dc:	b292      	uxth	r2, r2
 80011de:	821a      	strh	r2, [r3, #16]
 80011e0:	7ebb      	ldrb	r3, [r7, #26]
 80011e2:	2b00      	cmp	r3, #0
 80011e4:	d007      	beq.n	80011f6 <STM_UART_Init+0x1d2>
 80011e6:	687b      	ldr	r3, [r7, #4]
 80011e8:	687a      	ldr	r2, [r7, #4]
 80011ea:	8a12      	ldrh	r2, [r2, #16]
 80011ec:	b292      	uxth	r2, r2
 80011ee:	f442 7280 	orr.w	r2, r2, #256	; 0x100
 80011f2:	b292      	uxth	r2, r2
 80011f4:	821a      	strh	r2, [r3, #16]
 80011f6:	7e7b      	ldrb	r3, [r7, #25]
 80011f8:	2b00      	cmp	r3, #0
 80011fa:	d007      	beq.n	800120c <STM_UART_Init+0x1e8>
 80011fc:	687b      	ldr	r3, [r7, #4]
 80011fe:	687a      	ldr	r2, [r7, #4]
 8001200:	8a12      	ldrh	r2, [r2, #16]
 8001202:	b292      	uxth	r2, r2
 8001204:	f442 7200 	orr.w	r2, r2, #512	; 0x200
 8001208:	b292      	uxth	r2, r2
 800120a:	821a      	strh	r2, [r3, #16]
 800120c:	7dbb      	ldrb	r3, [r7, #22]
 800120e:	2b04      	cmp	r3, #4
 8001210:	d108      	bne.n	8001224 <STM_UART_Init+0x200>
 8001212:	687b      	ldr	r3, [r7, #4]
 8001214:	687a      	ldr	r2, [r7, #4]
 8001216:	8992      	ldrh	r2, [r2, #12]
 8001218:	b292      	uxth	r2, r2
 800121a:	f042 0204 	orr.w	r2, r2, #4
 800121e:	b292      	uxth	r2, r2
 8001220:	819a      	strh	r2, [r3, #12]
 8001222:	e00a      	b.n	800123a <STM_UART_Init+0x216>
 8001224:	7dbb      	ldrb	r3, [r7, #22]
 8001226:	2b08      	cmp	r3, #8
 8001228:	d107      	bne.n	800123a <STM_UART_Init+0x216>
 800122a:	687b      	ldr	r3, [r7, #4]
 800122c:	687a      	ldr	r2, [r7, #4]
 800122e:	8992      	ldrh	r2, [r2, #12]
 8001230:	b292      	uxth	r2, r2
 8001232:	f042 0208 	orr.w	r2, r2, #8
 8001236:	b292      	uxth	r2, r2
 8001238:	819a      	strh	r2, [r3, #12]
 800123a:	f04f 0300 	mov.w	r3, #0
 800123e:	63bb      	str	r3, [r7, #56]	; 0x38
 8001240:	687b      	ldr	r3, [r7, #4]
 8001242:	8a9b      	ldrh	r3, [r3, #20]
 8001244:	b29b      	uxth	r3, r3
 8001246:	63bb      	str	r3, [r7, #56]	; 0x38
 8001248:	6bba      	ldr	r2, [r7, #56]	; 0x38
 800124a:	f64f 43ff 	movw	r3, #64767	; 0xfcff
 800124e:	ea02 0303 	and.w	r3, r2, r3
 8001252:	63bb      	str	r3, [r7, #56]	; 0x38
 8001254:	8abb      	ldrh	r3, [r7, #20]
 8001256:	6bba      	ldr	r2, [r7, #56]	; 0x38
 8001258:	ea42 0303 	orr.w	r3, r2, r3
 800125c:	63bb      	str	r3, [r7, #56]	; 0x38
 800125e:	687b      	ldr	r3, [r7, #4]
 8001260:	6bba      	ldr	r2, [r7, #56]	; 0x38
 8001262:	b292      	uxth	r2, r2
 8001264:	829a      	strh	r2, [r3, #20]
 8001266:	f04f 0300 	mov.w	r3, #0
 800126a:	63bb      	str	r3, [r7, #56]	; 0x38
 800126c:	f107 031c 	add.w	r3, r7, #28
 8001270:	4618      	mov	r0, r3
 8001272:	f7ff fe1d 	bl	8000eb0 <STM_RCC_GetClockFreq>
 8001276:	f107 0304 	add.w	r3, r7, #4
 800127a:	681a      	ldr	r2, [r3, #0]
 800127c:	4b02      	ldr	r3, [pc, #8]	; (8001288 <STM_UART_Init+0x264>)
 800127e:	429a      	cmp	r2, r3
 8001280:	d10e      	bne.n	80012a0 <STM_UART_Init+0x27c>
 8001282:	6abb      	ldr	r3, [r7, #40]	; 0x28
 8001284:	63fb      	str	r3, [r7, #60]	; 0x3c
 8001286:	e00d      	b.n	80012a4 <STM_UART_Init+0x280>
 8001288:	40013800 	.word	0x40013800
 800128c:	40004400 	.word	0x40004400
 8001290:	40004800 	.word	0x40004800
 8001294:	40021000 	.word	0x40021000
 8001298:	40010800 	.word	0x40010800
 800129c:	40010c00 	.word	0x40010c00
 80012a0:	6a7b      	ldr	r3, [r7, #36]	; 0x24
 80012a2:	63fb      	str	r3, [r7, #60]	; 0x3c
 80012a4:	6bfa      	ldr	r2, [r7, #60]	; 0x3c
 80012a6:	4613      	mov	r3, r2
 80012a8:	ea4f 0383 	mov.w	r3, r3, lsl #2
 80012ac:	189b      	adds	r3, r3, r2
 80012ae:	ea4f 0283 	mov.w	r2, r3, lsl #2
 80012b2:	189a      	adds	r2, r3, r2
 80012b4:	68fb      	ldr	r3, [r7, #12]
 80012b6:	ea4f 0383 	mov.w	r3, r3, lsl #2
 80012ba:	fbb2 f3f3 	udiv	r3, r2, r3
 80012be:	637b      	str	r3, [r7, #52]	; 0x34
 80012c0:	6b7a      	ldr	r2, [r7, #52]	; 0x34
 80012c2:	4b1e      	ldr	r3, [pc, #120]	; (800133c <STM_UART_Init+0x318>)
 80012c4:	fba3 1302 	umull	r1, r3, r3, r2
 80012c8:	ea4f 1353 	mov.w	r3, r3, lsr #5
 80012cc:	ea4f 1303 	mov.w	r3, r3, lsl #4
 80012d0:	63bb      	str	r3, [r7, #56]	; 0x38
 80012d2:	6bbb      	ldr	r3, [r7, #56]	; 0x38
 80012d4:	ea4f 1313 	mov.w	r3, r3, lsr #4
 80012d8:	f04f 0264 	mov.w	r2, #100	; 0x64
 80012dc:	fb02 f303 	mul.w	r3, r2, r3
 80012e0:	6b7a      	ldr	r2, [r7, #52]	; 0x34
 80012e2:	1ad3      	subs	r3, r2, r3
 80012e4:	633b      	str	r3, [r7, #48]	; 0x30
 80012e6:	6b3b      	ldr	r3, [r7, #48]	; 0x30
 80012e8:	ea4f 1303 	mov.w	r3, r3, lsl #4
 80012ec:	f103 0232 	add.w	r2, r3, #50	; 0x32
 80012f0:	4b12      	ldr	r3, [pc, #72]	; (800133c <STM_UART_Init+0x318>)
 80012f2:	fba3 1302 	umull	r1, r3, r3, r2
 80012f6:	ea4f 1353 	mov.w	r3, r3, lsr #5
 80012fa:	f003 030f 	and.w	r3, r3, #15
 80012fe:	6bba      	ldr	r2, [r7, #56]	; 0x38
 8001300:	ea42 0303 	orr.w	r3, r2, r3
 8001304:	63bb      	str	r3, [r7, #56]	; 0x38
 8001306:	687b      	ldr	r3, [r7, #4]
 8001308:	6bba      	ldr	r2, [r7, #56]	; 0x38
 800130a:	b292      	uxth	r2, r2
 800130c:	811a      	strh	r2, [r3, #8]
 800130e:	687b      	ldr	r3, [r7, #4]
 8001310:	687a      	ldr	r2, [r7, #4]
 8001312:	8992      	ldrh	r2, [r2, #12]
 8001314:	b292      	uxth	r2, r2
 8001316:	f442 5200 	orr.w	r2, r2, #8192	; 0x2000
 800131a:	b292      	uxth	r2, r2
 800131c:	819a      	strh	r2, [r3, #12]
 800131e:	687b      	ldr	r3, [r7, #4]
 8001320:	687a      	ldr	r2, [r7, #4]
 8001322:	8992      	ldrh	r2, [r2, #12]
 8001324:	b292      	uxth	r2, r2
 8001326:	f042 020c 	orr.w	r2, r2, #12
 800132a:	b292      	uxth	r2, r2
 800132c:	819a      	strh	r2, [r3, #12]
 800132e:	f04f 0300 	mov.w	r3, #0
 8001332:	4618      	mov	r0, r3
 8001334:	f107 0740 	add.w	r7, r7, #64	; 0x40
 8001338:	46bd      	mov	sp, r7
 800133a:	bd80      	pop	{r7, pc}
 800133c:	51eb851f 	.word	0x51eb851f

08001340 <STM_UART_Write>:
 8001340:	b480      	push	{r7}
 8001342:	b087      	sub	sp, #28
 8001344:	af00      	add	r7, sp, #0
 8001346:	60f8      	str	r0, [r7, #12]
 8001348:	60b9      	str	r1, [r7, #8]
 800134a:	607a      	str	r2, [r7, #4]
 800134c:	68bb      	ldr	r3, [r7, #8]
 800134e:	613b      	str	r3, [r7, #16]
 8001350:	f04f 0300 	mov.w	r3, #0
 8001354:	617b      	str	r3, [r7, #20]
 8001356:	e012      	b.n	800137e <STM_UART_Write+0x3e>
 8001358:	693a      	ldr	r2, [r7, #16]
 800135a:	697b      	ldr	r3, [r7, #20]
 800135c:	18d3      	adds	r3, r2, r3
 800135e:	781b      	ldrb	r3, [r3, #0]
 8001360:	461a      	mov	r2, r3
 8001362:	68fb      	ldr	r3, [r7, #12]
 8001364:	809a      	strh	r2, [r3, #4]
 8001366:	bf00      	nop
 8001368:	68fb      	ldr	r3, [r7, #12]
 800136a:	881b      	ldrh	r3, [r3, #0]
 800136c:	b29b      	uxth	r3, r3
 800136e:	f003 0380 	and.w	r3, r3, #128	; 0x80
 8001372:	2b00      	cmp	r3, #0
 8001374:	d0f8      	beq.n	8001368 <STM_UART_Write+0x28>
 8001376:	697b      	ldr	r3, [r7, #20]
 8001378:	f103 0301 	add.w	r3, r3, #1
 800137c:	617b      	str	r3, [r7, #20]
 800137e:	697a      	ldr	r2, [r7, #20]
 8001380:	687b      	ldr	r3, [r7, #4]
 8001382:	429a      	cmp	r2, r3
 8001384:	d3e8      	bcc.n	8001358 <STM_UART_Write+0x18>
 8001386:	687b      	ldr	r3, [r7, #4]
 8001388:	4618      	mov	r0, r3
 800138a:	f107 071c 	add.w	r7, r7, #28
 800138e:	46bd      	mov	sp, r7
 8001390:	bc80      	pop	{r7}
 8001392:	4770      	bx	lr

08001394 <STM_UART_Read>:
 8001394:	b480      	push	{r7}
 8001396:	b087      	sub	sp, #28
 8001398:	af00      	add	r7, sp, #0
 800139a:	60f8      	str	r0, [r7, #12]
 800139c:	60b9      	str	r1, [r7, #8]
 800139e:	607a      	str	r2, [r7, #4]
 80013a0:	68bb      	ldr	r3, [r7, #8]
 80013a2:	613b      	str	r3, [r7, #16]
 80013a4:	f04f 0300 	mov.w	r3, #0
 80013a8:	617b      	str	r3, [r7, #20]
 80013aa:	e011      	b.n	80013d0 <STM_UART_Read+0x3c>
 80013ac:	697b      	ldr	r3, [r7, #20]
 80013ae:	ea4f 0343 	mov.w	r3, r3, lsl #1
 80013b2:	693a      	ldr	r2, [r7, #16]
 80013b4:	18d2      	adds	r2, r2, r3
 80013b6:	68fb      	ldr	r3, [r7, #12]
 80013b8:	889b      	ldrh	r3, [r3, #4]
 80013ba:	b29b      	uxth	r3, r3
 80013bc:	ea4f 53c3 	mov.w	r3, r3, lsl #23
 80013c0:	ea4f 53d3 	mov.w	r3, r3, lsr #23
 80013c4:	b29b      	uxth	r3, r3
 80013c6:	8013      	strh	r3, [r2, #0]
 80013c8:	697b      	ldr	r3, [r7, #20]
 80013ca:	f103 0301 	add.w	r3, r3, #1
 80013ce:	617b      	str	r3, [r7, #20]
 80013d0:	697a      	ldr	r2, [r7, #20]
 80013d2:	687b      	ldr	r3, [r7, #4]
 80013d4:	429a      	cmp	r2, r3
 80013d6:	d3e9      	bcc.n	80013ac <STM_UART_Read+0x18>
 80013d8:	687b      	ldr	r3, [r7, #4]
 80013da:	4618      	mov	r0, r3
 80013dc:	f107 071c 	add.w	r7, r7, #28
 80013e0:	46bd      	mov	sp, r7
 80013e2:	bc80      	pop	{r7}
 80013e4:	4770      	bx	lr
 80013e6:	bf00      	nop

080013e8 <STM_UART_SetRate>:
 80013e8:	b580      	push	{r7, lr}
 80013ea:	b08c      	sub	sp, #48	; 0x30
 80013ec:	af00      	add	r7, sp, #0
 80013ee:	6078      	str	r0, [r7, #4]
 80013f0:	6039      	str	r1, [r7, #0]
 80013f2:	f04f 0300 	mov.w	r3, #0
 80013f6:	62bb      	str	r3, [r7, #40]	; 0x28
 80013f8:	f04f 0300 	mov.w	r3, #0
 80013fc:	62fb      	str	r3, [r7, #44]	; 0x2c
 80013fe:	f04f 0300 	mov.w	r3, #0
 8001402:	627b      	str	r3, [r7, #36]	; 0x24
 8001404:	f04f 0300 	mov.w	r3, #0
 8001408:	623b      	str	r3, [r7, #32]
 800140a:	f04f 0300 	mov.w	r3, #0
 800140e:	62bb      	str	r3, [r7, #40]	; 0x28
 8001410:	f107 030c 	add.w	r3, r7, #12
 8001414:	4618      	mov	r0, r3
 8001416:	f7ff fd4b 	bl	8000eb0 <STM_RCC_GetClockFreq>
 800141a:	f107 0304 	add.w	r3, r7, #4
 800141e:	681a      	ldr	r2, [r3, #0]
 8001420:	4b21      	ldr	r3, [pc, #132]	; (80014a8 <STM_UART_SetRate+0xc0>)
 8001422:	429a      	cmp	r2, r3
 8001424:	d102      	bne.n	800142c <STM_UART_SetRate+0x44>
 8001426:	69bb      	ldr	r3, [r7, #24]
 8001428:	62fb      	str	r3, [r7, #44]	; 0x2c
 800142a:	e001      	b.n	8001430 <STM_UART_SetRate+0x48>
 800142c:	697b      	ldr	r3, [r7, #20]
 800142e:	62fb      	str	r3, [r7, #44]	; 0x2c
 8001430:	6afa      	ldr	r2, [r7, #44]	; 0x2c
 8001432:	4613      	mov	r3, r2
 8001434:	ea4f 0383 	mov.w	r3, r3, lsl #2
 8001438:	189b      	adds	r3, r3, r2
 800143a:	ea4f 0283 	mov.w	r2, r3, lsl #2
 800143e:	189a      	adds	r2, r3, r2
 8001440:	683b      	ldr	r3, [r7, #0]
 8001442:	ea4f 0383 	mov.w	r3, r3, lsl #2
 8001446:	fbb2 f3f3 	udiv	r3, r2, r3
 800144a:	627b      	str	r3, [r7, #36]	; 0x24
 800144c:	6a7a      	ldr	r2, [r7, #36]	; 0x24
 800144e:	4b17      	ldr	r3, [pc, #92]	; (80014ac <STM_UART_SetRate+0xc4>)
 8001450:	fba3 1302 	umull	r1, r3, r3, r2
 8001454:	ea4f 1353 	mov.w	r3, r3, lsr #5
 8001458:	ea4f 1303 	mov.w	r3, r3, lsl #4
 800145c:	62bb      	str	r3, [r7, #40]	; 0x28
 800145e:	6abb      	ldr	r3, [r7, #40]	; 0x28
 8001460:	ea4f 1313 	mov.w	r3, r3, lsr #4
 8001464:	f04f 0264 	mov.w	r2, #100	; 0x64
 8001468:	fb02 f303 	mul.w	r3, r2, r3
 800146c:	6a7a      	ldr	r2, [r7, #36]	; 0x24
 800146e:	1ad3      	subs	r3, r2, r3
 8001470:	623b      	str	r3, [r7, #32]
 8001472:	6a3b      	ldr	r3, [r7, #32]
 8001474:	ea4f 1303 	mov.w	r3, r3, lsl #4
 8001478:	f103 0232 	add.w	r2, r3, #50	; 0x32
 800147c:	4b0b      	ldr	r3, [pc, #44]	; (80014ac <STM_UART_SetRate+0xc4>)
 800147e:	fba3 1302 	umull	r1, r3, r3, r2
 8001482:	ea4f 1353 	mov.w	r3, r3, lsr #5
 8001486:	f003 030f 	and.w	r3, r3, #15
 800148a:	6aba      	ldr	r2, [r7, #40]	; 0x28
 800148c:	ea42 0303 	orr.w	r3, r2, r3
 8001490:	62bb      	str	r3, [r7, #40]	; 0x28
 8001492:	687b      	ldr	r3, [r7, #4]
 8001494:	6aba      	ldr	r2, [r7, #40]	; 0x28
 8001496:	b292      	uxth	r2, r2
 8001498:	811a      	strh	r2, [r3, #8]
 800149a:	f04f 0300 	mov.w	r3, #0
 800149e:	4618      	mov	r0, r3
 80014a0:	f107 0730 	add.w	r7, r7, #48	; 0x30
 80014a4:	46bd      	mov	sp, r7
 80014a6:	bd80      	pop	{r7, pc}
 80014a8:	40013800 	.word	0x40013800
 80014ac:	51eb851f 	.word	0x51eb851f

080014b0 <STM_UART_Cfg>:
 80014b0:	b580      	push	{r7, lr}
 80014b2:	b086      	sub	sp, #24
 80014b4:	af00      	add	r7, sp, #0
 80014b6:	60f8      	str	r0, [r7, #12]
 80014b8:	607a      	str	r2, [r7, #4]
 80014ba:	603b      	str	r3, [r7, #0]
 80014bc:	460b      	mov	r3, r1
 80014be:	72fb      	strb	r3, [r7, #11]
 80014c0:	f04f 0301 	mov.w	r3, #1
 80014c4:	75fb      	strb	r3, [r7, #23]
 80014c6:	7afb      	ldrb	r3, [r7, #11]
 80014c8:	2b04      	cmp	r3, #4
 80014ca:	f200 8141 	bhi.w	8001750 <STM_UART_Cfg+0x2a0>
 80014ce:	a201      	add	r2, pc, #4	; (adr r2, 80014d4 <STM_UART_Cfg+0x24>)
 80014d0:	f852 f023 	ldr.w	pc, [r2, r3, lsl #2]
 80014d4:	080014e9 	.word	0x080014e9
 80014d8:	080014fb 	.word	0x080014fb
 80014dc:	0800155d 	.word	0x0800155d
 80014e0:	08001663 	.word	0x08001663
 80014e4:	0800171b 	.word	0x0800171b
 80014e8:	68f8      	ldr	r0, [r7, #12]
 80014ea:	6879      	ldr	r1, [r7, #4]
 80014ec:	f7ff ff7c 	bl	80013e8 <STM_UART_SetRate>
 80014f0:	6138      	str	r0, [r7, #16]
 80014f2:	f04f 0300 	mov.w	r3, #0
 80014f6:	75fb      	strb	r3, [r7, #23]
 80014f8:	e12d      	b.n	8001756 <STM_UART_Cfg+0x2a6>
 80014fa:	68fb      	ldr	r3, [r7, #12]
 80014fc:	899b      	ldrh	r3, [r3, #12]
 80014fe:	b29b      	uxth	r3, r3
 8001500:	f403 5380 	and.w	r3, r3, #4096	; 0x1000
 8001504:	2b00      	cmp	r3, #0
 8001506:	d002      	beq.n	800150e <STM_UART_Cfg+0x5e>
 8001508:	2b01      	cmp	r3, #1
 800150a:	d004      	beq.n	8001516 <STM_UART_Cfg+0x66>
 800150c:	e007      	b.n	800151e <STM_UART_Cfg+0x6e>
 800150e:	f04f 0308 	mov.w	r3, #8
 8001512:	613b      	str	r3, [r7, #16]
 8001514:	e003      	b.n	800151e <STM_UART_Cfg+0x6e>
 8001516:	f04f 0309 	mov.w	r3, #9
 800151a:	613b      	str	r3, [r7, #16]
 800151c:	bf00      	nop
 800151e:	687b      	ldr	r3, [r7, #4]
 8001520:	2b08      	cmp	r3, #8
 8001522:	d002      	beq.n	800152a <STM_UART_Cfg+0x7a>
 8001524:	2b09      	cmp	r3, #9
 8001526:	d00c      	beq.n	8001542 <STM_UART_Cfg+0x92>
 8001528:	e017      	b.n	800155a <STM_UART_Cfg+0xaa>
 800152a:	68fb      	ldr	r3, [r7, #12]
 800152c:	899b      	ldrh	r3, [r3, #12]
 800152e:	b29b      	uxth	r3, r3
 8001530:	f423 5380 	bic.w	r3, r3, #4096	; 0x1000
 8001534:	b29a      	uxth	r2, r3
 8001536:	68fb      	ldr	r3, [r7, #12]
 8001538:	819a      	strh	r2, [r3, #12]
 800153a:	f04f 0300 	mov.w	r3, #0
 800153e:	75fb      	strb	r3, [r7, #23]
 8001540:	e00b      	b.n	800155a <STM_UART_Cfg+0xaa>
 8001542:	68fb      	ldr	r3, [r7, #12]
 8001544:	899b      	ldrh	r3, [r3, #12]
 8001546:	b29b      	uxth	r3, r3
 8001548:	f443 5380 	orr.w	r3, r3, #4096	; 0x1000
 800154c:	b29a      	uxth	r2, r3
 800154e:	68fb      	ldr	r3, [r7, #12]
 8001550:	819a      	strh	r2, [r3, #12]
 8001552:	f04f 0300 	mov.w	r3, #0
 8001556:	75fb      	strb	r3, [r7, #23]
 8001558:	bf00      	nop
 800155a:	e0fc      	b.n	8001756 <STM_UART_Cfg+0x2a6>
 800155c:	68fb      	ldr	r3, [r7, #12]
 800155e:	8a1b      	ldrh	r3, [r3, #16]
 8001560:	b29b      	uxth	r3, r3
 8001562:	f403 5340 	and.w	r3, r3, #12288	; 0x3000
 8001566:	2b03      	cmp	r3, #3
 8001568:	d81a      	bhi.n	80015a0 <STM_UART_Cfg+0xf0>
 800156a:	a201      	add	r2, pc, #4	; (adr r2, 8001570 <STM_UART_Cfg+0xc0>)
 800156c:	f852 f023 	ldr.w	pc, [r2, r3, lsl #2]
 8001570:	08001581 	.word	0x08001581
 8001574:	08001589 	.word	0x08001589
 8001578:	08001591 	.word	0x08001591
 800157c:	08001599 	.word	0x08001599
 8001580:	f04f 0300 	mov.w	r3, #0
 8001584:	613b      	str	r3, [r7, #16]
 8001586:	e00c      	b.n	80015a2 <STM_UART_Cfg+0xf2>
 8001588:	f04f 0303 	mov.w	r3, #3
 800158c:	613b      	str	r3, [r7, #16]
 800158e:	e008      	b.n	80015a2 <STM_UART_Cfg+0xf2>
 8001590:	f04f 0302 	mov.w	r3, #2
 8001594:	613b      	str	r3, [r7, #16]
 8001596:	e004      	b.n	80015a2 <STM_UART_Cfg+0xf2>
 8001598:	f04f 0301 	mov.w	r3, #1
 800159c:	613b      	str	r3, [r7, #16]
 800159e:	e000      	b.n	80015a2 <STM_UART_Cfg+0xf2>
 80015a0:	bf00      	nop
 80015a2:	687b      	ldr	r3, [r7, #4]
 80015a4:	2b03      	cmp	r3, #3
 80015a6:	f200 80d5 	bhi.w	8001754 <STM_UART_Cfg+0x2a4>
 80015aa:	a201      	add	r2, pc, #4	; (adr r2, 80015b0 <STM_UART_Cfg+0x100>)
 80015ac:	f852 f023 	ldr.w	pc, [r2, r3, lsl #2]
 80015b0:	080015e9 	.word	0x080015e9
 80015b4:	08001611 	.word	0x08001611
 80015b8:	08001639 	.word	0x08001639
 80015bc:	080015c1 	.word	0x080015c1
 80015c0:	68fb      	ldr	r3, [r7, #12]
 80015c2:	8a1b      	ldrh	r3, [r3, #16]
 80015c4:	b29b      	uxth	r3, r3
 80015c6:	f443 5380 	orr.w	r3, r3, #4096	; 0x1000
 80015ca:	b29a      	uxth	r2, r3
 80015cc:	68fb      	ldr	r3, [r7, #12]
 80015ce:	821a      	strh	r2, [r3, #16]
 80015d0:	68fb      	ldr	r3, [r7, #12]
 80015d2:	8a1b      	ldrh	r3, [r3, #16]
 80015d4:	b29b      	uxth	r3, r3
 80015d6:	f423 5300 	bic.w	r3, r3, #8192	; 0x2000
 80015da:	b29a      	uxth	r2, r3
 80015dc:	68fb      	ldr	r3, [r7, #12]
 80015de:	821a      	strh	r2, [r3, #16]
 80015e0:	f04f 0300 	mov.w	r3, #0
 80015e4:	75fb      	strb	r3, [r7, #23]
 80015e6:	e03b      	b.n	8001660 <STM_UART_Cfg+0x1b0>
 80015e8:	68fb      	ldr	r3, [r7, #12]
 80015ea:	8a1b      	ldrh	r3, [r3, #16]
 80015ec:	b29b      	uxth	r3, r3
 80015ee:	f423 5380 	bic.w	r3, r3, #4096	; 0x1000
 80015f2:	b29a      	uxth	r2, r3
 80015f4:	68fb      	ldr	r3, [r7, #12]
 80015f6:	821a      	strh	r2, [r3, #16]
 80015f8:	68fb      	ldr	r3, [r7, #12]
 80015fa:	8a1b      	ldrh	r3, [r3, #16]
 80015fc:	b29b      	uxth	r3, r3
 80015fe:	f423 5300 	bic.w	r3, r3, #8192	; 0x2000
 8001602:	b29a      	uxth	r2, r3
 8001604:	68fb      	ldr	r3, [r7, #12]
 8001606:	821a      	strh	r2, [r3, #16]
 8001608:	f04f 0300 	mov.w	r3, #0
 800160c:	75fb      	strb	r3, [r7, #23]
 800160e:	e027      	b.n	8001660 <STM_UART_Cfg+0x1b0>
 8001610:	68fb      	ldr	r3, [r7, #12]
 8001612:	8a1b      	ldrh	r3, [r3, #16]
 8001614:	b29b      	uxth	r3, r3
 8001616:	f443 5380 	orr.w	r3, r3, #4096	; 0x1000
 800161a:	b29a      	uxth	r2, r3
 800161c:	68fb      	ldr	r3, [r7, #12]
 800161e:	821a      	strh	r2, [r3, #16]
 8001620:	68fb      	ldr	r3, [r7, #12]
 8001622:	8a1b      	ldrh	r3, [r3, #16]
 8001624:	b29b      	uxth	r3, r3
 8001626:	f443 5300 	orr.w	r3, r3, #8192	; 0x2000
 800162a:	b29a      	uxth	r2, r3
 800162c:	68fb      	ldr	r3, [r7, #12]
 800162e:	821a      	strh	r2, [r3, #16]
 8001630:	f04f 0300 	mov.w	r3, #0
 8001634:	75fb      	strb	r3, [r7, #23]
 8001636:	e013      	b.n	8001660 <STM_UART_Cfg+0x1b0>
 8001638:	68fb      	ldr	r3, [r7, #12]
 800163a:	8a1b      	ldrh	r3, [r3, #16]
 800163c:	b29b      	uxth	r3, r3
 800163e:	f423 5380 	bic.w	r3, r3, #4096	; 0x1000
 8001642:	b29a      	uxth	r2, r3
 8001644:	68fb      	ldr	r3, [r7, #12]
 8001646:	821a      	strh	r2, [r3, #16]
 8001648:	68fb      	ldr	r3, [r7, #12]
 800164a:	8a1b      	ldrh	r3, [r3, #16]
 800164c:	b29b      	uxth	r3, r3
 800164e:	f443 5300 	orr.w	r3, r3, #8192	; 0x2000
 8001652:	b29a      	uxth	r2, r3
 8001654:	68fb      	ldr	r3, [r7, #12]
 8001656:	821a      	strh	r2, [r3, #16]
 8001658:	f04f 0300 	mov.w	r3, #0
 800165c:	75fb      	strb	r3, [r7, #23]
 800165e:	bf00      	nop
 8001660:	e079      	b.n	8001756 <STM_UART_Cfg+0x2a6>
 8001662:	68fb      	ldr	r3, [r7, #12]
 8001664:	899b      	ldrh	r3, [r3, #12]
 8001666:	b29b      	uxth	r3, r3
 8001668:	f403 6380 	and.w	r3, r3, #1024	; 0x400
 800166c:	2b00      	cmp	r3, #0
 800166e:	d002      	beq.n	8001676 <STM_UART_Cfg+0x1c6>
 8001670:	2b01      	cmp	r3, #1
 8001672:	d004      	beq.n	800167e <STM_UART_Cfg+0x1ce>
 8001674:	e012      	b.n	800169c <STM_UART_Cfg+0x1ec>
 8001676:	f04f 0300 	mov.w	r3, #0
 800167a:	613b      	str	r3, [r7, #16]
 800167c:	e00e      	b.n	800169c <STM_UART_Cfg+0x1ec>
 800167e:	68fb      	ldr	r3, [r7, #12]
 8001680:	899b      	ldrh	r3, [r3, #12]
 8001682:	b29b      	uxth	r3, r3
 8001684:	f403 7300 	and.w	r3, r3, #512	; 0x200
 8001688:	2b00      	cmp	r3, #0
 800168a:	d003      	beq.n	8001694 <STM_UART_Cfg+0x1e4>
 800168c:	f04f 0301 	mov.w	r3, #1
 8001690:	613b      	str	r3, [r7, #16]
 8001692:	e003      	b.n	800169c <STM_UART_Cfg+0x1ec>
 8001694:	f04f 0302 	mov.w	r3, #2
 8001698:	613b      	str	r3, [r7, #16]
 800169a:	bf00      	nop
 800169c:	687b      	ldr	r3, [r7, #4]
 800169e:	2b01      	cmp	r3, #1
 80016a0:	d010      	beq.n	80016c4 <STM_UART_Cfg+0x214>
 80016a2:	2b01      	cmp	r3, #1
 80016a4:	d302      	bcc.n	80016ac <STM_UART_Cfg+0x1fc>
 80016a6:	2b02      	cmp	r3, #2
 80016a8:	d020      	beq.n	80016ec <STM_UART_Cfg+0x23c>
 80016aa:	e035      	b.n	8001718 <STM_UART_Cfg+0x268>
 80016ac:	68fb      	ldr	r3, [r7, #12]
 80016ae:	899b      	ldrh	r3, [r3, #12]
 80016b0:	b29b      	uxth	r3, r3
 80016b2:	f423 6380 	bic.w	r3, r3, #1024	; 0x400
 80016b6:	b29a      	uxth	r2, r3
 80016b8:	68fb      	ldr	r3, [r7, #12]
 80016ba:	819a      	strh	r2, [r3, #12]
 80016bc:	f04f 0300 	mov.w	r3, #0
 80016c0:	75fb      	strb	r3, [r7, #23]
 80016c2:	e029      	b.n	8001718 <STM_UART_Cfg+0x268>
 80016c4:	68fb      	ldr	r3, [r7, #12]
 80016c6:	899b      	ldrh	r3, [r3, #12]
 80016c8:	b29b      	uxth	r3, r3
 80016ca:	f443 6380 	orr.w	r3, r3, #1024	; 0x400
 80016ce:	b29a      	uxth	r2, r3
 80016d0:	68fb      	ldr	r3, [r7, #12]
 80016d2:	819a      	strh	r2, [r3, #12]
 80016d4:	68fb      	ldr	r3, [r7, #12]
 80016d6:	899b      	ldrh	r3, [r3, #12]
 80016d8:	b29b      	uxth	r3, r3
 80016da:	f443 7300 	orr.w	r3, r3, #512	; 0x200
 80016de:	b29a      	uxth	r2, r3
 80016e0:	68fb      	ldr	r3, [r7, #12]
 80016e2:	819a      	strh	r2, [r3, #12]
 80016e4:	f04f 0300 	mov.w	r3, #0
 80016e8:	75fb      	strb	r3, [r7, #23]
 80016ea:	e015      	b.n	8001718 <STM_UART_Cfg+0x268>
 80016ec:	68fb      	ldr	r3, [r7, #12]
 80016ee:	899b      	ldrh	r3, [r3, #12]
 80016f0:	b29b      	uxth	r3, r3
 80016f2:	f443 6380 	orr.w	r3, r3, #1024	; 0x400
 80016f6:	b29a      	uxth	r2, r3
 80016f8:	68fb      	ldr	r3, [r7, #12]
 80016fa:	819a      	strh	r2, [r3, #12]
 80016fc:	68fb      	ldr	r3, [r7, #12]
 80016fe:	899b      	ldrh	r3, [r3, #12]
 8001700:	b29a      	uxth	r2, r3
 8001702:	f640 53ff 	movw	r3, #3583	; 0xdff
 8001706:	ea02 0303 	and.w	r3, r2, r3
 800170a:	b29a      	uxth	r2, r3
 800170c:	68fb      	ldr	r3, [r7, #12]
 800170e:	819a      	strh	r2, [r3, #12]
 8001710:	f04f 0300 	mov.w	r3, #0
 8001714:	75fb      	strb	r3, [r7, #23]
 8001716:	bf00      	nop
 8001718:	e01d      	b.n	8001756 <STM_UART_Cfg+0x2a6>
 800171a:	f7ff facb 	bl	8000cb4 <NVIC_Configuration>
 800171e:	687b      	ldr	r3, [r7, #4]
 8001720:	2b00      	cmp	r3, #0
 8001722:	d002      	beq.n	800172a <STM_UART_Cfg+0x27a>
 8001724:	2b01      	cmp	r3, #1
 8001726:	d009      	beq.n	800173c <STM_UART_Cfg+0x28c>
 8001728:	e011      	b.n	800174e <STM_UART_Cfg+0x29e>
 800172a:	68fb      	ldr	r3, [r7, #12]
 800172c:	899b      	ldrh	r3, [r3, #12]
 800172e:	b29b      	uxth	r3, r3
 8001730:	f043 0320 	orr.w	r3, r3, #32
 8001734:	b29a      	uxth	r2, r3
 8001736:	68fb      	ldr	r3, [r7, #12]
 8001738:	819a      	strh	r2, [r3, #12]
 800173a:	e008      	b.n	800174e <STM_UART_Cfg+0x29e>
 800173c:	68fb      	ldr	r3, [r7, #12]
 800173e:	899b      	ldrh	r3, [r3, #12]
 8001740:	b29b      	uxth	r3, r3
 8001742:	f043 0380 	orr.w	r3, r3, #128	; 0x80
 8001746:	b29a      	uxth	r2, r3
 8001748:	68fb      	ldr	r3, [r7, #12]
 800174a:	819a      	strh	r2, [r3, #12]
 800174c:	bf00      	nop
 800174e:	e002      	b.n	8001756 <STM_UART_Cfg+0x2a6>
 8001750:	bf00      	nop
 8001752:	e000      	b.n	8001756 <STM_UART_Cfg+0x2a6>
 8001754:	bf00      	nop
 8001756:	7dfb      	ldrb	r3, [r7, #23]
 8001758:	2b00      	cmp	r3, #0
 800175a:	d105      	bne.n	8001768 <STM_UART_Cfg+0x2b8>
 800175c:	683b      	ldr	r3, [r7, #0]
 800175e:	2b00      	cmp	r3, #0
 8001760:	d002      	beq.n	8001768 <STM_UART_Cfg+0x2b8>
 8001762:	683b      	ldr	r3, [r7, #0]
 8001764:	693a      	ldr	r2, [r7, #16]
 8001766:	601a      	str	r2, [r3, #0]
 8001768:	7dfb      	ldrb	r3, [r7, #23]
 800176a:	4618      	mov	r0, r3
 800176c:	f107 0718 	add.w	r7, r7, #24
 8001770:	46bd      	mov	sp, r7
 8001772:	bd80      	pop	{r7, pc}

08001774 <STM_Serial1_Init>:
 8001774:	b580      	push	{r7, lr}
 8001776:	b082      	sub	sp, #8
 8001778:	af00      	add	r7, sp, #0
 800177a:	6078      	str	r0, [r7, #4]
 800177c:	4804      	ldr	r0, [pc, #16]	; (8001790 <STM_Serial1_Init+0x1c>)
 800177e:	6879      	ldr	r1, [r7, #4]
 8001780:	f7ff fc50 	bl	8001024 <STM_UART_Init>
 8001784:	4603      	mov	r3, r0
 8001786:	4618      	mov	r0, r3
 8001788:	f107 0708 	add.w	r7, r7, #8
 800178c:	46bd      	mov	sp, r7
 800178e:	bd80      	pop	{r7, pc}
 8001790:	40013800 	.word	0x40013800

08001794 <STM_Serial2_Init>:
 8001794:	b580      	push	{r7, lr}
 8001796:	b082      	sub	sp, #8
 8001798:	af00      	add	r7, sp, #0
 800179a:	6078      	str	r0, [r7, #4]
 800179c:	4804      	ldr	r0, [pc, #16]	; (80017b0 <STM_Serial2_Init+0x1c>)
 800179e:	6879      	ldr	r1, [r7, #4]
 80017a0:	f7ff fc40 	bl	8001024 <STM_UART_Init>
 80017a4:	4603      	mov	r3, r0
 80017a6:	4618      	mov	r0, r3
 80017a8:	f107 0708 	add.w	r7, r7, #8
 80017ac:	46bd      	mov	sp, r7
 80017ae:	bd80      	pop	{r7, pc}
 80017b0:	40004400 	.word	0x40004400

080017b4 <STM_Serial3_Init>:
 80017b4:	b580      	push	{r7, lr}
 80017b6:	b082      	sub	sp, #8
 80017b8:	af00      	add	r7, sp, #0
 80017ba:	6078      	str	r0, [r7, #4]
 80017bc:	4804      	ldr	r0, [pc, #16]	; (80017d0 <STM_Serial3_Init+0x1c>)
 80017be:	6879      	ldr	r1, [r7, #4]
 80017c0:	f7ff fc30 	bl	8001024 <STM_UART_Init>
 80017c4:	4603      	mov	r3, r0
 80017c6:	4618      	mov	r0, r3
 80017c8:	f107 0708 	add.w	r7, r7, #8
 80017cc:	46bd      	mov	sp, r7
 80017ce:	bd80      	pop	{r7, pc}
 80017d0:	40004800 	.word	0x40004800

080017d4 <STM_Serial1_Write>:
 80017d4:	b580      	push	{r7, lr}
 80017d6:	b082      	sub	sp, #8
 80017d8:	af00      	add	r7, sp, #0
 80017da:	6078      	str	r0, [r7, #4]
 80017dc:	6039      	str	r1, [r7, #0]
 80017de:	4805      	ldr	r0, [pc, #20]	; (80017f4 <STM_Serial1_Write+0x20>)
 80017e0:	6879      	ldr	r1, [r7, #4]
 80017e2:	683a      	ldr	r2, [r7, #0]
 80017e4:	f7ff fdac 	bl	8001340 <STM_UART_Write>
 80017e8:	4603      	mov	r3, r0
 80017ea:	4618      	mov	r0, r3
 80017ec:	f107 0708 	add.w	r7, r7, #8
 80017f0:	46bd      	mov	sp, r7
 80017f2:	bd80      	pop	{r7, pc}
 80017f4:	40013800 	.word	0x40013800

080017f8 <STM_Serial2_Write>:
 80017f8:	b580      	push	{r7, lr}
 80017fa:	b082      	sub	sp, #8
 80017fc:	af00      	add	r7, sp, #0
 80017fe:	6078      	str	r0, [r7, #4]
 8001800:	6039      	str	r1, [r7, #0]
 8001802:	4805      	ldr	r0, [pc, #20]	; (8001818 <STM_Serial2_Write+0x20>)
 8001804:	6879      	ldr	r1, [r7, #4]
 8001806:	683a      	ldr	r2, [r7, #0]
 8001808:	f7ff fd9a 	bl	8001340 <STM_UART_Write>
 800180c:	4603      	mov	r3, r0
 800180e:	4618      	mov	r0, r3
 8001810:	f107 0708 	add.w	r7, r7, #8
 8001814:	46bd      	mov	sp, r7
 8001816:	bd80      	pop	{r7, pc}
 8001818:	40004400 	.word	0x40004400

0800181c <STM_Serial3_Write>:
 800181c:	b580      	push	{r7, lr}
 800181e:	b082      	sub	sp, #8
 8001820:	af00      	add	r7, sp, #0
 8001822:	6078      	str	r0, [r7, #4]
 8001824:	6039      	str	r1, [r7, #0]
 8001826:	4805      	ldr	r0, [pc, #20]	; (800183c <STM_Serial3_Write+0x20>)
 8001828:	6879      	ldr	r1, [r7, #4]
 800182a:	683a      	ldr	r2, [r7, #0]
 800182c:	f7ff fd88 	bl	8001340 <STM_UART_Write>
 8001830:	4603      	mov	r3, r0
 8001832:	4618      	mov	r0, r3
 8001834:	f107 0708 	add.w	r7, r7, #8
 8001838:	46bd      	mov	sp, r7
 800183a:	bd80      	pop	{r7, pc}
 800183c:	40004800 	.word	0x40004800

08001840 <STM_Serial1_Read>:
 8001840:	b580      	push	{r7, lr}
 8001842:	b082      	sub	sp, #8
 8001844:	af00      	add	r7, sp, #0
 8001846:	6078      	str	r0, [r7, #4]
 8001848:	6039      	str	r1, [r7, #0]
 800184a:	4805      	ldr	r0, [pc, #20]	; (8001860 <STM_Serial1_Read+0x20>)
 800184c:	6879      	ldr	r1, [r7, #4]
 800184e:	683a      	ldr	r2, [r7, #0]
 8001850:	f7ff fda0 	bl	8001394 <STM_UART_Read>
 8001854:	4603      	mov	r3, r0
 8001856:	4618      	mov	r0, r3
 8001858:	f107 0708 	add.w	r7, r7, #8
 800185c:	46bd      	mov	sp, r7
 800185e:	bd80      	pop	{r7, pc}
 8001860:	40013800 	.word	0x40013800

08001864 <STM_Serial2_Read>:
 8001864:	b580      	push	{r7, lr}
 8001866:	b082      	sub	sp, #8
 8001868:	af00      	add	r7, sp, #0
 800186a:	6078      	str	r0, [r7, #4]
 800186c:	6039      	str	r1, [r7, #0]
 800186e:	4805      	ldr	r0, [pc, #20]	; (8001884 <STM_Serial2_Read+0x20>)
 8001870:	6879      	ldr	r1, [r7, #4]
 8001872:	683a      	ldr	r2, [r7, #0]
 8001874:	f7ff fd8e 	bl	8001394 <STM_UART_Read>
 8001878:	4603      	mov	r3, r0
 800187a:	4618      	mov	r0, r3
 800187c:	f107 0708 	add.w	r7, r7, #8
 8001880:	46bd      	mov	sp, r7
 8001882:	bd80      	pop	{r7, pc}
 8001884:	40004400 	.word	0x40004400

08001888 <STM_Serial3_Read>:
 8001888:	b580      	push	{r7, lr}
 800188a:	b082      	sub	sp, #8
 800188c:	af00      	add	r7, sp, #0
 800188e:	6078      	str	r0, [r7, #4]
 8001890:	6039      	str	r1, [r7, #0]
 8001892:	4805      	ldr	r0, [pc, #20]	; (80018a8 <STM_Serial3_Read+0x20>)
 8001894:	6879      	ldr	r1, [r7, #4]
 8001896:	683a      	ldr	r2, [r7, #0]
 8001898:	f7ff fd7c 	bl	8001394 <STM_UART_Read>
 800189c:	4603      	mov	r3, r0
 800189e:	4618      	mov	r0, r3
 80018a0:	f107 0708 	add.w	r7, r7, #8
 80018a4:	46bd      	mov	sp, r7
 80018a6:	bd80      	pop	{r7, pc}
 80018a8:	40004800 	.word	0x40004800

080018ac <STM_Serial1_Cfg>:
 80018ac:	b580      	push	{r7, lr}
 80018ae:	b084      	sub	sp, #16
 80018b0:	af00      	add	r7, sp, #0
 80018b2:	4603      	mov	r3, r0
 80018b4:	60b9      	str	r1, [r7, #8]
 80018b6:	607a      	str	r2, [r7, #4]
 80018b8:	73fb      	strb	r3, [r7, #15]
 80018ba:	7bfb      	ldrb	r3, [r7, #15]
 80018bc:	4805      	ldr	r0, [pc, #20]	; (80018d4 <STM_Serial1_Cfg+0x28>)
 80018be:	4619      	mov	r1, r3
 80018c0:	68ba      	ldr	r2, [r7, #8]
 80018c2:	687b      	ldr	r3, [r7, #4]
 80018c4:	f7ff fdf4 	bl	80014b0 <STM_UART_Cfg>
 80018c8:	4603      	mov	r3, r0
 80018ca:	4618      	mov	r0, r3
 80018cc:	f107 0710 	add.w	r7, r7, #16
 80018d0:	46bd      	mov	sp, r7
 80018d2:	bd80      	pop	{r7, pc}
 80018d4:	40013800 	.word	0x40013800

080018d8 <STM_Serial2_Cfg>:
 80018d8:	b580      	push	{r7, lr}
 80018da:	b084      	sub	sp, #16
 80018dc:	af00      	add	r7, sp, #0
 80018de:	4603      	mov	r3, r0
 80018e0:	60b9      	str	r1, [r7, #8]
 80018e2:	607a      	str	r2, [r7, #4]
 80018e4:	73fb      	strb	r3, [r7, #15]
 80018e6:	7bfb      	ldrb	r3, [r7, #15]
 80018e8:	4805      	ldr	r0, [pc, #20]	; (8001900 <STM_Serial2_Cfg+0x28>)
 80018ea:	4619      	mov	r1, r3
 80018ec:	68ba      	ldr	r2, [r7, #8]
 80018ee:	687b      	ldr	r3, [r7, #4]
 80018f0:	f7ff fdde 	bl	80014b0 <STM_UART_Cfg>
 80018f4:	4603      	mov	r3, r0
 80018f6:	4618      	mov	r0, r3
 80018f8:	f107 0710 	add.w	r7, r7, #16
 80018fc:	46bd      	mov	sp, r7
 80018fe:	bd80      	pop	{r7, pc}
 8001900:	40004400 	.word	0x40004400

08001904 <STM_Serial3_Cfg>:
 8001904:	b580      	push	{r7, lr}
 8001906:	b084      	sub	sp, #16
 8001908:	af00      	add	r7, sp, #0
 800190a:	4603      	mov	r3, r0
 800190c:	60b9      	str	r1, [r7, #8]
 800190e:	607a      	str	r2, [r7, #4]
 8001910:	73fb      	strb	r3, [r7, #15]
 8001912:	7bfb      	ldrb	r3, [r7, #15]
 8001914:	4805      	ldr	r0, [pc, #20]	; (800192c <STM_Serial3_Cfg+0x28>)
 8001916:	4619      	mov	r1, r3
 8001918:	68ba      	ldr	r2, [r7, #8]
 800191a:	687b      	ldr	r3, [r7, #4]
 800191c:	f7ff fdc8 	bl	80014b0 <STM_UART_Cfg>
 8001920:	4603      	mov	r3, r0
 8001922:	4618      	mov	r0, r3
 8001924:	f107 0710 	add.w	r7, r7, #16
 8001928:	46bd      	mov	sp, r7
 800192a:	bd80      	pop	{r7, pc}
 800192c:	40004800 	.word	0x40004800

08001930 <CreateTCBList>:
 8001930:	b480      	push	{r7}
 8001932:	b085      	sub	sp, #20
 8001934:	af00      	add	r7, sp, #0
 8001936:	4b18      	ldr	r3, [pc, #96]	; (8001998 <CreateTCBList+0x68>)
 8001938:	60bb      	str	r3, [r7, #8]
 800193a:	4b18      	ldr	r3, [pc, #96]	; (800199c <CreateTCBList+0x6c>)
 800193c:	607b      	str	r3, [r7, #4]
 800193e:	f04f 0300 	mov.w	r3, #0
 8001942:	73fb      	strb	r3, [r7, #15]
 8001944:	e015      	b.n	8001972 <CreateTCBList+0x42>
 8001946:	68bb      	ldr	r3, [r7, #8]
 8001948:	7bfa      	ldrb	r2, [r7, #15]
 800194a:	719a      	strb	r2, [r3, #6]
 800194c:	68bb      	ldr	r3, [r7, #8]
 800194e:	f04f 0203 	mov.w	r2, #3
 8001952:	715a      	strb	r2, [r3, #5]
 8001954:	68bb      	ldr	r3, [r7, #8]
 8001956:	687a      	ldr	r2, [r7, #4]
 8001958:	625a      	str	r2, [r3, #36]	; 0x24
 800195a:	68bb      	ldr	r3, [r7, #8]
 800195c:	f103 032c 	add.w	r3, r3, #44	; 0x2c
 8001960:	60bb      	str	r3, [r7, #8]
 8001962:	687b      	ldr	r3, [r7, #4]
 8001964:	f103 032c 	add.w	r3, r3, #44	; 0x2c
 8001968:	607b      	str	r3, [r7, #4]
 800196a:	7bfb      	ldrb	r3, [r7, #15]
 800196c:	f103 0301 	add.w	r3, r3, #1
 8001970:	73fb      	strb	r3, [r7, #15]
 8001972:	7bfb      	ldrb	r3, [r7, #15]
 8001974:	2b04      	cmp	r3, #4
 8001976:	d9e6      	bls.n	8001946 <CreateTCBList+0x16>
 8001978:	68bb      	ldr	r3, [r7, #8]
 800197a:	7bfa      	ldrb	r2, [r7, #15]
 800197c:	719a      	strb	r2, [r3, #6]
 800197e:	68bb      	ldr	r3, [r7, #8]
 8001980:	f04f 0200 	mov.w	r2, #0
 8001984:	625a      	str	r2, [r3, #36]	; 0x24
 8001986:	4b06      	ldr	r3, [pc, #24]	; (80019a0 <CreateTCBList+0x70>)
 8001988:	4a03      	ldr	r2, [pc, #12]	; (8001998 <CreateTCBList+0x68>)
 800198a:	601a      	str	r2, [r3, #0]
 800198c:	f107 0714 	add.w	r7, r7, #20
 8001990:	46bd      	mov	sp, r7
 8001992:	bc80      	pop	{r7}
 8001994:	4770      	bx	lr
 8001996:	bf00      	nop
 8001998:	20000220 	.word	0x20000220
 800199c:	2000024c 	.word	0x2000024c
 80019a0:	2000038c 	.word	0x2000038c

080019a4 <InsertToTCBRdyList>:
 80019a4:	b480      	push	{r7}
 80019a6:	b087      	sub	sp, #28
 80019a8:	af00      	add	r7, sp, #0
 80019aa:	6078      	str	r0, [r7, #4]
 80019ac:	687b      	ldr	r3, [r7, #4]
 80019ae:	791b      	ldrb	r3, [r3, #4]
 80019b0:	73fb      	strb	r3, [r7, #15]
 80019b2:	687b      	ldr	r3, [r7, #4]
 80019b4:	f04f 0200 	mov.w	r2, #0
 80019b8:	715a      	strb	r2, [r3, #5]
 80019ba:	4b37      	ldr	r3, [pc, #220]	; (8001a98 <InsertToTCBRdyList+0xf4>)
 80019bc:	681b      	ldr	r3, [r3, #0]
 80019be:	613b      	str	r3, [r7, #16]
 80019c0:	693b      	ldr	r3, [r7, #16]
 80019c2:	791b      	ldrb	r3, [r3, #4]
 80019c4:	7bfa      	ldrb	r2, [r7, #15]
 80019c6:	429a      	cmp	r2, r3
 80019c8:	d11e      	bne.n	8001a08 <InsertToTCBRdyList+0x64>
 80019ca:	693a      	ldr	r2, [r7, #16]
 80019cc:	687b      	ldr	r3, [r7, #4]
 80019ce:	429a      	cmp	r2, r3
 80019d0:	d01a      	beq.n	8001a08 <InsertToTCBRdyList+0x64>
 80019d2:	693b      	ldr	r3, [r7, #16]
 80019d4:	2b00      	cmp	r3, #0
 80019d6:	d017      	beq.n	8001a08 <InsertToTCBRdyList+0x64>
 80019d8:	4b30      	ldr	r3, [pc, #192]	; (8001a9c <InsertToTCBRdyList+0xf8>)
 80019da:	e9d3 0100 	ldrd	r0, r1, [r3]
 80019de:	4b30      	ldr	r3, [pc, #192]	; (8001aa0 <InsertToTCBRdyList+0xfc>)
 80019e0:	e9d3 2300 	ldrd	r2, r3, [r3]
 80019e4:	4290      	cmp	r0, r2
 80019e6:	eb71 0c03 	sbcs.w	ip, r1, r3
 80019ea:	d20d      	bcs.n	8001a08 <InsertToTCBRdyList+0x64>
 80019ec:	693b      	ldr	r3, [r7, #16]
 80019ee:	895b      	ldrh	r3, [r3, #10]
 80019f0:	4618      	mov	r0, r3
 80019f2:	f04f 0100 	mov.w	r1, #0
 80019f6:	4b2a      	ldr	r3, [pc, #168]	; (8001aa0 <InsertToTCBRdyList+0xfc>)
 80019f8:	e9d3 2300 	ldrd	r2, r3, [r3]
 80019fc:	1812      	adds	r2, r2, r0
 80019fe:	eb43 0301 	adc.w	r3, r3, r1
 8001a02:	4926      	ldr	r1, [pc, #152]	; (8001a9c <InsertToTCBRdyList+0xf8>)
 8001a04:	e9c1 2300 	strd	r2, r3, [r1]
 8001a08:	4b26      	ldr	r3, [pc, #152]	; (8001aa4 <InsertToTCBRdyList+0x100>)
 8001a0a:	681b      	ldr	r3, [r3, #0]
 8001a0c:	613b      	str	r3, [r7, #16]
 8001a0e:	693b      	ldr	r3, [r7, #16]
 8001a10:	2b00      	cmp	r3, #0
 8001a12:	d107      	bne.n	8001a24 <InsertToTCBRdyList+0x80>
 8001a14:	4b24      	ldr	r3, [pc, #144]	; (8001aa8 <InsertToTCBRdyList+0x104>)
 8001a16:	f04f 0201 	mov.w	r2, #1
 8001a1a:	701a      	strb	r2, [r3, #0]
 8001a1c:	4b21      	ldr	r3, [pc, #132]	; (8001aa4 <InsertToTCBRdyList+0x100>)
 8001a1e:	687a      	ldr	r2, [r7, #4]
 8001a20:	601a      	str	r2, [r3, #0]
 8001a22:	e034      	b.n	8001a8e <InsertToTCBRdyList+0xea>
 8001a24:	693b      	ldr	r3, [r7, #16]
 8001a26:	791b      	ldrb	r3, [r3, #4]
 8001a28:	7bfa      	ldrb	r2, [r7, #15]
 8001a2a:	429a      	cmp	r2, r3
 8001a2c:	d20d      	bcs.n	8001a4a <InsertToTCBRdyList+0xa6>
 8001a2e:	4b1e      	ldr	r3, [pc, #120]	; (8001aa8 <InsertToTCBRdyList+0x104>)
 8001a30:	f04f 0201 	mov.w	r2, #1
 8001a34:	701a      	strb	r2, [r3, #0]
 8001a36:	687b      	ldr	r3, [r7, #4]
 8001a38:	693a      	ldr	r2, [r7, #16]
 8001a3a:	625a      	str	r2, [r3, #36]	; 0x24
 8001a3c:	693b      	ldr	r3, [r7, #16]
 8001a3e:	687a      	ldr	r2, [r7, #4]
 8001a40:	629a      	str	r2, [r3, #40]	; 0x28
 8001a42:	4b18      	ldr	r3, [pc, #96]	; (8001aa4 <InsertToTCBRdyList+0x100>)
 8001a44:	687a      	ldr	r2, [r7, #4]
 8001a46:	601a      	str	r2, [r3, #0]
 8001a48:	e021      	b.n	8001a8e <InsertToTCBRdyList+0xea>
 8001a4a:	693b      	ldr	r3, [r7, #16]
 8001a4c:	6a5b      	ldr	r3, [r3, #36]	; 0x24
 8001a4e:	617b      	str	r3, [r7, #20]
 8001a50:	e009      	b.n	8001a66 <InsertToTCBRdyList+0xc2>
 8001a52:	697b      	ldr	r3, [r7, #20]
 8001a54:	791b      	ldrb	r3, [r3, #4]
 8001a56:	7bfa      	ldrb	r2, [r7, #15]
 8001a58:	429a      	cmp	r2, r3
 8001a5a:	d308      	bcc.n	8001a6e <InsertToTCBRdyList+0xca>
 8001a5c:	697b      	ldr	r3, [r7, #20]
 8001a5e:	613b      	str	r3, [r7, #16]
 8001a60:	697b      	ldr	r3, [r7, #20]
 8001a62:	6a5b      	ldr	r3, [r3, #36]	; 0x24
 8001a64:	617b      	str	r3, [r7, #20]
 8001a66:	697b      	ldr	r3, [r7, #20]
 8001a68:	2b00      	cmp	r3, #0
 8001a6a:	d1f2      	bne.n	8001a52 <InsertToTCBRdyList+0xae>
 8001a6c:	e000      	b.n	8001a70 <InsertToTCBRdyList+0xcc>
 8001a6e:	bf00      	nop
 8001a70:	687b      	ldr	r3, [r7, #4]
 8001a72:	697a      	ldr	r2, [r7, #20]
 8001a74:	625a      	str	r2, [r3, #36]	; 0x24
 8001a76:	693b      	ldr	r3, [r7, #16]
 8001a78:	687a      	ldr	r2, [r7, #4]
 8001a7a:	625a      	str	r2, [r3, #36]	; 0x24
 8001a7c:	687b      	ldr	r3, [r7, #4]
 8001a7e:	693a      	ldr	r2, [r7, #16]
 8001a80:	629a      	str	r2, [r3, #40]	; 0x28
 8001a82:	697b      	ldr	r3, [r7, #20]
 8001a84:	2b00      	cmp	r3, #0
 8001a86:	d002      	beq.n	8001a8e <InsertToTCBRdyList+0xea>
 8001a88:	697b      	ldr	r3, [r7, #20]
 8001a8a:	687a      	ldr	r2, [r7, #4]
 8001a8c:	629a      	str	r2, [r3, #40]	; 0x28
 8001a8e:	f107 071c 	add.w	r7, r7, #28
 8001a92:	46bd      	mov	sp, r7
 8001a94:	bc80      	pop	{r7}
 8001a96:	4770      	bx	lr
 8001a98:	20000398 	.word	0x20000398
 8001a9c:	200003a0 	.word	0x200003a0
 8001aa0:	20000558 	.word	0x20000558
 8001aa4:	20000390 	.word	0x20000390
 8001aa8:	200001e6 	.word	0x200001e6

08001aac <RemoveFromTCBRdyList>:
 8001aac:	b480      	push	{r7}
 8001aae:	b083      	sub	sp, #12
 8001ab0:	af00      	add	r7, sp, #0
 8001ab2:	6078      	str	r0, [r7, #4]
 8001ab4:	687b      	ldr	r3, [r7, #4]
 8001ab6:	6a5b      	ldr	r3, [r3, #36]	; 0x24
 8001ab8:	2b00      	cmp	r3, #0
 8001aba:	d108      	bne.n	8001ace <RemoveFromTCBRdyList+0x22>
 8001abc:	687b      	ldr	r3, [r7, #4]
 8001abe:	6a9b      	ldr	r3, [r3, #40]	; 0x28
 8001ac0:	2b00      	cmp	r3, #0
 8001ac2:	d104      	bne.n	8001ace <RemoveFromTCBRdyList+0x22>
 8001ac4:	4b1d      	ldr	r3, [pc, #116]	; (8001b3c <RemoveFromTCBRdyList+0x90>)
 8001ac6:	f04f 0200 	mov.w	r2, #0
 8001aca:	601a      	str	r2, [r3, #0]
 8001acc:	e031      	b.n	8001b32 <RemoveFromTCBRdyList+0x86>
 8001ace:	687b      	ldr	r3, [r7, #4]
 8001ad0:	6a9b      	ldr	r3, [r3, #40]	; 0x28
 8001ad2:	2b00      	cmp	r3, #0
 8001ad4:	d10d      	bne.n	8001af2 <RemoveFromTCBRdyList+0x46>
 8001ad6:	687b      	ldr	r3, [r7, #4]
 8001ad8:	6a5a      	ldr	r2, [r3, #36]	; 0x24
 8001ada:	4b18      	ldr	r3, [pc, #96]	; (8001b3c <RemoveFromTCBRdyList+0x90>)
 8001adc:	601a      	str	r2, [r3, #0]
 8001ade:	687b      	ldr	r3, [r7, #4]
 8001ae0:	f04f 0200 	mov.w	r2, #0
 8001ae4:	625a      	str	r2, [r3, #36]	; 0x24
 8001ae6:	4b15      	ldr	r3, [pc, #84]	; (8001b3c <RemoveFromTCBRdyList+0x90>)
 8001ae8:	681b      	ldr	r3, [r3, #0]
 8001aea:	f04f 0200 	mov.w	r2, #0
 8001aee:	629a      	str	r2, [r3, #40]	; 0x28
 8001af0:	e01f      	b.n	8001b32 <RemoveFromTCBRdyList+0x86>
 8001af2:	687b      	ldr	r3, [r7, #4]
 8001af4:	6a5b      	ldr	r3, [r3, #36]	; 0x24
 8001af6:	2b00      	cmp	r3, #0
 8001af8:	d109      	bne.n	8001b0e <RemoveFromTCBRdyList+0x62>
 8001afa:	687b      	ldr	r3, [r7, #4]
 8001afc:	6a9b      	ldr	r3, [r3, #40]	; 0x28
 8001afe:	f04f 0200 	mov.w	r2, #0
 8001b02:	625a      	str	r2, [r3, #36]	; 0x24
 8001b04:	687b      	ldr	r3, [r7, #4]
 8001b06:	f04f 0200 	mov.w	r2, #0
 8001b0a:	629a      	str	r2, [r3, #40]	; 0x28
 8001b0c:	e011      	b.n	8001b32 <RemoveFromTCBRdyList+0x86>
 8001b0e:	687b      	ldr	r3, [r7, #4]
 8001b10:	6a9b      	ldr	r3, [r3, #40]	; 0x28
 8001b12:	687a      	ldr	r2, [r7, #4]
 8001b14:	6a52      	ldr	r2, [r2, #36]	; 0x24
 8001b16:	625a      	str	r2, [r3, #36]	; 0x24
 8001b18:	687b      	ldr	r3, [r7, #4]
 8001b1a:	6a5b      	ldr	r3, [r3, #36]	; 0x24
 8001b1c:	687a      	ldr	r2, [r7, #4]
 8001b1e:	6a92      	ldr	r2, [r2, #40]	; 0x28
 8001b20:	629a      	str	r2, [r3, #40]	; 0x28
 8001b22:	687b      	ldr	r3, [r7, #4]
 8001b24:	f04f 0200 	mov.w	r2, #0
 8001b28:	625a      	str	r2, [r3, #36]	; 0x24
 8001b2a:	687b      	ldr	r3, [r7, #4]
 8001b2c:	f04f 0200 	mov.w	r2, #0
 8001b30:	629a      	str	r2, [r3, #40]	; 0x28
 8001b32:	f107 070c 	add.w	r7, r7, #12
 8001b36:	46bd      	mov	sp, r7
 8001b38:	bc80      	pop	{r7}
 8001b3a:	4770      	bx	lr
 8001b3c:	20000390 	.word	0x20000390

08001b40 <Schedule>:
 8001b40:	b580      	push	{r7, lr}
 8001b42:	b084      	sub	sp, #16
 8001b44:	af00      	add	r7, sp, #0
 8001b46:	4b4e      	ldr	r3, [pc, #312]	; (8001c80 <Schedule+0x140>)
 8001b48:	681b      	ldr	r3, [r3, #0]
 8001b4a:	60fb      	str	r3, [r7, #12]
 8001b4c:	4b4d      	ldr	r3, [pc, #308]	; (8001c84 <Schedule+0x144>)
 8001b4e:	681b      	ldr	r3, [r3, #0]
 8001b50:	60bb      	str	r3, [r7, #8]
 8001b52:	68bb      	ldr	r3, [r7, #8]
 8001b54:	2b00      	cmp	r3, #0
 8001b56:	f000 8083 	beq.w	8001c60 <Schedule+0x120>
 8001b5a:	4b4b      	ldr	r3, [pc, #300]	; (8001c88 <Schedule+0x148>)
 8001b5c:	681b      	ldr	r3, [r3, #0]
 8001b5e:	68fa      	ldr	r2, [r7, #12]
 8001b60:	429a      	cmp	r2, r3
 8001b62:	d17f      	bne.n	8001c64 <Schedule+0x124>
 8001b64:	4b49      	ldr	r3, [pc, #292]	; (8001c8c <Schedule+0x14c>)
 8001b66:	781b      	ldrb	r3, [r3, #0]
 8001b68:	b2db      	uxtb	r3, r3
 8001b6a:	2b01      	cmp	r3, #1
 8001b6c:	d87c      	bhi.n	8001c68 <Schedule+0x128>
 8001b6e:	4b48      	ldr	r3, [pc, #288]	; (8001c90 <Schedule+0x150>)
 8001b70:	781b      	ldrb	r3, [r3, #0]
 8001b72:	b2db      	uxtb	r3, r3
 8001b74:	2b00      	cmp	r3, #0
 8001b76:	d179      	bne.n	8001c6c <Schedule+0x12c>
 8001b78:	4b46      	ldr	r3, [pc, #280]	; (8001c94 <Schedule+0x154>)
 8001b7a:	f04f 0200 	mov.w	r2, #0
 8001b7e:	701a      	strb	r2, [r3, #0]
 8001b80:	68fb      	ldr	r3, [r7, #12]
 8001b82:	791b      	ldrb	r3, [r3, #4]
 8001b84:	71fb      	strb	r3, [r7, #7]
 8001b86:	68bb      	ldr	r3, [r7, #8]
 8001b88:	791b      	ldrb	r3, [r3, #4]
 8001b8a:	71bb      	strb	r3, [r7, #6]
 8001b8c:	68fb      	ldr	r3, [r7, #12]
 8001b8e:	795b      	ldrb	r3, [r3, #5]
 8001b90:	2b01      	cmp	r3, #1
 8001b92:	d00a      	beq.n	8001baa <Schedule+0x6a>
 8001b94:	4b3c      	ldr	r3, [pc, #240]	; (8001c88 <Schedule+0x148>)
 8001b96:	68ba      	ldr	r2, [r7, #8]
 8001b98:	601a      	str	r2, [r3, #0]
 8001b9a:	68bb      	ldr	r3, [r7, #8]
 8001b9c:	f04f 0201 	mov.w	r2, #1
 8001ba0:	715a      	strb	r2, [r3, #5]
 8001ba2:	68b8      	ldr	r0, [r7, #8]
 8001ba4:	f7ff ff82 	bl	8001aac <RemoveFromTCBRdyList>
 8001ba8:	e02f      	b.n	8001c0a <Schedule+0xca>
 8001baa:	79ba      	ldrb	r2, [r7, #6]
 8001bac:	79fb      	ldrb	r3, [r7, #7]
 8001bae:	429a      	cmp	r2, r3
 8001bb0:	d20d      	bcs.n	8001bce <Schedule+0x8e>
 8001bb2:	4b35      	ldr	r3, [pc, #212]	; (8001c88 <Schedule+0x148>)
 8001bb4:	68ba      	ldr	r2, [r7, #8]
 8001bb6:	601a      	str	r2, [r3, #0]
 8001bb8:	68f8      	ldr	r0, [r7, #12]
 8001bba:	f7ff fef3 	bl	80019a4 <InsertToTCBRdyList>
 8001bbe:	68b8      	ldr	r0, [r7, #8]
 8001bc0:	f7ff ff74 	bl	8001aac <RemoveFromTCBRdyList>
 8001bc4:	68bb      	ldr	r3, [r7, #8]
 8001bc6:	f04f 0201 	mov.w	r2, #1
 8001bca:	715a      	strb	r2, [r3, #5]
 8001bcc:	e01d      	b.n	8001c0a <Schedule+0xca>
 8001bce:	79fa      	ldrb	r2, [r7, #7]
 8001bd0:	79bb      	ldrb	r3, [r7, #6]
 8001bd2:	429a      	cmp	r2, r3
 8001bd4:	d14c      	bne.n	8001c70 <Schedule+0x130>
 8001bd6:	4b30      	ldr	r3, [pc, #192]	; (8001c98 <Schedule+0x158>)
 8001bd8:	e9d3 0100 	ldrd	r0, r1, [r3]
 8001bdc:	4b2f      	ldr	r3, [pc, #188]	; (8001c9c <Schedule+0x15c>)
 8001bde:	e9d3 2300 	ldrd	r2, r3, [r3]
 8001be2:	ea82 0200 	eor.w	r2, r2, r0
 8001be6:	ea83 0301 	eor.w	r3, r3, r1
 8001bea:	ea52 0103 	orrs.w	r1, r2, r3
 8001bee:	d141      	bne.n	8001c74 <Schedule+0x134>
 8001bf0:	4b25      	ldr	r3, [pc, #148]	; (8001c88 <Schedule+0x148>)
 8001bf2:	68ba      	ldr	r2, [r7, #8]
 8001bf4:	601a      	str	r2, [r3, #0]
 8001bf6:	68f8      	ldr	r0, [r7, #12]
 8001bf8:	f7ff fed4 	bl	80019a4 <InsertToTCBRdyList>
 8001bfc:	68b8      	ldr	r0, [r7, #8]
 8001bfe:	f7ff ff55 	bl	8001aac <RemoveFromTCBRdyList>
 8001c02:	68bb      	ldr	r3, [r7, #8]
 8001c04:	f04f 0201 	mov.w	r2, #1
 8001c08:	715a      	strb	r2, [r3, #5]
 8001c0a:	4b1f      	ldr	r3, [pc, #124]	; (8001c88 <Schedule+0x148>)
 8001c0c:	681b      	ldr	r3, [r3, #0]
 8001c0e:	791a      	ldrb	r2, [r3, #4]
 8001c10:	4b1c      	ldr	r3, [pc, #112]	; (8001c84 <Schedule+0x144>)
 8001c12:	681b      	ldr	r3, [r3, #0]
 8001c14:	791b      	ldrb	r3, [r3, #4]
 8001c16:	429a      	cmp	r2, r3
 8001c18:	d10e      	bne.n	8001c38 <Schedule+0xf8>
 8001c1a:	4b1b      	ldr	r3, [pc, #108]	; (8001c88 <Schedule+0x148>)
 8001c1c:	681b      	ldr	r3, [r3, #0]
 8001c1e:	895b      	ldrh	r3, [r3, #10]
 8001c20:	4618      	mov	r0, r3
 8001c22:	f04f 0100 	mov.w	r1, #0
 8001c26:	4b1d      	ldr	r3, [pc, #116]	; (8001c9c <Schedule+0x15c>)
 8001c28:	e9d3 2300 	ldrd	r2, r3, [r3]
 8001c2c:	1812      	adds	r2, r2, r0
 8001c2e:	eb43 0301 	adc.w	r3, r3, r1
 8001c32:	4919      	ldr	r1, [pc, #100]	; (8001c98 <Schedule+0x158>)
 8001c34:	e9c1 2300 	strd	r2, r3, [r1]
 8001c38:	68fb      	ldr	r3, [r7, #12]
 8001c3a:	681a      	ldr	r2, [r3, #0]
 8001c3c:	68fb      	ldr	r3, [r7, #12]
 8001c3e:	68db      	ldr	r3, [r3, #12]
 8001c40:	429a      	cmp	r2, r3
 8001c42:	d305      	bcc.n	8001c50 <Schedule+0x110>
 8001c44:	68fb      	ldr	r3, [r7, #12]
 8001c46:	68db      	ldr	r3, [r3, #12]
 8001c48:	681a      	ldr	r2, [r3, #0]
 8001c4a:	4b15      	ldr	r3, [pc, #84]	; (8001ca0 <Schedule+0x160>)
 8001c4c:	429a      	cmp	r2, r3
 8001c4e:	d004      	beq.n	8001c5a <Schedule+0x11a>
 8001c50:	68fb      	ldr	r3, [r7, #12]
 8001c52:	799b      	ldrb	r3, [r3, #6]
 8001c54:	4618      	mov	r0, r3
 8001c56:	f002 fb85 	bl	8004364 <CoStkOverflowHook>
 8001c5a:	f001 fc45 	bl	80034e8 <SwitchContext>
 8001c5e:	e00a      	b.n	8001c76 <Schedule+0x136>
 8001c60:	bf00      	nop
 8001c62:	e008      	b.n	8001c76 <Schedule+0x136>
 8001c64:	bf00      	nop
 8001c66:	e006      	b.n	8001c76 <Schedule+0x136>
 8001c68:	bf00      	nop
 8001c6a:	e004      	b.n	8001c76 <Schedule+0x136>
 8001c6c:	bf00      	nop
 8001c6e:	e002      	b.n	8001c76 <Schedule+0x136>
 8001c70:	bf00      	nop
 8001c72:	e000      	b.n	8001c76 <Schedule+0x136>
 8001c74:	bf00      	nop
 8001c76:	f107 0710 	add.w	r7, r7, #16
 8001c7a:	46bd      	mov	sp, r7
 8001c7c:	bd80      	pop	{r7, pc}
 8001c7e:	bf00      	nop
 8001c80:	20000398 	.word	0x20000398
 8001c84:	20000390 	.word	0x20000390
 8001c88:	20000394 	.word	0x20000394
 8001c8c:	200001e5 	.word	0x200001e5
 8001c90:	200001e4 	.word	0x200001e4
 8001c94:	200001e6 	.word	0x200001e6
 8001c98:	200003a0 	.word	0x200003a0
 8001c9c:	20000558 	.word	0x20000558
 8001ca0:	5a5aa5a5 	.word	0x5a5aa5a5

08001ca4 <AssignTCB>:
 8001ca4:	b580      	push	{r7, lr}
 8001ca6:	b082      	sub	sp, #8
 8001ca8:	af00      	add	r7, sp, #0
 8001caa:	4b10      	ldr	r3, [pc, #64]	; (8001cec <AssignTCB+0x48>)
 8001cac:	781b      	ldrb	r3, [r3, #0]
 8001cae:	b2db      	uxtb	r3, r3
 8001cb0:	f103 0301 	add.w	r3, r3, #1
 8001cb4:	b2da      	uxtb	r2, r3
 8001cb6:	4b0d      	ldr	r3, [pc, #52]	; (8001cec <AssignTCB+0x48>)
 8001cb8:	701a      	strb	r2, [r3, #0]
 8001cba:	4b0d      	ldr	r3, [pc, #52]	; (8001cf0 <AssignTCB+0x4c>)
 8001cbc:	681b      	ldr	r3, [r3, #0]
 8001cbe:	2b00      	cmp	r3, #0
 8001cc0:	d104      	bne.n	8001ccc <AssignTCB+0x28>
 8001cc2:	f7fe fa85 	bl	80001d0 <OsSchedUnlock>
 8001cc6:	f04f 0300 	mov.w	r3, #0
 8001cca:	e00a      	b.n	8001ce2 <AssignTCB+0x3e>
 8001ccc:	4b08      	ldr	r3, [pc, #32]	; (8001cf0 <AssignTCB+0x4c>)
 8001cce:	681b      	ldr	r3, [r3, #0]
 8001cd0:	607b      	str	r3, [r7, #4]
 8001cd2:	4b07      	ldr	r3, [pc, #28]	; (8001cf0 <AssignTCB+0x4c>)
 8001cd4:	681b      	ldr	r3, [r3, #0]
 8001cd6:	6a5a      	ldr	r2, [r3, #36]	; 0x24
 8001cd8:	4b05      	ldr	r3, [pc, #20]	; (8001cf0 <AssignTCB+0x4c>)
 8001cda:	601a      	str	r2, [r3, #0]
 8001cdc:	f7fe fa78 	bl	80001d0 <OsSchedUnlock>
 8001ce0:	687b      	ldr	r3, [r7, #4]
 8001ce2:	4618      	mov	r0, r3
 8001ce4:	f107 0708 	add.w	r7, r7, #8
 8001ce8:	46bd      	mov	sp, r7
 8001cea:	bd80      	pop	{r7, pc}
 8001cec:	200001e5 	.word	0x200001e5
 8001cf0:	2000038c 	.word	0x2000038c

08001cf4 <CreateTask>:
 8001cf4:	b580      	push	{r7, lr}
 8001cf6:	b088      	sub	sp, #32
 8001cf8:	af00      	add	r7, sp, #0
 8001cfa:	60f8      	str	r0, [r7, #12]
 8001cfc:	60b9      	str	r1, [r7, #8]
 8001cfe:	607a      	str	r2, [r7, #4]
 8001d00:	603b      	str	r3, [r7, #0]
 8001d02:	687a      	ldr	r2, [r7, #4]
 8001d04:	4b4a      	ldr	r3, [pc, #296]	; (8001e30 <CreateTask+0x13c>)
 8001d06:	ea02 0303 	and.w	r3, r2, r3
 8001d0a:	ea4f 2313 	mov.w	r3, r3, lsr #8
 8001d0e:	83bb      	strh	r3, [r7, #28]
 8001d10:	687b      	ldr	r3, [r7, #4]
 8001d12:	76fb      	strb	r3, [r7, #27]
 8001d14:	68fb      	ldr	r3, [r7, #12]
 8001d16:	2b00      	cmp	r3, #0
 8001d18:	d102      	bne.n	8001d20 <CreateTask+0x2c>
 8001d1a:	f04f 03ff 	mov.w	r3, #255	; 0xff
 8001d1e:	e082      	b.n	8001e26 <CreateTask+0x132>
 8001d20:	683b      	ldr	r3, [r7, #0]
 8001d22:	2b00      	cmp	r3, #0
 8001d24:	d102      	bne.n	8001d2c <CreateTask+0x38>
 8001d26:	f04f 03ff 	mov.w	r3, #255	; 0xff
 8001d2a:	e07c      	b.n	8001e26 <CreateTask+0x132>
 8001d2c:	7efb      	ldrb	r3, [r7, #27]
 8001d2e:	2b40      	cmp	r3, #64	; 0x40
 8001d30:	d902      	bls.n	8001d38 <CreateTask+0x44>
 8001d32:	f04f 03ff 	mov.w	r3, #255	; 0xff
 8001d36:	e076      	b.n	8001e26 <CreateTask+0x132>
 8001d38:	8bbb      	ldrh	r3, [r7, #28]
 8001d3a:	2b13      	cmp	r3, #19
 8001d3c:	d802      	bhi.n	8001d44 <CreateTask+0x50>
 8001d3e:	f04f 03ff 	mov.w	r3, #255	; 0xff
 8001d42:	e070      	b.n	8001e26 <CreateTask+0x132>
 8001d44:	68f8      	ldr	r0, [r7, #12]
 8001d46:	68b9      	ldr	r1, [r7, #8]
 8001d48:	683a      	ldr	r2, [r7, #0]
 8001d4a:	f002 f877 	bl	8003e3c <InitTaskContext>
 8001d4e:	6178      	str	r0, [r7, #20]
 8001d50:	f7ff ffa8 	bl	8001ca4 <AssignTCB>
 8001d54:	6138      	str	r0, [r7, #16]
 8001d56:	693b      	ldr	r3, [r7, #16]
 8001d58:	2b00      	cmp	r3, #0
 8001d5a:	d102      	bne.n	8001d62 <CreateTask+0x6e>
 8001d5c:	f04f 03ff 	mov.w	r3, #255	; 0xff
 8001d60:	e061      	b.n	8001e26 <CreateTask+0x132>
 8001d62:	693b      	ldr	r3, [r7, #16]
 8001d64:	697a      	ldr	r2, [r7, #20]
 8001d66:	601a      	str	r2, [r3, #0]
 8001d68:	693b      	ldr	r3, [r7, #16]
 8001d6a:	7efa      	ldrb	r2, [r7, #27]
 8001d6c:	711a      	strb	r2, [r3, #4]
 8001d6e:	8bba      	ldrh	r2, [r7, #28]
 8001d70:	4613      	mov	r3, r2
 8001d72:	ea4f 7383 	mov.w	r3, r3, lsl #30
 8001d76:	1a9b      	subs	r3, r3, r2
 8001d78:	ea4f 0383 	mov.w	r3, r3, lsl #2
 8001d7c:	f103 0304 	add.w	r3, r3, #4
 8001d80:	683a      	ldr	r2, [r7, #0]
 8001d82:	18d2      	adds	r2, r2, r3
 8001d84:	693b      	ldr	r3, [r7, #16]
 8001d86:	60da      	str	r2, [r3, #12]
 8001d88:	693b      	ldr	r3, [r7, #16]
 8001d8a:	68db      	ldr	r3, [r3, #12]
 8001d8c:	4a29      	ldr	r2, [pc, #164]	; (8001e34 <CreateTask+0x140>)
 8001d8e:	601a      	str	r2, [r3, #0]
 8001d90:	693b      	ldr	r3, [r7, #16]
 8001d92:	f04f 32ff 	mov.w	r2, #4294967295
 8001d96:	621a      	str	r2, [r3, #32]
 8001d98:	693b      	ldr	r3, [r7, #16]
 8001d9a:	f04f 0200 	mov.w	r2, #0
 8001d9e:	625a      	str	r2, [r3, #36]	; 0x24
 8001da0:	693b      	ldr	r3, [r7, #16]
 8001da2:	f04f 0200 	mov.w	r2, #0
 8001da6:	629a      	str	r2, [r3, #40]	; 0x28
 8001da8:	687a      	ldr	r2, [r7, #4]
 8001daa:	4b23      	ldr	r3, [pc, #140]	; (8001e38 <CreateTask+0x144>)
 8001dac:	ea02 0303 	and.w	r3, r2, r3
 8001db0:	ea4f 5313 	mov.w	r3, r3, lsr #20
 8001db4:	83fb      	strh	r3, [r7, #30]
 8001db6:	8bfb      	ldrh	r3, [r7, #30]
 8001db8:	2b00      	cmp	r3, #0
 8001dba:	d102      	bne.n	8001dc2 <CreateTask+0xce>
 8001dbc:	f04f 030a 	mov.w	r3, #10
 8001dc0:	83fb      	strh	r3, [r7, #30]
 8001dc2:	693b      	ldr	r3, [r7, #16]
 8001dc4:	8bfa      	ldrh	r2, [r7, #30]
 8001dc6:	815a      	strh	r2, [r3, #10]
 8001dc8:	693b      	ldr	r3, [r7, #16]
 8001dca:	f04f 0200 	mov.w	r2, #0
 8001dce:	61da      	str	r2, [r3, #28]
 8001dd0:	693b      	ldr	r3, [r7, #16]
 8001dd2:	f04f 02ff 	mov.w	r2, #255	; 0xff
 8001dd6:	721a      	strb	r2, [r3, #8]
 8001dd8:	693b      	ldr	r3, [r7, #16]
 8001dda:	f04f 0200 	mov.w	r2, #0
 8001dde:	611a      	str	r2, [r3, #16]
 8001de0:	693b      	ldr	r3, [r7, #16]
 8001de2:	f04f 0200 	mov.w	r2, #0
 8001de6:	615a      	str	r2, [r3, #20]
 8001de8:	693b      	ldr	r3, [r7, #16]
 8001dea:	f04f 0200 	mov.w	r2, #0
 8001dee:	619a      	str	r2, [r3, #24]
 8001df0:	693b      	ldr	r3, [r7, #16]
 8001df2:	f04f 02ff 	mov.w	r2, #255	; 0xff
 8001df6:	71da      	strb	r2, [r3, #7]
 8001df8:	687b      	ldr	r3, [r7, #4]
 8001dfa:	2b00      	cmp	r3, #0
 8001dfc:	db0d      	blt.n	8001e1a <CreateTask+0x126>
 8001dfe:	4b0f      	ldr	r3, [pc, #60]	; (8001e3c <CreateTask+0x148>)
 8001e00:	781b      	ldrb	r3, [r3, #0]
 8001e02:	b2db      	uxtb	r3, r3
 8001e04:	f103 0301 	add.w	r3, r3, #1
 8001e08:	b2da      	uxtb	r2, r3
 8001e0a:	4b0c      	ldr	r3, [pc, #48]	; (8001e3c <CreateTask+0x148>)
 8001e0c:	701a      	strb	r2, [r3, #0]
 8001e0e:	6938      	ldr	r0, [r7, #16]
 8001e10:	f7ff fdc8 	bl	80019a4 <InsertToTCBRdyList>
 8001e14:	f7fe f9dc 	bl	80001d0 <OsSchedUnlock>
 8001e18:	e003      	b.n	8001e22 <CreateTask+0x12e>
 8001e1a:	693b      	ldr	r3, [r7, #16]
 8001e1c:	f04f 0202 	mov.w	r2, #2
 8001e20:	715a      	strb	r2, [r3, #5]
 8001e22:	693b      	ldr	r3, [r7, #16]
 8001e24:	799b      	ldrb	r3, [r3, #6]
 8001e26:	4618      	mov	r0, r3
 8001e28:	f107 0720 	add.w	r7, r7, #32
 8001e2c:	46bd      	mov	sp, r7
 8001e2e:	bd80      	pop	{r7, pc}
 8001e30:	000fff00 	.word	0x000fff00
 8001e34:	5a5aa5a5 	.word	0x5a5aa5a5
 8001e38:	7fff0000 	.word	0x7fff0000
 8001e3c:	200001e5 	.word	0x200001e5

08001e40 <InsertInSRQ>:
 8001e40:	b580      	push	{r7, lr}
 8001e42:	b084      	sub	sp, #16
 8001e44:	af00      	add	r7, sp, #0
 8001e46:	460b      	mov	r3, r1
 8001e48:	603a      	str	r2, [r7, #0]
 8001e4a:	4602      	mov	r2, r0
 8001e4c:	71fa      	strb	r2, [r7, #7]
 8001e4e:	71bb      	strb	r3, [r7, #6]
 8001e50:	f001 fb3e 	bl	80034d0 <IRQ_DISABLE_SAVE>
 8001e54:	4b1e      	ldr	r3, [pc, #120]	; (8001ed0 <InsertInSRQ+0x90>)
 8001e56:	781b      	ldrb	r3, [r3, #0]
 8001e58:	2b04      	cmp	r3, #4
 8001e5a:	d904      	bls.n	8001e66 <InsertInSRQ+0x26>
 8001e5c:	f001 fb32 	bl	80034c4 <IRQ_ENABLE_RESTORE>
 8001e60:	f04f 0300 	mov.w	r3, #0
 8001e64:	e02f      	b.n	8001ec6 <InsertInSRQ+0x86>
 8001e66:	4b1a      	ldr	r3, [pc, #104]	; (8001ed0 <InsertInSRQ+0x90>)
 8001e68:	4618      	mov	r0, r3
 8001e6a:	f001 faf9 	bl	8003460 <Inc8>
 8001e6e:	4603      	mov	r3, r0
 8001e70:	73fb      	strb	r3, [r7, #15]
 8001e72:	4b17      	ldr	r3, [pc, #92]	; (8001ed0 <InsertInSRQ+0x90>)
 8001e74:	785b      	ldrb	r3, [r3, #1]
 8001e76:	73bb      	strb	r3, [r7, #14]
 8001e78:	4b16      	ldr	r3, [pc, #88]	; (8001ed4 <InsertInSRQ+0x94>)
 8001e7a:	f04f 0201 	mov.w	r2, #1
 8001e7e:	701a      	strb	r2, [r3, #0]
 8001e80:	7bfa      	ldrb	r2, [r7, #15]
 8001e82:	7bbb      	ldrb	r3, [r7, #14]
 8001e84:	18d1      	adds	r1, r2, r3
 8001e86:	4b14      	ldr	r3, [pc, #80]	; (8001ed8 <InsertInSRQ+0x98>)
 8001e88:	fb83 2301 	smull	r2, r3, r3, r1
 8001e8c:	ea4f 0263 	mov.w	r2, r3, asr #1
 8001e90:	ea4f 73e1 	mov.w	r3, r1, asr #31
 8001e94:	1ad2      	subs	r2, r2, r3
 8001e96:	4613      	mov	r3, r2
 8001e98:	ea4f 0383 	mov.w	r3, r3, lsl #2
 8001e9c:	189b      	adds	r3, r3, r2
 8001e9e:	1aca      	subs	r2, r1, r3
 8001ea0:	4613      	mov	r3, r2
 8001ea2:	ea4f 02c3 	mov.w	r2, r3, lsl #3
 8001ea6:	4b0d      	ldr	r3, [pc, #52]	; (8001edc <InsertInSRQ+0x9c>)
 8001ea8:	18d3      	adds	r3, r2, r3
 8001eaa:	60bb      	str	r3, [r7, #8]
 8001eac:	68bb      	ldr	r3, [r7, #8]
 8001eae:	79fa      	ldrb	r2, [r7, #7]
 8001eb0:	701a      	strb	r2, [r3, #0]
 8001eb2:	68bb      	ldr	r3, [r7, #8]
 8001eb4:	79ba      	ldrb	r2, [r7, #6]
 8001eb6:	705a      	strb	r2, [r3, #1]
 8001eb8:	68bb      	ldr	r3, [r7, #8]
 8001eba:	683a      	ldr	r2, [r7, #0]
 8001ebc:	605a      	str	r2, [r3, #4]
 8001ebe:	f001 fb01 	bl	80034c4 <IRQ_ENABLE_RESTORE>
 8001ec2:	f04f 0301 	mov.w	r3, #1
 8001ec6:	4618      	mov	r0, r3
 8001ec8:	f107 0710 	add.w	r7, r7, #16
 8001ecc:	46bd      	mov	sp, r7
 8001ece:	bd80      	pop	{r7, pc}
 8001ed0:	200003a8 	.word	0x200003a8
 8001ed4:	200003d4 	.word	0x200003d4
 8001ed8:	66666667 	.word	0x66666667
 8001edc:	200003ac 	.word	0x200003ac

08001ee0 <RespondSRQ>:
 8001ee0:	b580      	push	{r7, lr}
 8001ee2:	b082      	sub	sp, #8
 8001ee4:	af00      	add	r7, sp, #0
 8001ee6:	4b40      	ldr	r3, [pc, #256]	; (8001fe8 <RespondSRQ+0x108>)
 8001ee8:	781b      	ldrb	r3, [r3, #0]
 8001eea:	2b01      	cmp	r3, #1
 8001eec:	d105      	bne.n	8001efa <RespondSRQ+0x1a>
 8001eee:	f001 f863 	bl	8002fb8 <TimeDispose>
 8001ef2:	4b3d      	ldr	r3, [pc, #244]	; (8001fe8 <RespondSRQ+0x108>)
 8001ef4:	f04f 0200 	mov.w	r2, #0
 8001ef8:	701a      	strb	r2, [r3, #0]
 8001efa:	4b3c      	ldr	r3, [pc, #240]	; (8001fec <RespondSRQ+0x10c>)
 8001efc:	781b      	ldrb	r3, [r3, #0]
 8001efe:	2b01      	cmp	r3, #1
 8001f00:	d15a      	bne.n	8001fb8 <RespondSRQ+0xd8>
 8001f02:	f7fe fdd3 	bl	8000aac <TmrDispose>
 8001f06:	4b39      	ldr	r3, [pc, #228]	; (8001fec <RespondSRQ+0x10c>)
 8001f08:	f04f 0200 	mov.w	r2, #0
 8001f0c:	701a      	strb	r2, [r3, #0]
 8001f0e:	e056      	b.n	8001fbe <RespondSRQ+0xde>
 8001f10:	f001 fade 	bl	80034d0 <IRQ_DISABLE_SAVE>
 8001f14:	4b36      	ldr	r3, [pc, #216]	; (8001ff0 <RespondSRQ+0x110>)
 8001f16:	785b      	ldrb	r3, [r3, #1]
 8001f18:	4a35      	ldr	r2, [pc, #212]	; (8001ff0 <RespondSRQ+0x110>)
 8001f1a:	ea4f 03c3 	mov.w	r3, r3, lsl #3
 8001f1e:	18d3      	adds	r3, r2, r3
 8001f20:	463a      	mov	r2, r7
 8001f22:	f103 0304 	add.w	r3, r3, #4
 8001f26:	e893 0003 	ldmia.w	r3, {r0, r1}
 8001f2a:	e882 0003 	stmia.w	r2, {r0, r1}
 8001f2e:	4b30      	ldr	r3, [pc, #192]	; (8001ff0 <RespondSRQ+0x110>)
 8001f30:	785b      	ldrb	r3, [r3, #1]
 8001f32:	f103 0101 	add.w	r1, r3, #1
 8001f36:	4b2f      	ldr	r3, [pc, #188]	; (8001ff4 <RespondSRQ+0x114>)
 8001f38:	fb83 2301 	smull	r2, r3, r3, r1
 8001f3c:	ea4f 0263 	mov.w	r2, r3, asr #1
 8001f40:	ea4f 73e1 	mov.w	r3, r1, asr #31
 8001f44:	1ad2      	subs	r2, r2, r3
 8001f46:	4613      	mov	r3, r2
 8001f48:	ea4f 0383 	mov.w	r3, r3, lsl #2
 8001f4c:	189b      	adds	r3, r3, r2
 8001f4e:	1aca      	subs	r2, r1, r3
 8001f50:	b2d2      	uxtb	r2, r2
 8001f52:	4b27      	ldr	r3, [pc, #156]	; (8001ff0 <RespondSRQ+0x110>)
 8001f54:	705a      	strb	r2, [r3, #1]
 8001f56:	4b26      	ldr	r3, [pc, #152]	; (8001ff0 <RespondSRQ+0x110>)
 8001f58:	781b      	ldrb	r3, [r3, #0]
 8001f5a:	f103 33ff 	add.w	r3, r3, #4294967295
 8001f5e:	b2da      	uxtb	r2, r3
 8001f60:	4b23      	ldr	r3, [pc, #140]	; (8001ff0 <RespondSRQ+0x110>)
 8001f62:	701a      	strb	r2, [r3, #0]
 8001f64:	f001 faae 	bl	80034c4 <IRQ_ENABLE_RESTORE>
 8001f68:	783b      	ldrb	r3, [r7, #0]
 8001f6a:	f103 33ff 	add.w	r3, r3, #4294967295
 8001f6e:	2b03      	cmp	r3, #3
 8001f70:	d824      	bhi.n	8001fbc <RespondSRQ+0xdc>
 8001f72:	a201      	add	r2, pc, #4	; (adr r2, 8001f78 <RespondSRQ+0x98>)
 8001f74:	f852 f023 	ldr.w	pc, [r2, r3, lsl #2]
 8001f78:	08001f89 	.word	0x08001f89
 8001f7c:	08001f93 	.word	0x08001f93
 8001f80:	08001fa1 	.word	0x08001fa1
 8001f84:	08001fab 	.word	0x08001fab
 8001f88:	787b      	ldrb	r3, [r7, #1]
 8001f8a:	4618      	mov	r0, r3
 8001f8c:	f002 f858 	bl	8004040 <CoPostSem>
 8001f90:	e015      	b.n	8001fbe <RespondSRQ+0xde>
 8001f92:	787a      	ldrb	r2, [r7, #1]
 8001f94:	687b      	ldr	r3, [r7, #4]
 8001f96:	4610      	mov	r0, r2
 8001f98:	4619      	mov	r1, r3
 8001f9a:	f000 fdf7 	bl	8002b8c <CoPostMail>
 8001f9e:	e00e      	b.n	8001fbe <RespondSRQ+0xde>
 8001fa0:	787b      	ldrb	r3, [r7, #1]
 8001fa2:	4618      	mov	r0, r3
 8001fa4:	f001 fde2 	bl	8003b6c <CoSetFlag>
 8001fa8:	e009      	b.n	8001fbe <RespondSRQ+0xde>
 8001faa:	787a      	ldrb	r2, [r7, #1]
 8001fac:	687b      	ldr	r3, [r7, #4]
 8001fae:	4610      	mov	r0, r2
 8001fb0:	4619      	mov	r1, r3
 8001fb2:	f001 fc1b 	bl	80037ec <CoPostQueueMail>
 8001fb6:	e002      	b.n	8001fbe <RespondSRQ+0xde>
 8001fb8:	bf00      	nop
 8001fba:	e000      	b.n	8001fbe <RespondSRQ+0xde>
 8001fbc:	bf00      	nop
 8001fbe:	4b0c      	ldr	r3, [pc, #48]	; (8001ff0 <RespondSRQ+0x110>)
 8001fc0:	781b      	ldrb	r3, [r3, #0]
 8001fc2:	2b00      	cmp	r3, #0
 8001fc4:	d1a4      	bne.n	8001f10 <RespondSRQ+0x30>
 8001fc6:	f001 fa83 	bl	80034d0 <IRQ_DISABLE_SAVE>
 8001fca:	4b09      	ldr	r3, [pc, #36]	; (8001ff0 <RespondSRQ+0x110>)
 8001fcc:	781b      	ldrb	r3, [r3, #0]
 8001fce:	2b00      	cmp	r3, #0
 8001fd0:	d103      	bne.n	8001fda <RespondSRQ+0xfa>
 8001fd2:	4b09      	ldr	r3, [pc, #36]	; (8001ff8 <RespondSRQ+0x118>)
 8001fd4:	f04f 0200 	mov.w	r2, #0
 8001fd8:	701a      	strb	r2, [r3, #0]
 8001fda:	f001 fa73 	bl	80034c4 <IRQ_ENABLE_RESTORE>
 8001fde:	f107 0708 	add.w	r7, r7, #8
 8001fe2:	46bd      	mov	sp, r7
 8001fe4:	bd80      	pop	{r7, pc}
 8001fe6:	bf00      	nop
 8001fe8:	200003d5 	.word	0x200003d5
 8001fec:	200003d6 	.word	0x200003d6
 8001ff0:	200003a8 	.word	0x200003a8
 8001ff4:	66666667 	.word	0x66666667
 8001ff8:	200003d4 	.word	0x200003d4

08001ffc <USART1_IRQHandler>:
 8001ffc:	b580      	push	{r7, lr}
 8001ffe:	b082      	sub	sp, #8
 8002000:	af00      	add	r7, sp, #0
 8002002:	f7fe f8b5 	bl	8000170 <CoEnterISR>
 8002006:	4b13      	ldr	r3, [pc, #76]	; (8002054 <USART1_IRQHandler+0x58>)
 8002008:	881b      	ldrh	r3, [r3, #0]
 800200a:	b29b      	uxth	r3, r3
 800200c:	f003 0320 	and.w	r3, r3, #32
 8002010:	2b00      	cmp	r3, #0
 8002012:	d018      	beq.n	8002046 <USART1_IRQHandler+0x4a>
 8002014:	4b0f      	ldr	r3, [pc, #60]	; (8002054 <USART1_IRQHandler+0x58>)
 8002016:	889b      	ldrh	r3, [r3, #4]
 8002018:	b29b      	uxth	r3, r3
 800201a:	71fb      	strb	r3, [r7, #7]
 800201c:	79fb      	ldrb	r3, [r7, #7]
 800201e:	480e      	ldr	r0, [pc, #56]	; (8002058 <USART1_IRQHandler+0x5c>)
 8002020:	4619      	mov	r1, r3
 8002022:	f000 fe51 	bl	8002cc8 <bufferAddToEnd>
 8002026:	4b0d      	ldr	r3, [pc, #52]	; (800205c <USART1_IRQHandler+0x60>)
 8002028:	781b      	ldrb	r3, [r3, #0]
 800202a:	4618      	mov	r0, r3
 800202c:	f001 fe2a 	bl	8003c84 <isr_SetFlag>
 8002030:	4603      	mov	r3, r0
 8002032:	71bb      	strb	r3, [r7, #6]
 8002034:	79bb      	ldrb	r3, [r7, #6]
 8002036:	2b00      	cmp	r3, #0
 8002038:	d005      	beq.n	8002046 <USART1_IRQHandler+0x4a>
 800203a:	79bb      	ldrb	r3, [r7, #6]
 800203c:	2b12      	cmp	r3, #18
 800203e:	d102      	bne.n	8002046 <USART1_IRQHandler+0x4a>
 8002040:	4807      	ldr	r0, [pc, #28]	; (8002060 <USART1_IRQHandler+0x64>)
 8002042:	f000 fd01 	bl	8002a48 <puts>
 8002046:	f7fe f89b 	bl	8000180 <CoExitISR>
 800204a:	f107 0708 	add.w	r7, r7, #8
 800204e:	46bd      	mov	sp, r7
 8002050:	bd80      	pop	{r7, pc}
 8002052:	bf00      	nop
 8002054:	40013800 	.word	0x40013800
 8002058:	20000be8 	.word	0x20000be8
 800205c:	20000704 	.word	0x20000704
 8002060:	08004518 	.word	0x08004518

08002064 <pchar>:
 8002064:	b480      	push	{r7}
 8002066:	b083      	sub	sp, #12
 8002068:	af00      	add	r7, sp, #0
 800206a:	4603      	mov	r3, r0
 800206c:	71fb      	strb	r3, [r7, #7]
 800206e:	4b08      	ldr	r3, [pc, #32]	; (8002090 <pchar+0x2c>)
 8002070:	79fa      	ldrb	r2, [r7, #7]
 8002072:	b292      	uxth	r2, r2
 8002074:	809a      	strh	r2, [r3, #4]
 8002076:	bf00      	nop
 8002078:	4b05      	ldr	r3, [pc, #20]	; (8002090 <pchar+0x2c>)
 800207a:	881b      	ldrh	r3, [r3, #0]
 800207c:	b29b      	uxth	r3, r3
 800207e:	f003 0380 	and.w	r3, r3, #128	; 0x80
 8002082:	2b00      	cmp	r3, #0
 8002084:	d0f8      	beq.n	8002078 <pchar+0x14>
 8002086:	f107 070c 	add.w	r7, r7, #12
 800208a:	46bd      	mov	sp, r7
 800208c:	bc80      	pop	{r7}
 800208e:	4770      	bx	lr
 8002090:	40004400 	.word	0x40004400

08002094 <initSerial>:
 8002094:	b580      	push	{r7, lr}
 8002096:	af00      	add	r7, sp, #0
 8002098:	480e      	ldr	r0, [pc, #56]	; (80020d4 <initSerial+0x40>)
 800209a:	490f      	ldr	r1, [pc, #60]	; (80020d8 <initSerial+0x44>)
 800209c:	f04f 020a 	mov.w	r2, #10
 80020a0:	f000 fdbc 	bl	8002c1c <bufferInit>
 80020a4:	4b0d      	ldr	r3, [pc, #52]	; (80020dc <initSerial+0x48>)
 80020a6:	681b      	ldr	r3, [r3, #0]
 80020a8:	681b      	ldr	r3, [r3, #0]
 80020aa:	f44f 4061 	mov.w	r0, #57600	; 0xe100
 80020ae:	4798      	blx	r3
 80020b0:	4b0b      	ldr	r3, [pc, #44]	; (80020e0 <initSerial+0x4c>)
 80020b2:	681b      	ldr	r3, [r3, #0]
 80020b4:	681b      	ldr	r3, [r3, #0]
 80020b6:	f44f 30e1 	mov.w	r0, #115200	; 0x1c200
 80020ba:	4798      	blx	r3
 80020bc:	4b07      	ldr	r3, [pc, #28]	; (80020dc <initSerial+0x48>)
 80020be:	681b      	ldr	r3, [r3, #0]
 80020c0:	68db      	ldr	r3, [r3, #12]
 80020c2:	f04f 0004 	mov.w	r0, #4
 80020c6:	f04f 0100 	mov.w	r1, #0
 80020ca:	f04f 0200 	mov.w	r2, #0
 80020ce:	4798      	blx	r3
 80020d0:	bd80      	pop	{r7, pc}
 80020d2:	bf00      	nop
 80020d4:	20000be8 	.word	0x20000be8
 80020d8:	20000898 	.word	0x20000898
 80020dc:	20000000 	.word	0x20000000
 80020e0:	20000004 	.word	0x20000004

080020e4 <task1>:
 80020e4:	b580      	push	{r7, lr}
 80020e6:	b084      	sub	sp, #16
 80020e8:	af00      	add	r7, sp, #0
 80020ea:	6078      	str	r0, [r7, #4]
 80020ec:	f04f 0000 	mov.w	r0, #0
 80020f0:	f04f 0100 	mov.w	r1, #0
 80020f4:	f001 fbdc 	bl	80038b0 <CoCreateFlag>
 80020f8:	4603      	mov	r3, r0
 80020fa:	461a      	mov	r2, r3
 80020fc:	4b47      	ldr	r3, [pc, #284]	; (800221c <task1+0x138>)
 80020fe:	701a      	strb	r2, [r3, #0]
 8002100:	4b46      	ldr	r3, [pc, #280]	; (800221c <task1+0x138>)
 8002102:	781b      	ldrb	r3, [r3, #0]
 8002104:	2b00      	cmp	r3, #0
 8002106:	d007      	beq.n	8002118 <task1+0x34>
 8002108:	4b44      	ldr	r3, [pc, #272]	; (800221c <task1+0x138>)
 800210a:	781b      	ldrb	r3, [r3, #0]
 800210c:	2bff      	cmp	r3, #255	; 0xff
 800210e:	d109      	bne.n	8002124 <task1+0x40>
 8002110:	4843      	ldr	r0, [pc, #268]	; (8002220 <task1+0x13c>)
 8002112:	f000 fc99 	bl	8002a48 <puts>
 8002116:	e005      	b.n	8002124 <task1+0x40>
 8002118:	4b40      	ldr	r3, [pc, #256]	; (800221c <task1+0x138>)
 800211a:	781b      	ldrb	r3, [r3, #0]
 800211c:	4841      	ldr	r0, [pc, #260]	; (8002224 <task1+0x140>)
 800211e:	4619      	mov	r1, r3
 8002120:	f000 fc7c 	bl	8002a1c <printf>
 8002124:	4840      	ldr	r0, [pc, #256]	; (8002228 <task1+0x144>)
 8002126:	f04f 0108 	mov.w	r1, #8
 800212a:	f04f 0201 	mov.w	r2, #1
 800212e:	f001 fa03 	bl	8003538 <CoCreateQueue>
 8002132:	4603      	mov	r3, r0
 8002134:	461a      	mov	r2, r3
 8002136:	4b3d      	ldr	r3, [pc, #244]	; (800222c <task1+0x148>)
 8002138:	701a      	strb	r2, [r3, #0]
 800213a:	4b3c      	ldr	r3, [pc, #240]	; (800222c <task1+0x148>)
 800213c:	781b      	ldrb	r3, [r3, #0]
 800213e:	2bff      	cmp	r3, #255	; 0xff
 8002140:	d103      	bne.n	800214a <task1+0x66>
 8002142:	483b      	ldr	r0, [pc, #236]	; (8002230 <task1+0x14c>)
 8002144:	f000 fc80 	bl	8002a48 <puts>
 8002148:	e007      	b.n	800215a <task1+0x76>
 800214a:	4b38      	ldr	r3, [pc, #224]	; (800222c <task1+0x148>)
 800214c:	781b      	ldrb	r3, [r3, #0]
 800214e:	4839      	ldr	r0, [pc, #228]	; (8002234 <task1+0x150>)
 8002150:	4619      	mov	r1, r3
 8002152:	f000 fc63 	bl	8002a1c <printf>
 8002156:	e000      	b.n	800215a <task1+0x76>
 8002158:	bf00      	nop
 800215a:	4b37      	ldr	r3, [pc, #220]	; (8002238 <task1+0x154>)
 800215c:	689b      	ldr	r3, [r3, #8]
 800215e:	4a37      	ldr	r2, [pc, #220]	; (800223c <task1+0x158>)
 8002160:	8812      	ldrh	r2, [r2, #0]
 8002162:	4610      	mov	r0, r2
 8002164:	f04f 0101 	mov.w	r1, #1
 8002168:	4798      	blx	r3
 800216a:	4b2c      	ldr	r3, [pc, #176]	; (800221c <task1+0x138>)
 800216c:	781b      	ldrb	r3, [r3, #0]
 800216e:	4618      	mov	r0, r3
 8002170:	f04f 0100 	mov.w	r1, #0
 8002174:	f001 fbee 	bl	8003954 <CoWaitForSingleFlag>
 8002178:	4603      	mov	r3, r0
 800217a:	73fb      	strb	r3, [r7, #15]
 800217c:	4b2e      	ldr	r3, [pc, #184]	; (8002238 <task1+0x154>)
 800217e:	689b      	ldr	r3, [r3, #8]
 8002180:	4a2e      	ldr	r2, [pc, #184]	; (800223c <task1+0x158>)
 8002182:	8812      	ldrh	r2, [r2, #0]
 8002184:	4610      	mov	r0, r2
 8002186:	f04f 0100 	mov.w	r1, #0
 800218a:	4798      	blx	r3
 800218c:	7bfb      	ldrb	r3, [r7, #15]
 800218e:	2b00      	cmp	r3, #0
 8002190:	d014      	beq.n	80021bc <task1+0xd8>
 8002192:	7bfb      	ldrb	r3, [r7, #15]
 8002194:	2b01      	cmp	r3, #1
 8002196:	d103      	bne.n	80021a0 <task1+0xbc>
 8002198:	4829      	ldr	r0, [pc, #164]	; (8002240 <task1+0x15c>)
 800219a:	f000 fc55 	bl	8002a48 <puts>
 800219e:	e7dc      	b.n	800215a <task1+0x76>
 80021a0:	7bfb      	ldrb	r3, [r7, #15]
 80021a2:	2b03      	cmp	r3, #3
 80021a4:	d103      	bne.n	80021ae <task1+0xca>
 80021a6:	4827      	ldr	r0, [pc, #156]	; (8002244 <task1+0x160>)
 80021a8:	f000 fc4e 	bl	8002a48 <puts>
 80021ac:	e7d5      	b.n	800215a <task1+0x76>
 80021ae:	7bfb      	ldrb	r3, [r7, #15]
 80021b0:	2b05      	cmp	r3, #5
 80021b2:	d1d1      	bne.n	8002158 <task1+0x74>
 80021b4:	4824      	ldr	r0, [pc, #144]	; (8002248 <task1+0x164>)
 80021b6:	f000 fc47 	bl	8002a48 <puts>
 80021ba:	e7ce      	b.n	800215a <task1+0x76>
 80021bc:	4823      	ldr	r0, [pc, #140]	; (800224c <task1+0x168>)
 80021be:	f000 fdb9 	bl	8002d34 <bufferIsNotFull>
 80021c2:	4603      	mov	r3, r0
 80021c4:	2b00      	cmp	r3, #0
 80021c6:	d103      	bne.n	80021d0 <task1+0xec>
 80021c8:	4821      	ldr	r0, [pc, #132]	; (8002250 <task1+0x16c>)
 80021ca:	f000 fc27 	bl	8002a1c <printf>
 80021ce:	bf00      	nop
 80021d0:	481e      	ldr	r0, [pc, #120]	; (800224c <task1+0x168>)
 80021d2:	f000 fd41 	bl	8002c58 <bufferGetFromFront>
 80021d6:	4603      	mov	r3, r0
 80021d8:	73bb      	strb	r3, [r7, #14]
 80021da:	4b10      	ldr	r3, [pc, #64]	; (800221c <task1+0x138>)
 80021dc:	781b      	ldrb	r3, [r3, #0]
 80021de:	4618      	mov	r0, r3
 80021e0:	f001 fc92 	bl	8003b08 <CoClearFlag>
 80021e4:	4603      	mov	r3, r0
 80021e6:	73fb      	strb	r3, [r7, #15]
 80021e8:	7bfb      	ldrb	r3, [r7, #15]
 80021ea:	2b00      	cmp	r3, #0
 80021ec:	d005      	beq.n	80021fa <task1+0x116>
 80021ee:	7bfb      	ldrb	r3, [r7, #15]
 80021f0:	2b01      	cmp	r3, #1
 80021f2:	d102      	bne.n	80021fa <task1+0x116>
 80021f4:	4817      	ldr	r0, [pc, #92]	; (8002254 <task1+0x170>)
 80021f6:	f000 fc27 	bl	8002a48 <puts>
 80021fa:	7bbb      	ldrb	r3, [r7, #14]
 80021fc:	4816      	ldr	r0, [pc, #88]	; (8002258 <task1+0x174>)
 80021fe:	4619      	mov	r1, r3
 8002200:	f000 fc0c 	bl	8002a1c <printf>
 8002204:	7bbb      	ldrb	r3, [r7, #14]
 8002206:	4618      	mov	r0, r3
 8002208:	f001 ff5e 	bl	80040c8 <Read_Data>
 800220c:	480f      	ldr	r0, [pc, #60]	; (800224c <task1+0x168>)
 800220e:	f000 fdad 	bl	8002d6c <bufferDataAvail>
 8002212:	4603      	mov	r3, r0
 8002214:	2b00      	cmp	r3, #0
 8002216:	d1db      	bne.n	80021d0 <task1+0xec>
 8002218:	e79f      	b.n	800215a <task1+0x76>
 800221a:	bf00      	nop
 800221c:	20000704 	.word	0x20000704
 8002220:	08004538 	.word	0x08004538
 8002224:	08004554 	.word	0x08004554
 8002228:	200008a4 	.word	0x200008a4
 800222c:	200008c4 	.word	0x200008c4
 8002230:	08004564 	.word	0x08004564
 8002234:	0800457c 	.word	0x0800457c
 8002238:	080044c0 	.word	0x080044c0
 800223c:	20000008 	.word	0x20000008
 8002240:	0800458c 	.word	0x0800458c
 8002244:	080045a0 	.word	0x080045a0
 8002248:	080045b4 	.word	0x080045b4
 800224c:	20000be8 	.word	0x20000be8
 8002250:	080045c0 	.word	0x080045c0
 8002254:	080045d0 	.word	0x080045d0
 8002258:	080045e4 	.word	0x080045e4

0800225c <task2>:
 800225c:	b580      	push	{r7, lr}
 800225e:	b082      	sub	sp, #8
 8002260:	af00      	add	r7, sp, #0
 8002262:	6078      	str	r0, [r7, #4]
 8002264:	4b0c      	ldr	r3, [pc, #48]	; (8002298 <task2+0x3c>)
 8002266:	689b      	ldr	r3, [r3, #8]
 8002268:	4a0c      	ldr	r2, [pc, #48]	; (800229c <task2+0x40>)
 800226a:	8812      	ldrh	r2, [r2, #0]
 800226c:	4610      	mov	r0, r2
 800226e:	f04f 0101 	mov.w	r1, #1
 8002272:	4798      	blx	r3
 8002274:	f04f 0064 	mov.w	r0, #100	; 0x64
 8002278:	f000 fe60 	bl	8002f3c <CoTickDelay>
 800227c:	4b06      	ldr	r3, [pc, #24]	; (8002298 <task2+0x3c>)
 800227e:	689b      	ldr	r3, [r3, #8]
 8002280:	4a06      	ldr	r2, [pc, #24]	; (800229c <task2+0x40>)
 8002282:	8812      	ldrh	r2, [r2, #0]
 8002284:	4610      	mov	r0, r2
 8002286:	f04f 0100 	mov.w	r1, #0
 800228a:	4798      	blx	r3
 800228c:	f04f 0064 	mov.w	r0, #100	; 0x64
 8002290:	f000 fe54 	bl	8002f3c <CoTickDelay>
 8002294:	e7e6      	b.n	8002264 <task2+0x8>
 8002296:	bf00      	nop
 8002298:	080044c0 	.word	0x080044c0
 800229c:	2000000a 	.word	0x2000000a

080022a0 <task3>:
 80022a0:	b580      	push	{r7, lr}
 80022a2:	b082      	sub	sp, #8
 80022a4:	af00      	add	r7, sp, #0
 80022a6:	6078      	str	r0, [r7, #4]
 80022a8:	f04f 00c8 	mov.w	r0, #200	; 0xc8
 80022ac:	f000 fe46 	bl	8002f3c <CoTickDelay>
 80022b0:	e7fa      	b.n	80022a8 <task3+0x8>
 80022b2:	bf00      	nop

080022b4 <task4>:
 80022b4:	b580      	push	{r7, lr}
 80022b6:	b082      	sub	sp, #8
 80022b8:	af00      	add	r7, sp, #0
 80022ba:	6078      	str	r0, [r7, #4]
 80022bc:	f001 ffbe 	bl	800423c <wsnPacketDecoding>
 80022c0:	e7fc      	b.n	80022bc <task4+0x8>
 80022c2:	bf00      	nop

080022c4 <main>:
 80022c4:	b580      	push	{r7, lr}
 80022c6:	af00      	add	r7, sp, #0
 80022c8:	f7ff fee4 	bl	8002094 <initSerial>
 80022cc:	4b20      	ldr	r3, [pc, #128]	; (8002350 <main+0x8c>)
 80022ce:	681b      	ldr	r3, [r3, #0]
 80022d0:	4a20      	ldr	r2, [pc, #128]	; (8002354 <main+0x90>)
 80022d2:	8812      	ldrh	r2, [r2, #0]
 80022d4:	4610      	mov	r0, r2
 80022d6:	4798      	blx	r3
 80022d8:	4b1d      	ldr	r3, [pc, #116]	; (8002350 <main+0x8c>)
 80022da:	681b      	ldr	r3, [r3, #0]
 80022dc:	4a1e      	ldr	r2, [pc, #120]	; (8002358 <main+0x94>)
 80022de:	8812      	ldrh	r2, [r2, #0]
 80022e0:	4610      	mov	r0, r2
 80022e2:	4798      	blx	r3
 80022e4:	4b1a      	ldr	r3, [pc, #104]	; (8002350 <main+0x8c>)
 80022e6:	685b      	ldr	r3, [r3, #4]
 80022e8:	4a1a      	ldr	r2, [pc, #104]	; (8002354 <main+0x90>)
 80022ea:	8812      	ldrh	r2, [r2, #0]
 80022ec:	4610      	mov	r0, r2
 80022ee:	f04f 0101 	mov.w	r1, #1
 80022f2:	4798      	blx	r3
 80022f4:	4b16      	ldr	r3, [pc, #88]	; (8002350 <main+0x8c>)
 80022f6:	685b      	ldr	r3, [r3, #4]
 80022f8:	4a17      	ldr	r2, [pc, #92]	; (8002358 <main+0x94>)
 80022fa:	8812      	ldrh	r2, [r2, #0]
 80022fc:	4610      	mov	r0, r2
 80022fe:	f04f 0101 	mov.w	r1, #1
 8002302:	4798      	blx	r3
 8002304:	f7fd ff8c 	bl	8000220 <CoInitOS>
 8002308:	4814      	ldr	r0, [pc, #80]	; (800235c <main+0x98>)
 800230a:	f04f 0100 	mov.w	r1, #0
 800230e:	f44f 42c8 	mov.w	r2, #25600	; 0x6400
 8002312:	4b13      	ldr	r3, [pc, #76]	; (8002360 <main+0x9c>)
 8002314:	f7ff fcee 	bl	8001cf4 <CreateTask>
 8002318:	4812      	ldr	r0, [pc, #72]	; (8002364 <main+0xa0>)
 800231a:	f04f 0100 	mov.w	r1, #0
 800231e:	f246 4201 	movw	r2, #25601	; 0x6401
 8002322:	4b11      	ldr	r3, [pc, #68]	; (8002368 <main+0xa4>)
 8002324:	f7ff fce6 	bl	8001cf4 <CreateTask>
 8002328:	4810      	ldr	r0, [pc, #64]	; (800236c <main+0xa8>)
 800232a:	f04f 0100 	mov.w	r1, #0
 800232e:	f246 4202 	movw	r2, #25602	; 0x6402
 8002332:	4b0f      	ldr	r3, [pc, #60]	; (8002370 <main+0xac>)
 8002334:	f7ff fcde 	bl	8001cf4 <CreateTask>
 8002338:	480e      	ldr	r0, [pc, #56]	; (8002374 <main+0xb0>)
 800233a:	f04f 0100 	mov.w	r1, #0
 800233e:	f246 4203 	movw	r2, #25603	; 0x6403
 8002342:	4b0d      	ldr	r3, [pc, #52]	; (8002378 <main+0xb4>)
 8002344:	f7ff fcd6 	bl	8001cf4 <CreateTask>
 8002348:	f7fd ffac 	bl	80002a4 <CoStartOS>
 800234c:	e7fe      	b.n	800234c <main+0x88>
 800234e:	bf00      	nop
 8002350:	080044c0 	.word	0x080044c0
 8002354:	20000008 	.word	0x20000008
 8002358:	2000000a 	.word	0x2000000a
 800235c:	080020e5 	.word	0x080020e5
 8002360:	20000700 	.word	0x20000700
 8002364:	0800225d 	.word	0x0800225d
 8002368:	20000a54 	.word	0x20000a54
 800236c:	080022a1 	.word	0x080022a1
 8002370:	20000be4 	.word	0x20000be4
 8002374:	080022b5 	.word	0x080022b5
 8002378:	20000894 	.word	0x20000894

0800237c <PrintChar>:
 800237c:	b580      	push	{r7, lr}
 800237e:	b082      	sub	sp, #8
 8002380:	af00      	add	r7, sp, #0
 8002382:	4603      	mov	r3, r0
 8002384:	71fb      	strb	r3, [r7, #7]
 8002386:	79fb      	ldrb	r3, [r7, #7]
 8002388:	4618      	mov	r0, r3
 800238a:	f7ff fe6b 	bl	8002064 <pchar>
 800238e:	f107 0708 	add.w	r7, r7, #8
 8002392:	46bd      	mov	sp, r7
 8002394:	bd80      	pop	{r7, pc}
 8002396:	bf00      	nop

08002398 <PutChar>:
 8002398:	b480      	push	{r7}
 800239a:	b083      	sub	sp, #12
 800239c:	af00      	add	r7, sp, #0
 800239e:	6078      	str	r0, [r7, #4]
 80023a0:	460b      	mov	r3, r1
 80023a2:	70fb      	strb	r3, [r7, #3]
 80023a4:	687b      	ldr	r3, [r7, #4]
 80023a6:	78fa      	ldrb	r2, [r7, #3]
 80023a8:	701a      	strb	r2, [r3, #0]
 80023aa:	f04f 0301 	mov.w	r3, #1
 80023ae:	4618      	mov	r0, r3
 80023b0:	f107 070c 	add.w	r7, r7, #12
 80023b4:	46bd      	mov	sp, r7
 80023b6:	bc80      	pop	{r7}
 80023b8:	4770      	bx	lr
 80023ba:	bf00      	nop

080023bc <PutString>:
 80023bc:	b480      	push	{r7}
 80023be:	b085      	sub	sp, #20
 80023c0:	af00      	add	r7, sp, #0
 80023c2:	6078      	str	r0, [r7, #4]
 80023c4:	6039      	str	r1, [r7, #0]
 80023c6:	f04f 0300 	mov.w	r3, #0
 80023ca:	60fb      	str	r3, [r7, #12]
 80023cc:	e00f      	b.n	80023ee <PutString+0x32>
 80023ce:	683b      	ldr	r3, [r7, #0]
 80023d0:	781a      	ldrb	r2, [r3, #0]
 80023d2:	687b      	ldr	r3, [r7, #4]
 80023d4:	701a      	strb	r2, [r3, #0]
 80023d6:	687b      	ldr	r3, [r7, #4]
 80023d8:	f103 0301 	add.w	r3, r3, #1
 80023dc:	607b      	str	r3, [r7, #4]
 80023de:	683b      	ldr	r3, [r7, #0]
 80023e0:	f103 0301 	add.w	r3, r3, #1
 80023e4:	603b      	str	r3, [r7, #0]
 80023e6:	68fb      	ldr	r3, [r7, #12]
 80023e8:	f103 0301 	add.w	r3, r3, #1
 80023ec:	60fb      	str	r3, [r7, #12]
 80023ee:	683b      	ldr	r3, [r7, #0]
 80023f0:	781b      	ldrb	r3, [r3, #0]
 80023f2:	2b00      	cmp	r3, #0
 80023f4:	d1eb      	bne.n	80023ce <PutString+0x12>
 80023f6:	68fb      	ldr	r3, [r7, #12]
 80023f8:	4618      	mov	r0, r3
 80023fa:	f107 0714 	add.w	r7, r7, #20
 80023fe:	46bd      	mov	sp, r7
 8002400:	bc80      	pop	{r7}
 8002402:	4770      	bx	lr

08002404 <PutUnsignedInt>:
 8002404:	b580      	push	{r7, lr}
 8002406:	b086      	sub	sp, #24
 8002408:	af00      	add	r7, sp, #0
 800240a:	60f8      	str	r0, [r7, #12]
 800240c:	607a      	str	r2, [r7, #4]
 800240e:	603b      	str	r3, [r7, #0]
 8002410:	460b      	mov	r3, r1
 8002412:	72fb      	strb	r3, [r7, #11]
 8002414:	f04f 0300 	mov.w	r3, #0
 8002418:	617b      	str	r3, [r7, #20]
 800241a:	687b      	ldr	r3, [r7, #4]
 800241c:	f103 33ff 	add.w	r3, r3, #4294967295
 8002420:	607b      	str	r3, [r7, #4]
 8002422:	683b      	ldr	r3, [r7, #0]
 8002424:	2b09      	cmp	r3, #9
 8002426:	d922      	bls.n	800246e <PutUnsignedInt+0x6a>
 8002428:	683a      	ldr	r2, [r7, #0]
 800242a:	4b22      	ldr	r3, [pc, #136]	; (80024b4 <PutUnsignedInt+0xb0>)
 800242c:	fba3 1302 	umull	r1, r3, r3, r2
 8002430:	ea4f 03d3 	mov.w	r3, r3, lsr #3
 8002434:	7afa      	ldrb	r2, [r7, #11]
 8002436:	68f8      	ldr	r0, [r7, #12]
 8002438:	4611      	mov	r1, r2
 800243a:	687a      	ldr	r2, [r7, #4]
 800243c:	f7ff ffe2 	bl	8002404 <PutUnsignedInt>
 8002440:	6178      	str	r0, [r7, #20]
 8002442:	697b      	ldr	r3, [r7, #20]
 8002444:	68fa      	ldr	r2, [r7, #12]
 8002446:	18d3      	adds	r3, r2, r3
 8002448:	60fb      	str	r3, [r7, #12]
 800244a:	e013      	b.n	8002474 <PutUnsignedInt+0x70>
 800244c:	7afb      	ldrb	r3, [r7, #11]
 800244e:	68f8      	ldr	r0, [r7, #12]
 8002450:	4619      	mov	r1, r3
 8002452:	f7ff ffa1 	bl	8002398 <PutChar>
 8002456:	68fb      	ldr	r3, [r7, #12]
 8002458:	f103 0301 	add.w	r3, r3, #1
 800245c:	60fb      	str	r3, [r7, #12]
 800245e:	697b      	ldr	r3, [r7, #20]
 8002460:	f103 0301 	add.w	r3, r3, #1
 8002464:	617b      	str	r3, [r7, #20]
 8002466:	687b      	ldr	r3, [r7, #4]
 8002468:	f103 33ff 	add.w	r3, r3, #4294967295
 800246c:	607b      	str	r3, [r7, #4]
 800246e:	687b      	ldr	r3, [r7, #4]
 8002470:	2b00      	cmp	r3, #0
 8002472:	dceb      	bgt.n	800244c <PutUnsignedInt+0x48>
 8002474:	6839      	ldr	r1, [r7, #0]
 8002476:	4b0f      	ldr	r3, [pc, #60]	; (80024b4 <PutUnsignedInt+0xb0>)
 8002478:	fba3 2301 	umull	r2, r3, r3, r1
 800247c:	ea4f 02d3 	mov.w	r2, r3, lsr #3
 8002480:	4613      	mov	r3, r2
 8002482:	ea4f 0383 	mov.w	r3, r3, lsl #2
 8002486:	189b      	adds	r3, r3, r2
 8002488:	ea4f 0343 	mov.w	r3, r3, lsl #1
 800248c:	1aca      	subs	r2, r1, r3
 800248e:	b2d3      	uxtb	r3, r2
 8002490:	f103 0330 	add.w	r3, r3, #48	; 0x30
 8002494:	b2db      	uxtb	r3, r3
 8002496:	68f8      	ldr	r0, [r7, #12]
 8002498:	4619      	mov	r1, r3
 800249a:	f7ff ff7d 	bl	8002398 <PutChar>
 800249e:	4603      	mov	r3, r0
 80024a0:	697a      	ldr	r2, [r7, #20]
 80024a2:	18d3      	adds	r3, r2, r3
 80024a4:	617b      	str	r3, [r7, #20]
 80024a6:	697b      	ldr	r3, [r7, #20]
 80024a8:	4618      	mov	r0, r3
 80024aa:	f107 0718 	add.w	r7, r7, #24
 80024ae:	46bd      	mov	sp, r7
 80024b0:	bd80      	pop	{r7, pc}
 80024b2:	bf00      	nop
 80024b4:	cccccccd 	.word	0xcccccccd

080024b8 <PutSignedInt>:
 80024b8:	b580      	push	{r7, lr}
 80024ba:	b086      	sub	sp, #24
 80024bc:	af00      	add	r7, sp, #0
 80024be:	60f8      	str	r0, [r7, #12]
 80024c0:	607a      	str	r2, [r7, #4]
 80024c2:	603b      	str	r3, [r7, #0]
 80024c4:	460b      	mov	r3, r1
 80024c6:	72fb      	strb	r3, [r7, #11]
 80024c8:	f04f 0300 	mov.w	r3, #0
 80024cc:	617b      	str	r3, [r7, #20]
 80024ce:	683b      	ldr	r3, [r7, #0]
 80024d0:	2b00      	cmp	r3, #0
 80024d2:	da04      	bge.n	80024de <PutSignedInt+0x26>
 80024d4:	683b      	ldr	r3, [r7, #0]
 80024d6:	f1c3 0300 	rsb	r3, r3, #0
 80024da:	613b      	str	r3, [r7, #16]
 80024dc:	e001      	b.n	80024e2 <PutSignedInt+0x2a>
 80024de:	683b      	ldr	r3, [r7, #0]
 80024e0:	613b      	str	r3, [r7, #16]
 80024e2:	687b      	ldr	r3, [r7, #4]
 80024e4:	f103 33ff 	add.w	r3, r3, #4294967295
 80024e8:	607b      	str	r3, [r7, #4]
 80024ea:	693b      	ldr	r3, [r7, #16]
 80024ec:	2b09      	cmp	r3, #9
 80024ee:	d924      	bls.n	800253a <PutSignedInt+0x82>
 80024f0:	683b      	ldr	r3, [r7, #0]
 80024f2:	2b00      	cmp	r3, #0
 80024f4:	da0f      	bge.n	8002516 <PutSignedInt+0x5e>
 80024f6:	693a      	ldr	r2, [r7, #16]
 80024f8:	4b35      	ldr	r3, [pc, #212]	; (80025d0 <PutSignedInt+0x118>)
 80024fa:	fba3 1302 	umull	r1, r3, r3, r2
 80024fe:	ea4f 03d3 	mov.w	r3, r3, lsr #3
 8002502:	f1c3 0300 	rsb	r3, r3, #0
 8002506:	7afa      	ldrb	r2, [r7, #11]
 8002508:	68f8      	ldr	r0, [r7, #12]
 800250a:	4611      	mov	r1, r2
 800250c:	687a      	ldr	r2, [r7, #4]
 800250e:	f7ff ffd3 	bl	80024b8 <PutSignedInt>
 8002512:	6178      	str	r0, [r7, #20]
 8002514:	e00c      	b.n	8002530 <PutSignedInt+0x78>
 8002516:	693a      	ldr	r2, [r7, #16]
 8002518:	4b2d      	ldr	r3, [pc, #180]	; (80025d0 <PutSignedInt+0x118>)
 800251a:	fba3 1302 	umull	r1, r3, r3, r2
 800251e:	ea4f 03d3 	mov.w	r3, r3, lsr #3
 8002522:	7afa      	ldrb	r2, [r7, #11]
 8002524:	68f8      	ldr	r0, [r7, #12]
 8002526:	4611      	mov	r1, r2
 8002528:	687a      	ldr	r2, [r7, #4]
 800252a:	f7ff ffc5 	bl	80024b8 <PutSignedInt>
 800252e:	6178      	str	r0, [r7, #20]
 8002530:	697b      	ldr	r3, [r7, #20]
 8002532:	68fa      	ldr	r2, [r7, #12]
 8002534:	18d3      	adds	r3, r2, r3
 8002536:	60fb      	str	r3, [r7, #12]
 8002538:	e02b      	b.n	8002592 <PutSignedInt+0xda>
 800253a:	683b      	ldr	r3, [r7, #0]
 800253c:	2b00      	cmp	r3, #0
 800253e:	da15      	bge.n	800256c <PutSignedInt+0xb4>
 8002540:	687b      	ldr	r3, [r7, #4]
 8002542:	f103 33ff 	add.w	r3, r3, #4294967295
 8002546:	607b      	str	r3, [r7, #4]
 8002548:	e010      	b.n	800256c <PutSignedInt+0xb4>
 800254a:	7afb      	ldrb	r3, [r7, #11]
 800254c:	68f8      	ldr	r0, [r7, #12]
 800254e:	4619      	mov	r1, r3
 8002550:	f7ff ff22 	bl	8002398 <PutChar>
 8002554:	68fb      	ldr	r3, [r7, #12]
 8002556:	f103 0301 	add.w	r3, r3, #1
 800255a:	60fb      	str	r3, [r7, #12]
 800255c:	697b      	ldr	r3, [r7, #20]
 800255e:	f103 0301 	add.w	r3, r3, #1
 8002562:	617b      	str	r3, [r7, #20]
 8002564:	687b      	ldr	r3, [r7, #4]
 8002566:	f103 33ff 	add.w	r3, r3, #4294967295
 800256a:	607b      	str	r3, [r7, #4]
 800256c:	687b      	ldr	r3, [r7, #4]
 800256e:	2b00      	cmp	r3, #0
 8002570:	dceb      	bgt.n	800254a <PutSignedInt+0x92>
 8002572:	683b      	ldr	r3, [r7, #0]
 8002574:	2b00      	cmp	r3, #0
 8002576:	da0c      	bge.n	8002592 <PutSignedInt+0xda>
 8002578:	68f8      	ldr	r0, [r7, #12]
 800257a:	f04f 012d 	mov.w	r1, #45	; 0x2d
 800257e:	f7ff ff0b 	bl	8002398 <PutChar>
 8002582:	4603      	mov	r3, r0
 8002584:	697a      	ldr	r2, [r7, #20]
 8002586:	18d3      	adds	r3, r2, r3
 8002588:	617b      	str	r3, [r7, #20]
 800258a:	68fb      	ldr	r3, [r7, #12]
 800258c:	f103 0301 	add.w	r3, r3, #1
 8002590:	60fb      	str	r3, [r7, #12]
 8002592:	6939      	ldr	r1, [r7, #16]
 8002594:	4b0e      	ldr	r3, [pc, #56]	; (80025d0 <PutSignedInt+0x118>)
 8002596:	fba3 2301 	umull	r2, r3, r3, r1
 800259a:	ea4f 02d3 	mov.w	r2, r3, lsr #3
 800259e:	4613      	mov	r3, r2
 80025a0:	ea4f 0383 	mov.w	r3, r3, lsl #2
 80025a4:	189b      	adds	r3, r3, r2
 80025a6:	ea4f 0343 	mov.w	r3, r3, lsl #1
 80025aa:	1aca      	subs	r2, r1, r3
 80025ac:	b2d3      	uxtb	r3, r2
 80025ae:	f103 0330 	add.w	r3, r3, #48	; 0x30
 80025b2:	b2db      	uxtb	r3, r3
 80025b4:	68f8      	ldr	r0, [r7, #12]
 80025b6:	4619      	mov	r1, r3
 80025b8:	f7ff feee 	bl	8002398 <PutChar>
 80025bc:	4603      	mov	r3, r0
 80025be:	697a      	ldr	r2, [r7, #20]
 80025c0:	18d3      	adds	r3, r2, r3
 80025c2:	617b      	str	r3, [r7, #20]
 80025c4:	697b      	ldr	r3, [r7, #20]
 80025c6:	4618      	mov	r0, r3
 80025c8:	f107 0718 	add.w	r7, r7, #24
 80025cc:	46bd      	mov	sp, r7
 80025ce:	bd80      	pop	{r7, pc}
 80025d0:	cccccccd 	.word	0xcccccccd

080025d4 <PutHexa>:
 80025d4:	b580      	push	{r7, lr}
 80025d6:	b088      	sub	sp, #32
 80025d8:	af02      	add	r7, sp, #8
 80025da:	60f8      	str	r0, [r7, #12]
 80025dc:	607a      	str	r2, [r7, #4]
 80025de:	460a      	mov	r2, r1
 80025e0:	72fa      	strb	r2, [r7, #11]
 80025e2:	70fb      	strb	r3, [r7, #3]
 80025e4:	f04f 0300 	mov.w	r3, #0
 80025e8:	617b      	str	r3, [r7, #20]
 80025ea:	687b      	ldr	r3, [r7, #4]
 80025ec:	f103 33ff 	add.w	r3, r3, #4294967295
 80025f0:	607b      	str	r3, [r7, #4]
 80025f2:	6a3b      	ldr	r3, [r7, #32]
 80025f4:	ea4f 1313 	mov.w	r3, r3, lsr #4
 80025f8:	2b00      	cmp	r3, #0
 80025fa:	d024      	beq.n	8002646 <PutHexa+0x72>
 80025fc:	6a3b      	ldr	r3, [r7, #32]
 80025fe:	ea4f 1113 	mov.w	r1, r3, lsr #4
 8002602:	7afa      	ldrb	r2, [r7, #11]
 8002604:	78fb      	ldrb	r3, [r7, #3]
 8002606:	9100      	str	r1, [sp, #0]
 8002608:	68f8      	ldr	r0, [r7, #12]
 800260a:	4611      	mov	r1, r2
 800260c:	687a      	ldr	r2, [r7, #4]
 800260e:	f7ff ffe1 	bl	80025d4 <PutHexa>
 8002612:	4603      	mov	r3, r0
 8002614:	697a      	ldr	r2, [r7, #20]
 8002616:	18d3      	adds	r3, r2, r3
 8002618:	617b      	str	r3, [r7, #20]
 800261a:	697b      	ldr	r3, [r7, #20]
 800261c:	68fa      	ldr	r2, [r7, #12]
 800261e:	18d3      	adds	r3, r2, r3
 8002620:	60fb      	str	r3, [r7, #12]
 8002622:	e013      	b.n	800264c <PutHexa+0x78>
 8002624:	7afb      	ldrb	r3, [r7, #11]
 8002626:	68f8      	ldr	r0, [r7, #12]
 8002628:	4619      	mov	r1, r3
 800262a:	f7ff feb5 	bl	8002398 <PutChar>
 800262e:	68fb      	ldr	r3, [r7, #12]
 8002630:	f103 0301 	add.w	r3, r3, #1
 8002634:	60fb      	str	r3, [r7, #12]
 8002636:	697b      	ldr	r3, [r7, #20]
 8002638:	f103 0301 	add.w	r3, r3, #1
 800263c:	617b      	str	r3, [r7, #20]
 800263e:	687b      	ldr	r3, [r7, #4]
 8002640:	f103 33ff 	add.w	r3, r3, #4294967295
 8002644:	607b      	str	r3, [r7, #4]
 8002646:	687b      	ldr	r3, [r7, #4]
 8002648:	2b00      	cmp	r3, #0
 800264a:	dceb      	bgt.n	8002624 <PutHexa+0x50>
 800264c:	6a3b      	ldr	r3, [r7, #32]
 800264e:	f003 030f 	and.w	r3, r3, #15
 8002652:	2b09      	cmp	r3, #9
 8002654:	d80c      	bhi.n	8002670 <PutHexa+0x9c>
 8002656:	6a3b      	ldr	r3, [r7, #32]
 8002658:	b2db      	uxtb	r3, r3
 800265a:	f003 030f 	and.w	r3, r3, #15
 800265e:	b2db      	uxtb	r3, r3
 8002660:	f103 0330 	add.w	r3, r3, #48	; 0x30
 8002664:	b2db      	uxtb	r3, r3
 8002666:	68f8      	ldr	r0, [r7, #12]
 8002668:	4619      	mov	r1, r3
 800266a:	f7ff fe95 	bl	8002398 <PutChar>
 800266e:	e01b      	b.n	80026a8 <PutHexa+0xd4>
 8002670:	78fb      	ldrb	r3, [r7, #3]
 8002672:	2b00      	cmp	r3, #0
 8002674:	d00c      	beq.n	8002690 <PutHexa+0xbc>
 8002676:	6a3b      	ldr	r3, [r7, #32]
 8002678:	b2db      	uxtb	r3, r3
 800267a:	f003 030f 	and.w	r3, r3, #15
 800267e:	b2db      	uxtb	r3, r3
 8002680:	f103 0337 	add.w	r3, r3, #55	; 0x37
 8002684:	b2db      	uxtb	r3, r3
 8002686:	68f8      	ldr	r0, [r7, #12]
 8002688:	4619      	mov	r1, r3
 800268a:	f7ff fe85 	bl	8002398 <PutChar>
 800268e:	e00b      	b.n	80026a8 <PutHexa+0xd4>
 8002690:	6a3b      	ldr	r3, [r7, #32]
 8002692:	b2db      	uxtb	r3, r3
 8002694:	f003 030f 	and.w	r3, r3, #15
 8002698:	b2db      	uxtb	r3, r3
 800269a:	f103 0357 	add.w	r3, r3, #87	; 0x57
 800269e:	b2db      	uxtb	r3, r3
 80026a0:	68f8      	ldr	r0, [r7, #12]
 80026a2:	4619      	mov	r1, r3
 80026a4:	f7ff fe78 	bl	8002398 <PutChar>
 80026a8:	697b      	ldr	r3, [r7, #20]
 80026aa:	f103 0301 	add.w	r3, r3, #1
 80026ae:	617b      	str	r3, [r7, #20]
 80026b0:	697b      	ldr	r3, [r7, #20]
 80026b2:	4618      	mov	r0, r3
 80026b4:	f107 0718 	add.w	r7, r7, #24
 80026b8:	46bd      	mov	sp, r7
 80026ba:	bd80      	pop	{r7, pc}

080026bc <vsnprintf>:
 80026bc:	b580      	push	{r7, lr}
 80026be:	b08a      	sub	sp, #40	; 0x28
 80026c0:	af02      	add	r7, sp, #8
 80026c2:	60f8      	str	r0, [r7, #12]
 80026c4:	60b9      	str	r1, [r7, #8]
 80026c6:	607a      	str	r2, [r7, #4]
 80026c8:	603b      	str	r3, [r7, #0]
 80026ca:	f04f 0300 	mov.w	r3, #0
 80026ce:	61bb      	str	r3, [r7, #24]
 80026d0:	f04f 0300 	mov.w	r3, #0
 80026d4:	617b      	str	r3, [r7, #20]
 80026d6:	68fb      	ldr	r3, [r7, #12]
 80026d8:	2b00      	cmp	r3, #0
 80026da:	f000 811c 	beq.w	8002916 <vsnprintf+0x25a>
 80026de:	68fb      	ldr	r3, [r7, #12]
 80026e0:	f04f 0200 	mov.w	r2, #0
 80026e4:	701a      	strb	r2, [r3, #0]
 80026e6:	e117      	b.n	8002918 <vsnprintf+0x25c>
 80026e8:	687b      	ldr	r3, [r7, #4]
 80026ea:	781b      	ldrb	r3, [r3, #0]
 80026ec:	2b25      	cmp	r3, #37	; 0x25
 80026ee:	d010      	beq.n	8002712 <vsnprintf+0x56>
 80026f0:	687b      	ldr	r3, [r7, #4]
 80026f2:	781a      	ldrb	r2, [r3, #0]
 80026f4:	68fb      	ldr	r3, [r7, #12]
 80026f6:	701a      	strb	r2, [r3, #0]
 80026f8:	68fb      	ldr	r3, [r7, #12]
 80026fa:	f103 0301 	add.w	r3, r3, #1
 80026fe:	60fb      	str	r3, [r7, #12]
 8002700:	687b      	ldr	r3, [r7, #4]
 8002702:	f103 0301 	add.w	r3, r3, #1
 8002706:	607b      	str	r3, [r7, #4]
 8002708:	697b      	ldr	r3, [r7, #20]
 800270a:	f103 0301 	add.w	r3, r3, #1
 800270e:	617b      	str	r3, [r7, #20]
 8002710:	e102      	b.n	8002918 <vsnprintf+0x25c>
 8002712:	687b      	ldr	r3, [r7, #4]
 8002714:	f103 0301 	add.w	r3, r3, #1
 8002718:	781b      	ldrb	r3, [r3, #0]
 800271a:	2b25      	cmp	r3, #37	; 0x25
 800271c:	d110      	bne.n	8002740 <vsnprintf+0x84>
 800271e:	68fb      	ldr	r3, [r7, #12]
 8002720:	f04f 0225 	mov.w	r2, #37	; 0x25
 8002724:	701a      	strb	r2, [r3, #0]
 8002726:	68fb      	ldr	r3, [r7, #12]
 8002728:	f103 0301 	add.w	r3, r3, #1
 800272c:	60fb      	str	r3, [r7, #12]
 800272e:	687b      	ldr	r3, [r7, #4]
 8002730:	f103 0302 	add.w	r3, r3, #2
 8002734:	607b      	str	r3, [r7, #4]
 8002736:	697b      	ldr	r3, [r7, #20]
 8002738:	f103 0301 	add.w	r3, r3, #1
 800273c:	617b      	str	r3, [r7, #20]
 800273e:	e0eb      	b.n	8002918 <vsnprintf+0x25c>
 8002740:	f04f 0320 	mov.w	r3, #32
 8002744:	77fb      	strb	r3, [r7, #31]
 8002746:	f04f 0300 	mov.w	r3, #0
 800274a:	77bb      	strb	r3, [r7, #30]
 800274c:	687b      	ldr	r3, [r7, #4]
 800274e:	f103 0301 	add.w	r3, r3, #1
 8002752:	607b      	str	r3, [r7, #4]
 8002754:	687b      	ldr	r3, [r7, #4]
 8002756:	781b      	ldrb	r3, [r3, #0]
 8002758:	2b30      	cmp	r3, #48	; 0x30
 800275a:	d11b      	bne.n	8002794 <vsnprintf+0xd8>
 800275c:	f04f 0330 	mov.w	r3, #48	; 0x30
 8002760:	77fb      	strb	r3, [r7, #31]
 8002762:	687b      	ldr	r3, [r7, #4]
 8002764:	f103 0301 	add.w	r3, r3, #1
 8002768:	607b      	str	r3, [r7, #4]
 800276a:	e014      	b.n	8002796 <vsnprintf+0xda>
 800276c:	7fbb      	ldrb	r3, [r7, #30]
 800276e:	461a      	mov	r2, r3
 8002770:	ea4f 0282 	mov.w	r2, r2, lsl #2
 8002774:	18d3      	adds	r3, r2, r3
 8002776:	ea4f 0343 	mov.w	r3, r3, lsl #1
 800277a:	b2da      	uxtb	r2, r3
 800277c:	687b      	ldr	r3, [r7, #4]
 800277e:	781b      	ldrb	r3, [r3, #0]
 8002780:	18d3      	adds	r3, r2, r3
 8002782:	b2db      	uxtb	r3, r3
 8002784:	f1a3 0330 	sub.w	r3, r3, #48	; 0x30
 8002788:	77bb      	strb	r3, [r7, #30]
 800278a:	687b      	ldr	r3, [r7, #4]
 800278c:	f103 0301 	add.w	r3, r3, #1
 8002790:	607b      	str	r3, [r7, #4]
 8002792:	e000      	b.n	8002796 <vsnprintf+0xda>
 8002794:	bf00      	nop
 8002796:	687b      	ldr	r3, [r7, #4]
 8002798:	781b      	ldrb	r3, [r3, #0]
 800279a:	2b2f      	cmp	r3, #47	; 0x2f
 800279c:	d903      	bls.n	80027a6 <vsnprintf+0xea>
 800279e:	687b      	ldr	r3, [r7, #4]
 80027a0:	781b      	ldrb	r3, [r3, #0]
 80027a2:	2b39      	cmp	r3, #57	; 0x39
 80027a4:	d9e2      	bls.n	800276c <vsnprintf+0xb0>
 80027a6:	7fba      	ldrb	r2, [r7, #30]
 80027a8:	697b      	ldr	r3, [r7, #20]
 80027aa:	18d3      	adds	r3, r2, r3
 80027ac:	461a      	mov	r2, r3
 80027ae:	68bb      	ldr	r3, [r7, #8]
 80027b0:	429a      	cmp	r2, r3
 80027b2:	d905      	bls.n	80027c0 <vsnprintf+0x104>
 80027b4:	68bb      	ldr	r3, [r7, #8]
 80027b6:	b2da      	uxtb	r2, r3
 80027b8:	697b      	ldr	r3, [r7, #20]
 80027ba:	b2db      	uxtb	r3, r3
 80027bc:	1ad3      	subs	r3, r2, r3
 80027be:	77bb      	strb	r3, [r7, #30]
 80027c0:	687b      	ldr	r3, [r7, #4]
 80027c2:	781b      	ldrb	r3, [r3, #0]
 80027c4:	f1a3 0358 	sub.w	r3, r3, #88	; 0x58
 80027c8:	2b20      	cmp	r3, #32
 80027ca:	f200 8094 	bhi.w	80028f6 <vsnprintf+0x23a>
 80027ce:	a201      	add	r2, pc, #4	; (adr r2, 80027d4 <vsnprintf+0x118>)
 80027d0:	f852 f023 	ldr.w	pc, [r2, r3, lsl #2]
 80027d4:	080028a9 	.word	0x080028a9
 80027d8:	080028f7 	.word	0x080028f7
 80027dc:	080028f7 	.word	0x080028f7
 80027e0:	080028f7 	.word	0x080028f7
 80027e4:	080028f7 	.word	0x080028f7
 80027e8:	080028f7 	.word	0x080028f7
 80027ec:	080028f7 	.word	0x080028f7
 80027f0:	080028f7 	.word	0x080028f7
 80027f4:	080028f7 	.word	0x080028f7
 80027f8:	080028f7 	.word	0x080028f7
 80027fc:	080028f7 	.word	0x080028f7
 8002800:	080028df 	.word	0x080028df
 8002804:	08002859 	.word	0x08002859
 8002808:	080028f7 	.word	0x080028f7
 800280c:	080028f7 	.word	0x080028f7
 8002810:	080028f7 	.word	0x080028f7
 8002814:	080028f7 	.word	0x080028f7
 8002818:	08002859 	.word	0x08002859
 800281c:	080028f7 	.word	0x080028f7
 8002820:	080028f7 	.word	0x080028f7
 8002824:	080028f7 	.word	0x080028f7
 8002828:	080028f7 	.word	0x080028f7
 800282c:	080028f7 	.word	0x080028f7
 8002830:	080028f7 	.word	0x080028f7
 8002834:	080028f7 	.word	0x080028f7
 8002838:	080028f7 	.word	0x080028f7
 800283c:	080028f7 	.word	0x080028f7
 8002840:	080028c9 	.word	0x080028c9
 8002844:	080028f7 	.word	0x080028f7
 8002848:	08002871 	.word	0x08002871
 800284c:	080028f7 	.word	0x080028f7
 8002850:	080028f7 	.word	0x080028f7
 8002854:	08002889 	.word	0x08002889
 8002858:	7fba      	ldrb	r2, [r7, #30]
 800285a:	683b      	ldr	r3, [r7, #0]
 800285c:	f103 0104 	add.w	r1, r3, #4
 8002860:	6039      	str	r1, [r7, #0]
 8002862:	681b      	ldr	r3, [r3, #0]
 8002864:	7ff9      	ldrb	r1, [r7, #31]
 8002866:	68f8      	ldr	r0, [r7, #12]
 8002868:	f7ff fe26 	bl	80024b8 <PutSignedInt>
 800286c:	61b8      	str	r0, [r7, #24]
 800286e:	e045      	b.n	80028fc <vsnprintf+0x240>
 8002870:	7fba      	ldrb	r2, [r7, #30]
 8002872:	683b      	ldr	r3, [r7, #0]
 8002874:	f103 0104 	add.w	r1, r3, #4
 8002878:	6039      	str	r1, [r7, #0]
 800287a:	681b      	ldr	r3, [r3, #0]
 800287c:	7ff9      	ldrb	r1, [r7, #31]
 800287e:	68f8      	ldr	r0, [r7, #12]
 8002880:	f7ff fdc0 	bl	8002404 <PutUnsignedInt>
 8002884:	61b8      	str	r0, [r7, #24]
 8002886:	e039      	b.n	80028fc <vsnprintf+0x240>
 8002888:	7fba      	ldrb	r2, [r7, #30]
 800288a:	683b      	ldr	r3, [r7, #0]
 800288c:	f103 0104 	add.w	r1, r3, #4
 8002890:	6039      	str	r1, [r7, #0]
 8002892:	6819      	ldr	r1, [r3, #0]
 8002894:	7ffb      	ldrb	r3, [r7, #31]
 8002896:	9100      	str	r1, [sp, #0]
 8002898:	68f8      	ldr	r0, [r7, #12]
 800289a:	4619      	mov	r1, r3
 800289c:	f04f 0300 	mov.w	r3, #0
 80028a0:	f7ff fe98 	bl	80025d4 <PutHexa>
 80028a4:	61b8      	str	r0, [r7, #24]
 80028a6:	e029      	b.n	80028fc <vsnprintf+0x240>
 80028a8:	7fba      	ldrb	r2, [r7, #30]
 80028aa:	683b      	ldr	r3, [r7, #0]
 80028ac:	f103 0104 	add.w	r1, r3, #4
 80028b0:	6039      	str	r1, [r7, #0]
 80028b2:	6819      	ldr	r1, [r3, #0]
 80028b4:	7ffb      	ldrb	r3, [r7, #31]
 80028b6:	9100      	str	r1, [sp, #0]
 80028b8:	68f8      	ldr	r0, [r7, #12]
 80028ba:	4619      	mov	r1, r3
 80028bc:	f04f 0301 	mov.w	r3, #1
 80028c0:	f7ff fe88 	bl	80025d4 <PutHexa>
 80028c4:	61b8      	str	r0, [r7, #24]
 80028c6:	e019      	b.n	80028fc <vsnprintf+0x240>
 80028c8:	683b      	ldr	r3, [r7, #0]
 80028ca:	f103 0204 	add.w	r2, r3, #4
 80028ce:	603a      	str	r2, [r7, #0]
 80028d0:	681b      	ldr	r3, [r3, #0]
 80028d2:	68f8      	ldr	r0, [r7, #12]
 80028d4:	4619      	mov	r1, r3
 80028d6:	f7ff fd71 	bl	80023bc <PutString>
 80028da:	61b8      	str	r0, [r7, #24]
 80028dc:	e00e      	b.n	80028fc <vsnprintf+0x240>
 80028de:	683b      	ldr	r3, [r7, #0]
 80028e0:	f103 0204 	add.w	r2, r3, #4
 80028e4:	603a      	str	r2, [r7, #0]
 80028e6:	681b      	ldr	r3, [r3, #0]
 80028e8:	b2db      	uxtb	r3, r3
 80028ea:	68f8      	ldr	r0, [r7, #12]
 80028ec:	4619      	mov	r1, r3
 80028ee:	f7ff fd53 	bl	8002398 <PutChar>
 80028f2:	61b8      	str	r0, [r7, #24]
 80028f4:	e002      	b.n	80028fc <vsnprintf+0x240>
 80028f6:	f04f 33ff 	mov.w	r3, #4294967295
 80028fa:	e02c      	b.n	8002956 <vsnprintf+0x29a>
 80028fc:	687b      	ldr	r3, [r7, #4]
 80028fe:	f103 0301 	add.w	r3, r3, #1
 8002902:	607b      	str	r3, [r7, #4]
 8002904:	69bb      	ldr	r3, [r7, #24]
 8002906:	68fa      	ldr	r2, [r7, #12]
 8002908:	18d3      	adds	r3, r2, r3
 800290a:	60fb      	str	r3, [r7, #12]
 800290c:	697a      	ldr	r2, [r7, #20]
 800290e:	69bb      	ldr	r3, [r7, #24]
 8002910:	18d3      	adds	r3, r2, r3
 8002912:	617b      	str	r3, [r7, #20]
 8002914:	e000      	b.n	8002918 <vsnprintf+0x25c>
 8002916:	bf00      	nop
 8002918:	687b      	ldr	r3, [r7, #4]
 800291a:	781b      	ldrb	r3, [r3, #0]
 800291c:	2b00      	cmp	r3, #0
 800291e:	d004      	beq.n	800292a <vsnprintf+0x26e>
 8002920:	697a      	ldr	r2, [r7, #20]
 8002922:	68bb      	ldr	r3, [r7, #8]
 8002924:	429a      	cmp	r2, r3
 8002926:	f4ff aedf 	bcc.w	80026e8 <vsnprintf+0x2c>
 800292a:	697a      	ldr	r2, [r7, #20]
 800292c:	68bb      	ldr	r3, [r7, #8]
 800292e:	429a      	cmp	r2, r3
 8002930:	d204      	bcs.n	800293c <vsnprintf+0x280>
 8002932:	68fb      	ldr	r3, [r7, #12]
 8002934:	f04f 0200 	mov.w	r2, #0
 8002938:	701a      	strb	r2, [r3, #0]
 800293a:	e00b      	b.n	8002954 <vsnprintf+0x298>
 800293c:	68fb      	ldr	r3, [r7, #12]
 800293e:	f103 33ff 	add.w	r3, r3, #4294967295
 8002942:	60fb      	str	r3, [r7, #12]
 8002944:	68fb      	ldr	r3, [r7, #12]
 8002946:	f04f 0200 	mov.w	r2, #0
 800294a:	701a      	strb	r2, [r3, #0]
 800294c:	697b      	ldr	r3, [r7, #20]
 800294e:	f103 33ff 	add.w	r3, r3, #4294967295
 8002952:	617b      	str	r3, [r7, #20]
 8002954:	697b      	ldr	r3, [r7, #20]
 8002956:	4618      	mov	r0, r3
 8002958:	f107 0720 	add.w	r7, r7, #32
 800295c:	46bd      	mov	sp, r7
 800295e:	bd80      	pop	{r7, pc}

08002960 <vsprintf>:
 8002960:	b580      	push	{r7, lr}
 8002962:	b084      	sub	sp, #16
 8002964:	af00      	add	r7, sp, #0
 8002966:	60f8      	str	r0, [r7, #12]
 8002968:	60b9      	str	r1, [r7, #8]
 800296a:	607a      	str	r2, [r7, #4]
 800296c:	68f8      	ldr	r0, [r7, #12]
 800296e:	f04f 0164 	mov.w	r1, #100	; 0x64
 8002972:	68ba      	ldr	r2, [r7, #8]
 8002974:	687b      	ldr	r3, [r7, #4]
 8002976:	f7ff fea1 	bl	80026bc <vsnprintf>
 800297a:	4603      	mov	r3, r0
 800297c:	4618      	mov	r0, r3
 800297e:	f107 0710 	add.w	r7, r7, #16
 8002982:	46bd      	mov	sp, r7
 8002984:	bd80      	pop	{r7, pc}
 8002986:	bf00      	nop

08002988 <vfprintf>:
 8002988:	b5b0      	push	{r4, r5, r7, lr}
 800298a:	b0a6      	sub	sp, #152	; 0x98
 800298c:	af00      	add	r7, sp, #0
 800298e:	60f8      	str	r0, [r7, #12]
 8002990:	60b9      	str	r1, [r7, #8]
 8002992:	607a      	str	r2, [r7, #4]
 8002994:	4b14      	ldr	r3, [pc, #80]	; (80029e8 <vfprintf+0x60>)
 8002996:	f107 0410 	add.w	r4, r7, #16
 800299a:	461d      	mov	r5, r3
 800299c:	cd0f      	ldmia	r5!, {r0, r1, r2, r3}
 800299e:	c40f      	stmia	r4!, {r0, r1, r2, r3}
 80029a0:	cd0f      	ldmia	r5!, {r0, r1, r2, r3}
 80029a2:	c40f      	stmia	r4!, {r0, r1, r2, r3}
 80029a4:	682b      	ldr	r3, [r5, #0]
 80029a6:	6023      	str	r3, [r4, #0]
 80029a8:	f107 0334 	add.w	r3, r7, #52	; 0x34
 80029ac:	4618      	mov	r0, r3
 80029ae:	68b9      	ldr	r1, [r7, #8]
 80029b0:	687a      	ldr	r2, [r7, #4]
 80029b2:	f7ff ffd5 	bl	8002960 <vsprintf>
 80029b6:	4603      	mov	r3, r0
 80029b8:	2b63      	cmp	r3, #99	; 0x63
 80029ba:	dd09      	ble.n	80029d0 <vfprintf+0x48>
 80029bc:	4b0b      	ldr	r3, [pc, #44]	; (80029ec <vfprintf+0x64>)
 80029be:	681b      	ldr	r3, [r3, #0]
 80029c0:	68db      	ldr	r3, [r3, #12]
 80029c2:	f107 0210 	add.w	r2, r7, #16
 80029c6:	4610      	mov	r0, r2
 80029c8:	4619      	mov	r1, r3
 80029ca:	f000 f873 	bl	8002ab4 <fputs>
 80029ce:	e7fe      	b.n	80029ce <vfprintf+0x46>
 80029d0:	f107 0334 	add.w	r3, r7, #52	; 0x34
 80029d4:	4618      	mov	r0, r3
 80029d6:	68f9      	ldr	r1, [r7, #12]
 80029d8:	f000 f86c 	bl	8002ab4 <fputs>
 80029dc:	4603      	mov	r3, r0
 80029de:	4618      	mov	r0, r3
 80029e0:	f107 0798 	add.w	r7, r7, #152	; 0x98
 80029e4:	46bd      	mov	sp, r7
 80029e6:	bdb0      	pop	{r4, r5, r7, pc}
 80029e8:	080045e8 	.word	0x080045e8
 80029ec:	200000fc 	.word	0x200000fc

080029f0 <vprintf>:
 80029f0:	b580      	push	{r7, lr}
 80029f2:	b082      	sub	sp, #8
 80029f4:	af00      	add	r7, sp, #0
 80029f6:	6078      	str	r0, [r7, #4]
 80029f8:	6039      	str	r1, [r7, #0]
 80029fa:	4b07      	ldr	r3, [pc, #28]	; (8002a18 <vprintf+0x28>)
 80029fc:	681b      	ldr	r3, [r3, #0]
 80029fe:	689b      	ldr	r3, [r3, #8]
 8002a00:	4618      	mov	r0, r3
 8002a02:	6879      	ldr	r1, [r7, #4]
 8002a04:	683a      	ldr	r2, [r7, #0]
 8002a06:	f7ff ffbf 	bl	8002988 <vfprintf>
 8002a0a:	4603      	mov	r3, r0
 8002a0c:	4618      	mov	r0, r3
 8002a0e:	f107 0708 	add.w	r7, r7, #8
 8002a12:	46bd      	mov	sp, r7
 8002a14:	bd80      	pop	{r7, pc}
 8002a16:	bf00      	nop
 8002a18:	200000fc 	.word	0x200000fc

08002a1c <printf>:
 8002a1c:	b40f      	push	{r0, r1, r2, r3}
 8002a1e:	b580      	push	{r7, lr}
 8002a20:	b082      	sub	sp, #8
 8002a22:	af00      	add	r7, sp, #0
 8002a24:	f107 0314 	add.w	r3, r7, #20
 8002a28:	603b      	str	r3, [r7, #0]
 8002a2a:	6938      	ldr	r0, [r7, #16]
 8002a2c:	6839      	ldr	r1, [r7, #0]
 8002a2e:	f7ff ffdf 	bl	80029f0 <vprintf>
 8002a32:	6078      	str	r0, [r7, #4]
 8002a34:	687b      	ldr	r3, [r7, #4]
 8002a36:	4618      	mov	r0, r3
 8002a38:	f107 0708 	add.w	r7, r7, #8
 8002a3c:	46bd      	mov	sp, r7
 8002a3e:	e8bd 4080 	ldmia.w	sp!, {r7, lr}
 8002a42:	b004      	add	sp, #16
 8002a44:	4770      	bx	lr
 8002a46:	bf00      	nop

08002a48 <puts>:
 8002a48:	b580      	push	{r7, lr}
 8002a4a:	b082      	sub	sp, #8
 8002a4c:	af00      	add	r7, sp, #0
 8002a4e:	6078      	str	r0, [r7, #4]
 8002a50:	4b06      	ldr	r3, [pc, #24]	; (8002a6c <puts+0x24>)
 8002a52:	681b      	ldr	r3, [r3, #0]
 8002a54:	689b      	ldr	r3, [r3, #8]
 8002a56:	6878      	ldr	r0, [r7, #4]
 8002a58:	4619      	mov	r1, r3
 8002a5a:	f000 f82b 	bl	8002ab4 <fputs>
 8002a5e:	4603      	mov	r3, r0
 8002a60:	4618      	mov	r0, r3
 8002a62:	f107 0708 	add.w	r7, r7, #8
 8002a66:	46bd      	mov	sp, r7
 8002a68:	bd80      	pop	{r7, pc}
 8002a6a:	bf00      	nop
 8002a6c:	200000fc 	.word	0x200000fc

08002a70 <fputc>:
 8002a70:	b580      	push	{r7, lr}
 8002a72:	b082      	sub	sp, #8
 8002a74:	af00      	add	r7, sp, #0
 8002a76:	6078      	str	r0, [r7, #4]
 8002a78:	6039      	str	r1, [r7, #0]
 8002a7a:	4b0d      	ldr	r3, [pc, #52]	; (8002ab0 <fputc+0x40>)
 8002a7c:	681b      	ldr	r3, [r3, #0]
 8002a7e:	689a      	ldr	r2, [r3, #8]
 8002a80:	683b      	ldr	r3, [r7, #0]
 8002a82:	429a      	cmp	r2, r3
 8002a84:	d005      	beq.n	8002a92 <fputc+0x22>
 8002a86:	4b0a      	ldr	r3, [pc, #40]	; (8002ab0 <fputc+0x40>)
 8002a88:	681b      	ldr	r3, [r3, #0]
 8002a8a:	68da      	ldr	r2, [r3, #12]
 8002a8c:	683b      	ldr	r3, [r7, #0]
 8002a8e:	429a      	cmp	r2, r3
 8002a90:	d106      	bne.n	8002aa0 <fputc+0x30>
 8002a92:	687b      	ldr	r3, [r7, #4]
 8002a94:	b2db      	uxtb	r3, r3
 8002a96:	4618      	mov	r0, r3
 8002a98:	f7ff fc70 	bl	800237c <PrintChar>
 8002a9c:	687b      	ldr	r3, [r7, #4]
 8002a9e:	e001      	b.n	8002aa4 <fputc+0x34>
 8002aa0:	f04f 33ff 	mov.w	r3, #4294967295
 8002aa4:	4618      	mov	r0, r3
 8002aa6:	f107 0708 	add.w	r7, r7, #8
 8002aaa:	46bd      	mov	sp, r7
 8002aac:	bd80      	pop	{r7, pc}
 8002aae:	bf00      	nop
 8002ab0:	200000fc 	.word	0x200000fc

08002ab4 <fputs>:
 8002ab4:	b580      	push	{r7, lr}
 8002ab6:	b084      	sub	sp, #16
 8002ab8:	af00      	add	r7, sp, #0
 8002aba:	6078      	str	r0, [r7, #4]
 8002abc:	6039      	str	r1, [r7, #0]
 8002abe:	f04f 0300 	mov.w	r3, #0
 8002ac2:	60fb      	str	r3, [r7, #12]
 8002ac4:	e014      	b.n	8002af0 <fputs+0x3c>
 8002ac6:	687b      	ldr	r3, [r7, #4]
 8002ac8:	781b      	ldrb	r3, [r3, #0]
 8002aca:	4618      	mov	r0, r3
 8002acc:	6839      	ldr	r1, [r7, #0]
 8002ace:	f7ff ffcf 	bl	8002a70 <fputc>
 8002ad2:	4603      	mov	r3, r0
 8002ad4:	f1b3 3fff 	cmp.w	r3, #4294967295
 8002ad8:	d102      	bne.n	8002ae0 <fputs+0x2c>
 8002ada:	f04f 33ff 	mov.w	r3, #4294967295
 8002ade:	e00c      	b.n	8002afa <fputs+0x46>
 8002ae0:	68fb      	ldr	r3, [r7, #12]
 8002ae2:	f103 0301 	add.w	r3, r3, #1
 8002ae6:	60fb      	str	r3, [r7, #12]
 8002ae8:	687b      	ldr	r3, [r7, #4]
 8002aea:	f103 0301 	add.w	r3, r3, #1
 8002aee:	607b      	str	r3, [r7, #4]
 8002af0:	687b      	ldr	r3, [r7, #4]
 8002af2:	781b      	ldrb	r3, [r3, #0]
 8002af4:	2b00      	cmp	r3, #0
 8002af6:	d1e6      	bne.n	8002ac6 <fputs+0x12>
 8002af8:	68fb      	ldr	r3, [r7, #12]
 8002afa:	4618      	mov	r0, r3
 8002afc:	f107 0710 	add.w	r7, r7, #16
 8002b00:	46bd      	mov	sp, r7
 8002b02:	bd80      	pop	{r7, pc}

08002b04 <RCC_APB2PeriphClockCmd>:
 8002b04:	b480      	push	{r7}
 8002b06:	b083      	sub	sp, #12
 8002b08:	af00      	add	r7, sp, #0
 8002b0a:	6078      	str	r0, [r7, #4]
 8002b0c:	460b      	mov	r3, r1
 8002b0e:	70fb      	strb	r3, [r7, #3]
 8002b10:	78fb      	ldrb	r3, [r7, #3]
 8002b12:	2b00      	cmp	r3, #0
 8002b14:	d007      	beq.n	8002b26 <RCC_APB2PeriphClockCmd+0x22>
 8002b16:	4b0b      	ldr	r3, [pc, #44]	; (8002b44 <RCC_APB2PeriphClockCmd+0x40>)
 8002b18:	4a0a      	ldr	r2, [pc, #40]	; (8002b44 <RCC_APB2PeriphClockCmd+0x40>)
 8002b1a:	6991      	ldr	r1, [r2, #24]
 8002b1c:	687a      	ldr	r2, [r7, #4]
 8002b1e:	ea41 0202 	orr.w	r2, r1, r2
 8002b22:	619a      	str	r2, [r3, #24]
 8002b24:	e008      	b.n	8002b38 <RCC_APB2PeriphClockCmd+0x34>
 8002b26:	4b07      	ldr	r3, [pc, #28]	; (8002b44 <RCC_APB2PeriphClockCmd+0x40>)
 8002b28:	4a06      	ldr	r2, [pc, #24]	; (8002b44 <RCC_APB2PeriphClockCmd+0x40>)
 8002b2a:	6991      	ldr	r1, [r2, #24]
 8002b2c:	687a      	ldr	r2, [r7, #4]
 8002b2e:	ea6f 0202 	mvn.w	r2, r2
 8002b32:	ea01 0202 	and.w	r2, r1, r2
 8002b36:	619a      	str	r2, [r3, #24]
 8002b38:	f107 070c 	add.w	r7, r7, #12
 8002b3c:	46bd      	mov	sp, r7
 8002b3e:	bc80      	pop	{r7}
 8002b40:	4770      	bx	lr
 8002b42:	bf00      	nop
 8002b44:	40021000 	.word	0x40021000

08002b48 <RCC_APB1PeriphClockCmd>:
 8002b48:	b480      	push	{r7}
 8002b4a:	b083      	sub	sp, #12
 8002b4c:	af00      	add	r7, sp, #0
 8002b4e:	6078      	str	r0, [r7, #4]
 8002b50:	460b      	mov	r3, r1
 8002b52:	70fb      	strb	r3, [r7, #3]
 8002b54:	78fb      	ldrb	r3, [r7, #3]
 8002b56:	2b00      	cmp	r3, #0
 8002b58:	d007      	beq.n	8002b6a <RCC_APB1PeriphClockCmd+0x22>
 8002b5a:	4b0b      	ldr	r3, [pc, #44]	; (8002b88 <RCC_APB1PeriphClockCmd+0x40>)
 8002b5c:	4a0a      	ldr	r2, [pc, #40]	; (8002b88 <RCC_APB1PeriphClockCmd+0x40>)
 8002b5e:	69d1      	ldr	r1, [r2, #28]
 8002b60:	687a      	ldr	r2, [r7, #4]
 8002b62:	ea41 0202 	orr.w	r2, r1, r2
 8002b66:	61da      	str	r2, [r3, #28]
 8002b68:	e008      	b.n	8002b7c <RCC_APB1PeriphClockCmd+0x34>
 8002b6a:	4b07      	ldr	r3, [pc, #28]	; (8002b88 <RCC_APB1PeriphClockCmd+0x40>)
 8002b6c:	4a06      	ldr	r2, [pc, #24]	; (8002b88 <RCC_APB1PeriphClockCmd+0x40>)
 8002b6e:	69d1      	ldr	r1, [r2, #28]
 8002b70:	687a      	ldr	r2, [r7, #4]
 8002b72:	ea6f 0202 	mvn.w	r2, r2
 8002b76:	ea01 0202 	and.w	r2, r1, r2
 8002b7a:	61da      	str	r2, [r3, #28]
 8002b7c:	f107 070c 	add.w	r7, r7, #12
 8002b80:	46bd      	mov	sp, r7
 8002b82:	bc80      	pop	{r7}
 8002b84:	4770      	bx	lr
 8002b86:	bf00      	nop
 8002b88:	40021000 	.word	0x40021000

08002b8c <CoPostMail>:
 8002b8c:	b580      	push	{r7, lr}
 8002b8e:	b084      	sub	sp, #16
 8002b90:	af00      	add	r7, sp, #0
 8002b92:	4603      	mov	r3, r0
 8002b94:	6039      	str	r1, [r7, #0]
 8002b96:	71fb      	strb	r3, [r7, #7]
 8002b98:	79fb      	ldrb	r3, [r7, #7]
 8002b9a:	2b13      	cmp	r3, #19
 8002b9c:	d902      	bls.n	8002ba4 <CoPostMail+0x18>
 8002b9e:	f04f 0301 	mov.w	r3, #1
 8002ba2:	e02c      	b.n	8002bfe <CoPostMail+0x72>
 8002ba4:	79fb      	ldrb	r3, [r7, #7]
 8002ba6:	ea4f 1203 	mov.w	r2, r3, lsl #4
 8002baa:	4b17      	ldr	r3, [pc, #92]	; (8002c08 <CoPostMail+0x7c>)
 8002bac:	18d3      	adds	r3, r2, r3
 8002bae:	60fb      	str	r3, [r7, #12]
 8002bb0:	68fb      	ldr	r3, [r7, #12]
 8002bb2:	795b      	ldrb	r3, [r3, #5]
 8002bb4:	f003 030f 	and.w	r3, r3, #15
 8002bb8:	b2db      	uxtb	r3, r3
 8002bba:	2b02      	cmp	r3, #2
 8002bbc:	d002      	beq.n	8002bc4 <CoPostMail+0x38>
 8002bbe:	f04f 0301 	mov.w	r3, #1
 8002bc2:	e01c      	b.n	8002bfe <CoPostMail+0x72>
 8002bc4:	68fb      	ldr	r3, [r7, #12]
 8002bc6:	88db      	ldrh	r3, [r3, #6]
 8002bc8:	2b00      	cmp	r3, #0
 8002bca:	d116      	bne.n	8002bfa <CoPostMail+0x6e>
 8002bcc:	4b0f      	ldr	r3, [pc, #60]	; (8002c0c <CoPostMail+0x80>)
 8002bce:	781b      	ldrb	r3, [r3, #0]
 8002bd0:	b2db      	uxtb	r3, r3
 8002bd2:	f103 0301 	add.w	r3, r3, #1
 8002bd6:	b2da      	uxtb	r2, r3
 8002bd8:	4b0c      	ldr	r3, [pc, #48]	; (8002c0c <CoPostMail+0x80>)
 8002bda:	701a      	strb	r2, [r3, #0]
 8002bdc:	68fb      	ldr	r3, [r7, #12]
 8002bde:	683a      	ldr	r2, [r7, #0]
 8002be0:	601a      	str	r2, [r3, #0]
 8002be2:	68fb      	ldr	r3, [r7, #12]
 8002be4:	f04f 0201 	mov.w	r2, #1
 8002be8:	80da      	strh	r2, [r3, #6]
 8002bea:	68f8      	ldr	r0, [r7, #12]
 8002bec:	f000 fb4e 	bl	800328c <EventTaskToRdy>
 8002bf0:	f7fd faee 	bl	80001d0 <OsSchedUnlock>
 8002bf4:	f04f 0300 	mov.w	r3, #0
 8002bf8:	e001      	b.n	8002bfe <CoPostMail+0x72>
 8002bfa:	f04f 0307 	mov.w	r3, #7
 8002bfe:	4618      	mov	r0, r3
 8002c00:	f107 0710 	add.w	r7, r7, #16
 8002c04:	46bd      	mov	sp, r7
 8002c06:	bd80      	pop	{r7, pc}
 8002c08:	200003dc 	.word	0x200003dc
 8002c0c:	200001e5 	.word	0x200001e5

08002c10 <dummy>:
 8002c10:	b480      	push	{r7}
 8002c12:	af00      	add	r7, sp, #0
 8002c14:	46bd      	mov	sp, r7
 8002c16:	bc80      	pop	{r7}
 8002c18:	4770      	bx	lr
 8002c1a:	bf00      	nop

08002c1c <bufferInit>:
 8002c1c:	b580      	push	{r7, lr}
 8002c1e:	b084      	sub	sp, #16
 8002c20:	af00      	add	r7, sp, #0
 8002c22:	60f8      	str	r0, [r7, #12]
 8002c24:	60b9      	str	r1, [r7, #8]
 8002c26:	4613      	mov	r3, r2
 8002c28:	80fb      	strh	r3, [r7, #6]
 8002c2a:	f7ff fff1 	bl	8002c10 <dummy>
 8002c2e:	68fb      	ldr	r3, [r7, #12]
 8002c30:	68ba      	ldr	r2, [r7, #8]
 8002c32:	601a      	str	r2, [r3, #0]
 8002c34:	68fb      	ldr	r3, [r7, #12]
 8002c36:	88fa      	ldrh	r2, [r7, #6]
 8002c38:	809a      	strh	r2, [r3, #4]
 8002c3a:	68fb      	ldr	r3, [r7, #12]
 8002c3c:	f04f 0200 	mov.w	r2, #0
 8002c40:	811a      	strh	r2, [r3, #8]
 8002c42:	68fb      	ldr	r3, [r7, #12]
 8002c44:	f04f 0200 	mov.w	r2, #0
 8002c48:	80da      	strh	r2, [r3, #6]
 8002c4a:	f7ff ffe1 	bl	8002c10 <dummy>
 8002c4e:	f107 0710 	add.w	r7, r7, #16
 8002c52:	46bd      	mov	sp, r7
 8002c54:	bd80      	pop	{r7, pc}
 8002c56:	bf00      	nop

08002c58 <bufferGetFromFront>:
 8002c58:	b580      	push	{r7, lr}
 8002c5a:	b084      	sub	sp, #16
 8002c5c:	af00      	add	r7, sp, #0
 8002c5e:	6078      	str	r0, [r7, #4]
 8002c60:	f04f 0300 	mov.w	r3, #0
 8002c64:	73fb      	strb	r3, [r7, #15]
 8002c66:	f7ff ffd3 	bl	8002c10 <dummy>
 8002c6a:	687b      	ldr	r3, [r7, #4]
 8002c6c:	88db      	ldrh	r3, [r3, #6]
 8002c6e:	2b00      	cmp	r3, #0
 8002c70:	d022      	beq.n	8002cb8 <bufferGetFromFront+0x60>
 8002c72:	687b      	ldr	r3, [r7, #4]
 8002c74:	681a      	ldr	r2, [r3, #0]
 8002c76:	687b      	ldr	r3, [r7, #4]
 8002c78:	891b      	ldrh	r3, [r3, #8]
 8002c7a:	18d3      	adds	r3, r2, r3
 8002c7c:	781b      	ldrb	r3, [r3, #0]
 8002c7e:	73fb      	strb	r3, [r7, #15]
 8002c80:	687b      	ldr	r3, [r7, #4]
 8002c82:	891b      	ldrh	r3, [r3, #8]
 8002c84:	f103 0301 	add.w	r3, r3, #1
 8002c88:	b29a      	uxth	r2, r3
 8002c8a:	687b      	ldr	r3, [r7, #4]
 8002c8c:	811a      	strh	r2, [r3, #8]
 8002c8e:	687b      	ldr	r3, [r7, #4]
 8002c90:	891a      	ldrh	r2, [r3, #8]
 8002c92:	687b      	ldr	r3, [r7, #4]
 8002c94:	889b      	ldrh	r3, [r3, #4]
 8002c96:	429a      	cmp	r2, r3
 8002c98:	d307      	bcc.n	8002caa <bufferGetFromFront+0x52>
 8002c9a:	687b      	ldr	r3, [r7, #4]
 8002c9c:	891a      	ldrh	r2, [r3, #8]
 8002c9e:	687b      	ldr	r3, [r7, #4]
 8002ca0:	889b      	ldrh	r3, [r3, #4]
 8002ca2:	1ad3      	subs	r3, r2, r3
 8002ca4:	b29a      	uxth	r2, r3
 8002ca6:	687b      	ldr	r3, [r7, #4]
 8002ca8:	811a      	strh	r2, [r3, #8]
 8002caa:	687b      	ldr	r3, [r7, #4]
 8002cac:	88db      	ldrh	r3, [r3, #6]
 8002cae:	f103 33ff 	add.w	r3, r3, #4294967295
 8002cb2:	b29a      	uxth	r2, r3
 8002cb4:	687b      	ldr	r3, [r7, #4]
 8002cb6:	80da      	strh	r2, [r3, #6]
 8002cb8:	f7ff ffaa 	bl	8002c10 <dummy>
 8002cbc:	7bfb      	ldrb	r3, [r7, #15]
 8002cbe:	4618      	mov	r0, r3
 8002cc0:	f107 0710 	add.w	r7, r7, #16
 8002cc4:	46bd      	mov	sp, r7
 8002cc6:	bd80      	pop	{r7, pc}

08002cc8 <bufferAddToEnd>:
 8002cc8:	b580      	push	{r7, lr}
 8002cca:	b082      	sub	sp, #8
 8002ccc:	af00      	add	r7, sp, #0
 8002cce:	6078      	str	r0, [r7, #4]
 8002cd0:	460b      	mov	r3, r1
 8002cd2:	70fb      	strb	r3, [r7, #3]
 8002cd4:	f7ff ff9c 	bl	8002c10 <dummy>
 8002cd8:	687b      	ldr	r3, [r7, #4]
 8002cda:	88da      	ldrh	r2, [r3, #6]
 8002cdc:	687b      	ldr	r3, [r7, #4]
 8002cde:	889b      	ldrh	r3, [r3, #4]
 8002ce0:	429a      	cmp	r2, r3
 8002ce2:	d21d      	bcs.n	8002d20 <bufferAddToEnd+0x58>
 8002ce4:	687b      	ldr	r3, [r7, #4]
 8002ce6:	6819      	ldr	r1, [r3, #0]
 8002ce8:	687b      	ldr	r3, [r7, #4]
 8002cea:	891b      	ldrh	r3, [r3, #8]
 8002cec:	461a      	mov	r2, r3
 8002cee:	687b      	ldr	r3, [r7, #4]
 8002cf0:	88db      	ldrh	r3, [r3, #6]
 8002cf2:	18d3      	adds	r3, r2, r3
 8002cf4:	687a      	ldr	r2, [r7, #4]
 8002cf6:	8892      	ldrh	r2, [r2, #4]
 8002cf8:	fb93 f0f2 	sdiv	r0, r3, r2
 8002cfc:	fb02 f200 	mul.w	r2, r2, r0
 8002d00:	1a9b      	subs	r3, r3, r2
 8002d02:	18cb      	adds	r3, r1, r3
 8002d04:	78fa      	ldrb	r2, [r7, #3]
 8002d06:	701a      	strb	r2, [r3, #0]
 8002d08:	687b      	ldr	r3, [r7, #4]
 8002d0a:	88db      	ldrh	r3, [r3, #6]
 8002d0c:	f103 0301 	add.w	r3, r3, #1
 8002d10:	b29a      	uxth	r2, r3
 8002d12:	687b      	ldr	r3, [r7, #4]
 8002d14:	80da      	strh	r2, [r3, #6]
 8002d16:	f7ff ff7b 	bl	8002c10 <dummy>
 8002d1a:	f04f 0301 	mov.w	r3, #1
 8002d1e:	e003      	b.n	8002d28 <bufferAddToEnd+0x60>
 8002d20:	f7ff ff76 	bl	8002c10 <dummy>
 8002d24:	f04f 0300 	mov.w	r3, #0
 8002d28:	4618      	mov	r0, r3
 8002d2a:	f107 0708 	add.w	r7, r7, #8
 8002d2e:	46bd      	mov	sp, r7
 8002d30:	bd80      	pop	{r7, pc}
 8002d32:	bf00      	nop

08002d34 <bufferIsNotFull>:
 8002d34:	b580      	push	{r7, lr}
 8002d36:	b084      	sub	sp, #16
 8002d38:	af00      	add	r7, sp, #0
 8002d3a:	6078      	str	r0, [r7, #4]
 8002d3c:	f7ff ff68 	bl	8002c10 <dummy>
 8002d40:	687b      	ldr	r3, [r7, #4]
 8002d42:	889a      	ldrh	r2, [r3, #4]
 8002d44:	687b      	ldr	r3, [r7, #4]
 8002d46:	88db      	ldrh	r3, [r3, #6]
 8002d48:	1ad3      	subs	r3, r2, r3
 8002d4a:	81fb      	strh	r3, [r7, #14]
 8002d4c:	f7ff ff60 	bl	8002c10 <dummy>
 8002d50:	89fb      	ldrh	r3, [r7, #14]
 8002d52:	2b00      	cmp	r3, #0
 8002d54:	d002      	beq.n	8002d5c <bufferIsNotFull+0x28>
 8002d56:	f04f 0301 	mov.w	r3, #1
 8002d5a:	e001      	b.n	8002d60 <bufferIsNotFull+0x2c>
 8002d5c:	f04f 0300 	mov.w	r3, #0
 8002d60:	4618      	mov	r0, r3
 8002d62:	f107 0710 	add.w	r7, r7, #16
 8002d66:	46bd      	mov	sp, r7
 8002d68:	bd80      	pop	{r7, pc}
 8002d6a:	bf00      	nop

08002d6c <bufferDataAvail>:
 8002d6c:	b580      	push	{r7, lr}
 8002d6e:	b082      	sub	sp, #8
 8002d70:	af00      	add	r7, sp, #0
 8002d72:	6078      	str	r0, [r7, #4]
 8002d74:	f7ff ff4c 	bl	8002c10 <dummy>
 8002d78:	687b      	ldr	r3, [r7, #4]
 8002d7a:	88db      	ldrh	r3, [r3, #6]
 8002d7c:	b2db      	uxtb	r3, r3
 8002d7e:	4618      	mov	r0, r3
 8002d80:	f107 0708 	add.w	r7, r7, #8
 8002d84:	46bd      	mov	sp, r7
 8002d86:	bd80      	pop	{r7, pc}

08002d88 <InsertDelayList>:
 8002d88:	b480      	push	{r7}
 8002d8a:	b085      	sub	sp, #20
 8002d8c:	af00      	add	r7, sp, #0
 8002d8e:	6078      	str	r0, [r7, #4]
 8002d90:	6039      	str	r1, [r7, #0]
 8002d92:	683b      	ldr	r3, [r7, #0]
 8002d94:	2b00      	cmp	r3, #0
 8002d96:	d067      	beq.n	8002e68 <InsertDelayList+0xe0>
 8002d98:	4b36      	ldr	r3, [pc, #216]	; (8002e74 <InsertDelayList+0xec>)
 8002d9a:	681b      	ldr	r3, [r3, #0]
 8002d9c:	2b00      	cmp	r3, #0
 8002d9e:	d106      	bne.n	8002dae <InsertDelayList+0x26>
 8002da0:	687b      	ldr	r3, [r7, #4]
 8002da2:	683a      	ldr	r2, [r7, #0]
 8002da4:	621a      	str	r2, [r3, #32]
 8002da6:	4b33      	ldr	r3, [pc, #204]	; (8002e74 <InsertDelayList+0xec>)
 8002da8:	687a      	ldr	r2, [r7, #4]
 8002daa:	601a      	str	r2, [r3, #0]
 8002dac:	e053      	b.n	8002e56 <InsertDelayList+0xce>
 8002dae:	4b31      	ldr	r3, [pc, #196]	; (8002e74 <InsertDelayList+0xec>)
 8002db0:	681b      	ldr	r3, [r3, #0]
 8002db2:	60bb      	str	r3, [r7, #8]
 8002db4:	683b      	ldr	r3, [r7, #0]
 8002db6:	60fb      	str	r3, [r7, #12]
 8002db8:	e04a      	b.n	8002e50 <InsertDelayList+0xc8>
 8002dba:	68fa      	ldr	r2, [r7, #12]
 8002dbc:	68bb      	ldr	r3, [r7, #8]
 8002dbe:	6a1b      	ldr	r3, [r3, #32]
 8002dc0:	1ad3      	subs	r3, r2, r3
 8002dc2:	60fb      	str	r3, [r7, #12]
 8002dc4:	68fb      	ldr	r3, [r7, #12]
 8002dc6:	2b00      	cmp	r3, #0
 8002dc8:	da2e      	bge.n	8002e28 <InsertDelayList+0xa0>
 8002dca:	68bb      	ldr	r3, [r7, #8]
 8002dcc:	6a9b      	ldr	r3, [r3, #40]	; 0x28
 8002dce:	2b00      	cmp	r3, #0
 8002dd0:	d00e      	beq.n	8002df0 <InsertDelayList+0x68>
 8002dd2:	68bb      	ldr	r3, [r7, #8]
 8002dd4:	6a9b      	ldr	r3, [r3, #40]	; 0x28
 8002dd6:	687a      	ldr	r2, [r7, #4]
 8002dd8:	625a      	str	r2, [r3, #36]	; 0x24
 8002dda:	68bb      	ldr	r3, [r7, #8]
 8002ddc:	6a9a      	ldr	r2, [r3, #40]	; 0x28
 8002dde:	687b      	ldr	r3, [r7, #4]
 8002de0:	629a      	str	r2, [r3, #40]	; 0x28
 8002de2:	687b      	ldr	r3, [r7, #4]
 8002de4:	68ba      	ldr	r2, [r7, #8]
 8002de6:	625a      	str	r2, [r3, #36]	; 0x24
 8002de8:	68bb      	ldr	r3, [r7, #8]
 8002dea:	687a      	ldr	r2, [r7, #4]
 8002dec:	629a      	str	r2, [r3, #40]	; 0x28
 8002dee:	e00a      	b.n	8002e06 <InsertDelayList+0x7e>
 8002df0:	4b20      	ldr	r3, [pc, #128]	; (8002e74 <InsertDelayList+0xec>)
 8002df2:	681a      	ldr	r2, [r3, #0]
 8002df4:	687b      	ldr	r3, [r7, #4]
 8002df6:	625a      	str	r2, [r3, #36]	; 0x24
 8002df8:	4b1e      	ldr	r3, [pc, #120]	; (8002e74 <InsertDelayList+0xec>)
 8002dfa:	681b      	ldr	r3, [r3, #0]
 8002dfc:	687a      	ldr	r2, [r7, #4]
 8002dfe:	629a      	str	r2, [r3, #40]	; 0x28
 8002e00:	4b1c      	ldr	r3, [pc, #112]	; (8002e74 <InsertDelayList+0xec>)
 8002e02:	687a      	ldr	r2, [r7, #4]
 8002e04:	601a      	str	r2, [r3, #0]
 8002e06:	687b      	ldr	r3, [r7, #4]
 8002e08:	6a5b      	ldr	r3, [r3, #36]	; 0x24
 8002e0a:	6a1a      	ldr	r2, [r3, #32]
 8002e0c:	68fb      	ldr	r3, [r7, #12]
 8002e0e:	18d2      	adds	r2, r2, r3
 8002e10:	687b      	ldr	r3, [r7, #4]
 8002e12:	621a      	str	r2, [r3, #32]
 8002e14:	687b      	ldr	r3, [r7, #4]
 8002e16:	6a5b      	ldr	r3, [r3, #36]	; 0x24
 8002e18:	687a      	ldr	r2, [r7, #4]
 8002e1a:	6a52      	ldr	r2, [r2, #36]	; 0x24
 8002e1c:	6a11      	ldr	r1, [r2, #32]
 8002e1e:	687a      	ldr	r2, [r7, #4]
 8002e20:	6a12      	ldr	r2, [r2, #32]
 8002e22:	1a8a      	subs	r2, r1, r2
 8002e24:	621a      	str	r2, [r3, #32]
 8002e26:	e016      	b.n	8002e56 <InsertDelayList+0xce>
 8002e28:	68fb      	ldr	r3, [r7, #12]
 8002e2a:	2b00      	cmp	r3, #0
 8002e2c:	db0d      	blt.n	8002e4a <InsertDelayList+0xc2>
 8002e2e:	68bb      	ldr	r3, [r7, #8]
 8002e30:	6a5b      	ldr	r3, [r3, #36]	; 0x24
 8002e32:	2b00      	cmp	r3, #0
 8002e34:	d109      	bne.n	8002e4a <InsertDelayList+0xc2>
 8002e36:	687b      	ldr	r3, [r7, #4]
 8002e38:	68ba      	ldr	r2, [r7, #8]
 8002e3a:	629a      	str	r2, [r3, #40]	; 0x28
 8002e3c:	68bb      	ldr	r3, [r7, #8]
 8002e3e:	687a      	ldr	r2, [r7, #4]
 8002e40:	625a      	str	r2, [r3, #36]	; 0x24
 8002e42:	68fa      	ldr	r2, [r7, #12]
 8002e44:	687b      	ldr	r3, [r7, #4]
 8002e46:	621a      	str	r2, [r3, #32]
 8002e48:	e005      	b.n	8002e56 <InsertDelayList+0xce>
 8002e4a:	68bb      	ldr	r3, [r7, #8]
 8002e4c:	6a5b      	ldr	r3, [r3, #36]	; 0x24
 8002e4e:	60bb      	str	r3, [r7, #8]
 8002e50:	68bb      	ldr	r3, [r7, #8]
 8002e52:	2b00      	cmp	r3, #0
 8002e54:	d1b1      	bne.n	8002dba <InsertDelayList+0x32>
 8002e56:	687b      	ldr	r3, [r7, #4]
 8002e58:	f04f 0202 	mov.w	r2, #2
 8002e5c:	715a      	strb	r2, [r3, #5]
 8002e5e:	4b06      	ldr	r3, [pc, #24]	; (8002e78 <InsertDelayList+0xf0>)
 8002e60:	f04f 0201 	mov.w	r2, #1
 8002e64:	701a      	strb	r2, [r3, #0]
 8002e66:	e000      	b.n	8002e6a <InsertDelayList+0xe2>
 8002e68:	bf00      	nop
 8002e6a:	f107 0714 	add.w	r7, r7, #20
 8002e6e:	46bd      	mov	sp, r7
 8002e70:	bc80      	pop	{r7}
 8002e72:	4770      	bx	lr
 8002e74:	200003d8 	.word	0x200003d8
 8002e78:	200001e6 	.word	0x200001e6

08002e7c <RemoveDelayList>:
 8002e7c:	b480      	push	{r7}
 8002e7e:	b083      	sub	sp, #12
 8002e80:	af00      	add	r7, sp, #0
 8002e82:	6078      	str	r0, [r7, #4]
 8002e84:	687b      	ldr	r3, [r7, #4]
 8002e86:	6a9b      	ldr	r3, [r3, #40]	; 0x28
 8002e88:	2b00      	cmp	r3, #0
 8002e8a:	d108      	bne.n	8002e9e <RemoveDelayList+0x22>
 8002e8c:	687b      	ldr	r3, [r7, #4]
 8002e8e:	6a5b      	ldr	r3, [r3, #36]	; 0x24
 8002e90:	2b00      	cmp	r3, #0
 8002e92:	d104      	bne.n	8002e9e <RemoveDelayList+0x22>
 8002e94:	4b28      	ldr	r3, [pc, #160]	; (8002f38 <RemoveDelayList+0xbc>)
 8002e96:	f04f 0200 	mov.w	r2, #0
 8002e9a:	601a      	str	r2, [r3, #0]
 8002e9c:	e043      	b.n	8002f26 <RemoveDelayList+0xaa>
 8002e9e:	687b      	ldr	r3, [r7, #4]
 8002ea0:	6a9b      	ldr	r3, [r3, #40]	; 0x28
 8002ea2:	2b00      	cmp	r3, #0
 8002ea4:	d116      	bne.n	8002ed4 <RemoveDelayList+0x58>
 8002ea6:	687b      	ldr	r3, [r7, #4]
 8002ea8:	6a5a      	ldr	r2, [r3, #36]	; 0x24
 8002eaa:	4b23      	ldr	r3, [pc, #140]	; (8002f38 <RemoveDelayList+0xbc>)
 8002eac:	601a      	str	r2, [r3, #0]
 8002eae:	687b      	ldr	r3, [r7, #4]
 8002eb0:	6a5b      	ldr	r3, [r3, #36]	; 0x24
 8002eb2:	687a      	ldr	r2, [r7, #4]
 8002eb4:	6a52      	ldr	r2, [r2, #36]	; 0x24
 8002eb6:	6a11      	ldr	r1, [r2, #32]
 8002eb8:	687a      	ldr	r2, [r7, #4]
 8002eba:	6a12      	ldr	r2, [r2, #32]
 8002ebc:	188a      	adds	r2, r1, r2
 8002ebe:	621a      	str	r2, [r3, #32]
 8002ec0:	687b      	ldr	r3, [r7, #4]
 8002ec2:	6a5b      	ldr	r3, [r3, #36]	; 0x24
 8002ec4:	f04f 0200 	mov.w	r2, #0
 8002ec8:	629a      	str	r2, [r3, #40]	; 0x28
 8002eca:	687b      	ldr	r3, [r7, #4]
 8002ecc:	f04f 0200 	mov.w	r2, #0
 8002ed0:	625a      	str	r2, [r3, #36]	; 0x24
 8002ed2:	e028      	b.n	8002f26 <RemoveDelayList+0xaa>
 8002ed4:	687b      	ldr	r3, [r7, #4]
 8002ed6:	6a5b      	ldr	r3, [r3, #36]	; 0x24
 8002ed8:	2b00      	cmp	r3, #0
 8002eda:	d109      	bne.n	8002ef0 <RemoveDelayList+0x74>
 8002edc:	687b      	ldr	r3, [r7, #4]
 8002ede:	6a9b      	ldr	r3, [r3, #40]	; 0x28
 8002ee0:	f04f 0200 	mov.w	r2, #0
 8002ee4:	625a      	str	r2, [r3, #36]	; 0x24
 8002ee6:	687b      	ldr	r3, [r7, #4]
 8002ee8:	f04f 0200 	mov.w	r2, #0
 8002eec:	629a      	str	r2, [r3, #40]	; 0x28
 8002eee:	e01a      	b.n	8002f26 <RemoveDelayList+0xaa>
 8002ef0:	687b      	ldr	r3, [r7, #4]
 8002ef2:	6a9b      	ldr	r3, [r3, #40]	; 0x28
 8002ef4:	687a      	ldr	r2, [r7, #4]
 8002ef6:	6a52      	ldr	r2, [r2, #36]	; 0x24
 8002ef8:	625a      	str	r2, [r3, #36]	; 0x24
 8002efa:	687b      	ldr	r3, [r7, #4]
 8002efc:	6a5b      	ldr	r3, [r3, #36]	; 0x24
 8002efe:	687a      	ldr	r2, [r7, #4]
 8002f00:	6a92      	ldr	r2, [r2, #40]	; 0x28
 8002f02:	629a      	str	r2, [r3, #40]	; 0x28
 8002f04:	687b      	ldr	r3, [r7, #4]
 8002f06:	6a5b      	ldr	r3, [r3, #36]	; 0x24
 8002f08:	687a      	ldr	r2, [r7, #4]
 8002f0a:	6a52      	ldr	r2, [r2, #36]	; 0x24
 8002f0c:	6a11      	ldr	r1, [r2, #32]
 8002f0e:	687a      	ldr	r2, [r7, #4]
 8002f10:	6a12      	ldr	r2, [r2, #32]
 8002f12:	188a      	adds	r2, r1, r2
 8002f14:	621a      	str	r2, [r3, #32]
 8002f16:	687b      	ldr	r3, [r7, #4]
 8002f18:	f04f 0200 	mov.w	r2, #0
 8002f1c:	625a      	str	r2, [r3, #36]	; 0x24
 8002f1e:	687b      	ldr	r3, [r7, #4]
 8002f20:	f04f 0200 	mov.w	r2, #0
 8002f24:	629a      	str	r2, [r3, #40]	; 0x28
 8002f26:	687b      	ldr	r3, [r7, #4]
 8002f28:	f04f 32ff 	mov.w	r2, #4294967295
 8002f2c:	621a      	str	r2, [r3, #32]
 8002f2e:	f107 070c 	add.w	r7, r7, #12
 8002f32:	46bd      	mov	sp, r7
 8002f34:	bc80      	pop	{r7}
 8002f36:	4770      	bx	lr
 8002f38:	200003d8 	.word	0x200003d8

08002f3c <CoTickDelay>:
 8002f3c:	b580      	push	{r7, lr}
 8002f3e:	b082      	sub	sp, #8
 8002f40:	af00      	add	r7, sp, #0
 8002f42:	6078      	str	r0, [r7, #4]
 8002f44:	4b19      	ldr	r3, [pc, #100]	; (8002fac <CoTickDelay+0x70>)
 8002f46:	781b      	ldrb	r3, [r3, #0]
 8002f48:	b2db      	uxtb	r3, r3
 8002f4a:	2b00      	cmp	r3, #0
 8002f4c:	d002      	beq.n	8002f54 <CoTickDelay+0x18>
 8002f4e:	f04f 0303 	mov.w	r3, #3
 8002f52:	e026      	b.n	8002fa2 <CoTickDelay+0x66>
 8002f54:	687b      	ldr	r3, [r7, #4]
 8002f56:	f1b3 3fff 	cmp.w	r3, #4294967295
 8002f5a:	d102      	bne.n	8002f62 <CoTickDelay+0x26>
 8002f5c:	f04f 0302 	mov.w	r3, #2
 8002f60:	e01f      	b.n	8002fa2 <CoTickDelay+0x66>
 8002f62:	687b      	ldr	r3, [r7, #4]
 8002f64:	2b00      	cmp	r3, #0
 8002f66:	d102      	bne.n	8002f6e <CoTickDelay+0x32>
 8002f68:	f04f 0300 	mov.w	r3, #0
 8002f6c:	e019      	b.n	8002fa2 <CoTickDelay+0x66>
 8002f6e:	4b10      	ldr	r3, [pc, #64]	; (8002fb0 <CoTickDelay+0x74>)
 8002f70:	781b      	ldrb	r3, [r3, #0]
 8002f72:	b2db      	uxtb	r3, r3
 8002f74:	2b00      	cmp	r3, #0
 8002f76:	d002      	beq.n	8002f7e <CoTickDelay+0x42>
 8002f78:	f04f 0315 	mov.w	r3, #21
 8002f7c:	e011      	b.n	8002fa2 <CoTickDelay+0x66>
 8002f7e:	4b0c      	ldr	r3, [pc, #48]	; (8002fb0 <CoTickDelay+0x74>)
 8002f80:	781b      	ldrb	r3, [r3, #0]
 8002f82:	b2db      	uxtb	r3, r3
 8002f84:	f103 0301 	add.w	r3, r3, #1
 8002f88:	b2da      	uxtb	r2, r3
 8002f8a:	4b09      	ldr	r3, [pc, #36]	; (8002fb0 <CoTickDelay+0x74>)
 8002f8c:	701a      	strb	r2, [r3, #0]
 8002f8e:	4b09      	ldr	r3, [pc, #36]	; (8002fb4 <CoTickDelay+0x78>)
 8002f90:	681b      	ldr	r3, [r3, #0]
 8002f92:	4618      	mov	r0, r3
 8002f94:	6879      	ldr	r1, [r7, #4]
 8002f96:	f7ff fef7 	bl	8002d88 <InsertDelayList>
 8002f9a:	f7fd f919 	bl	80001d0 <OsSchedUnlock>
 8002f9e:	f04f 0300 	mov.w	r3, #0
 8002fa2:	4618      	mov	r0, r3
 8002fa4:	f107 0708 	add.w	r7, r7, #8
 8002fa8:	46bd      	mov	sp, r7
 8002faa:	bd80      	pop	{r7, pc}
 8002fac:	200001e4 	.word	0x200001e4
 8002fb0:	200001e5 	.word	0x200001e5
 8002fb4:	20000398 	.word	0x20000398

08002fb8 <TimeDispose>:
 8002fb8:	b580      	push	{r7, lr}
 8002fba:	b082      	sub	sp, #8
 8002fbc:	af00      	add	r7, sp, #0
 8002fbe:	4b1c      	ldr	r3, [pc, #112]	; (8003030 <TimeDispose+0x78>)
 8002fc0:	681b      	ldr	r3, [r3, #0]
 8002fc2:	607b      	str	r3, [r7, #4]
 8002fc4:	e028      	b.n	8003018 <TimeDispose+0x60>
 8002fc6:	687b      	ldr	r3, [r7, #4]
 8002fc8:	7a1b      	ldrb	r3, [r3, #8]
 8002fca:	2bff      	cmp	r3, #255	; 0xff
 8002fcc:	d002      	beq.n	8002fd4 <TimeDispose+0x1c>
 8002fce:	6878      	ldr	r0, [r7, #4]
 8002fd0:	f000 f9f0 	bl	80033b4 <RemoveEventWaittingList>
 8002fd4:	687b      	ldr	r3, [r7, #4]
 8002fd6:	69db      	ldr	r3, [r3, #28]
 8002fd8:	2b00      	cmp	r3, #0
 8002fda:	d004      	beq.n	8002fe6 <TimeDispose+0x2e>
 8002fdc:	687b      	ldr	r3, [r7, #4]
 8002fde:	69db      	ldr	r3, [r3, #28]
 8002fe0:	4618      	mov	r0, r3
 8002fe2:	f000 fee3 	bl	8003dac <RemoveLinkNode>
 8002fe6:	687b      	ldr	r3, [r7, #4]
 8002fe8:	f04f 32ff 	mov.w	r2, #4294967295
 8002fec:	621a      	str	r2, [r3, #32]
 8002fee:	687b      	ldr	r3, [r7, #4]
 8002ff0:	6a5a      	ldr	r2, [r3, #36]	; 0x24
 8002ff2:	4b0f      	ldr	r3, [pc, #60]	; (8003030 <TimeDispose+0x78>)
 8002ff4:	601a      	str	r2, [r3, #0]
 8002ff6:	687b      	ldr	r3, [r7, #4]
 8002ff8:	f04f 0200 	mov.w	r2, #0
 8002ffc:	625a      	str	r2, [r3, #36]	; 0x24
 8002ffe:	6878      	ldr	r0, [r7, #4]
 8003000:	f7fe fcd0 	bl	80019a4 <InsertToTCBRdyList>
 8003004:	4b0a      	ldr	r3, [pc, #40]	; (8003030 <TimeDispose+0x78>)
 8003006:	681b      	ldr	r3, [r3, #0]
 8003008:	607b      	str	r3, [r7, #4]
 800300a:	687b      	ldr	r3, [r7, #4]
 800300c:	2b00      	cmp	r3, #0
 800300e:	d003      	beq.n	8003018 <TimeDispose+0x60>
 8003010:	687b      	ldr	r3, [r7, #4]
 8003012:	f04f 0200 	mov.w	r2, #0
 8003016:	629a      	str	r2, [r3, #40]	; 0x28
 8003018:	687b      	ldr	r3, [r7, #4]
 800301a:	2b00      	cmp	r3, #0
 800301c:	d003      	beq.n	8003026 <TimeDispose+0x6e>
 800301e:	687b      	ldr	r3, [r7, #4]
 8003020:	6a1b      	ldr	r3, [r3, #32]
 8003022:	2b00      	cmp	r3, #0
 8003024:	d0cf      	beq.n	8002fc6 <TimeDispose+0xe>
 8003026:	f107 0708 	add.w	r7, r7, #8
 800302a:	46bd      	mov	sp, r7
 800302c:	bd80      	pop	{r7, pc}
 800302e:	bf00      	nop
 8003030:	200003d8 	.word	0x200003d8

08003034 <isr_TimeDispose>:
 8003034:	b580      	push	{r7, lr}
 8003036:	af00      	add	r7, sp, #0
 8003038:	4b08      	ldr	r3, [pc, #32]	; (800305c <isr_TimeDispose+0x28>)
 800303a:	781b      	ldrb	r3, [r3, #0]
 800303c:	b2db      	uxtb	r3, r3
 800303e:	2b01      	cmp	r3, #1
 8003040:	d908      	bls.n	8003054 <isr_TimeDispose+0x20>
 8003042:	4b07      	ldr	r3, [pc, #28]	; (8003060 <isr_TimeDispose+0x2c>)
 8003044:	f04f 0201 	mov.w	r2, #1
 8003048:	701a      	strb	r2, [r3, #0]
 800304a:	4b06      	ldr	r3, [pc, #24]	; (8003064 <isr_TimeDispose+0x30>)
 800304c:	f04f 0201 	mov.w	r2, #1
 8003050:	701a      	strb	r2, [r3, #0]
 8003052:	e001      	b.n	8003058 <isr_TimeDispose+0x24>
 8003054:	f7ff ffb0 	bl	8002fb8 <TimeDispose>
 8003058:	bd80      	pop	{r7, pc}
 800305a:	bf00      	nop
 800305c:	200001e5 	.word	0x200001e5
 8003060:	200003d4 	.word	0x200003d4
 8003064:	200003d5 	.word	0x200003d5

08003068 <CreateEventList>:
 8003068:	b480      	push	{r7}
 800306a:	b085      	sub	sp, #20
 800306c:	af00      	add	r7, sp, #0
 800306e:	f04f 0300 	mov.w	r3, #0
 8003072:	73fb      	strb	r3, [r7, #15]
 8003074:	4b1b      	ldr	r3, [pc, #108]	; (80030e4 <CreateEventList+0x7c>)
 8003076:	60bb      	str	r3, [r7, #8]
 8003078:	4b1b      	ldr	r3, [pc, #108]	; (80030e8 <CreateEventList+0x80>)
 800307a:	607b      	str	r3, [r7, #4]
 800307c:	e018      	b.n	80030b0 <CreateEventList+0x48>
 800307e:	68bb      	ldr	r3, [r7, #8]
 8003080:	687a      	ldr	r2, [r7, #4]
 8003082:	601a      	str	r2, [r3, #0]
 8003084:	68bb      	ldr	r3, [r7, #8]
 8003086:	7bfa      	ldrb	r2, [r7, #15]
 8003088:	711a      	strb	r2, [r3, #4]
 800308a:	68ba      	ldr	r2, [r7, #8]
 800308c:	7953      	ldrb	r3, [r2, #5]
 800308e:	f04f 0104 	mov.w	r1, #4
 8003092:	f361 0303 	bfi	r3, r1, #0, #4
 8003096:	7153      	strb	r3, [r2, #5]
 8003098:	68bb      	ldr	r3, [r7, #8]
 800309a:	f103 0310 	add.w	r3, r3, #16
 800309e:	60bb      	str	r3, [r7, #8]
 80030a0:	687b      	ldr	r3, [r7, #4]
 80030a2:	f103 0310 	add.w	r3, r3, #16
 80030a6:	607b      	str	r3, [r7, #4]
 80030a8:	7bfb      	ldrb	r3, [r7, #15]
 80030aa:	f103 0301 	add.w	r3, r3, #1
 80030ae:	73fb      	strb	r3, [r7, #15]
 80030b0:	7bfb      	ldrb	r3, [r7, #15]
 80030b2:	2b12      	cmp	r3, #18
 80030b4:	d9e3      	bls.n	800307e <CreateEventList+0x16>
 80030b6:	68ba      	ldr	r2, [r7, #8]
 80030b8:	7953      	ldrb	r3, [r2, #5]
 80030ba:	f04f 0104 	mov.w	r1, #4
 80030be:	f361 0303 	bfi	r3, r1, #0, #4
 80030c2:	7153      	strb	r3, [r2, #5]
 80030c4:	68bb      	ldr	r3, [r7, #8]
 80030c6:	f04f 0200 	mov.w	r2, #0
 80030ca:	601a      	str	r2, [r3, #0]
 80030cc:	68bb      	ldr	r3, [r7, #8]
 80030ce:	7bfa      	ldrb	r2, [r7, #15]
 80030d0:	711a      	strb	r2, [r3, #4]
 80030d2:	4b06      	ldr	r3, [pc, #24]	; (80030ec <CreateEventList+0x84>)
 80030d4:	4a03      	ldr	r2, [pc, #12]	; (80030e4 <CreateEventList+0x7c>)
 80030d6:	601a      	str	r2, [r3, #0]
 80030d8:	f107 0714 	add.w	r7, r7, #20
 80030dc:	46bd      	mov	sp, r7
 80030de:	bc80      	pop	{r7}
 80030e0:	4770      	bx	lr
 80030e2:	bf00      	nop
 80030e4:	200003dc 	.word	0x200003dc
 80030e8:	200003ec 	.word	0x200003ec
 80030ec:	2000051c 	.word	0x2000051c

080030f0 <CreatEvent>:
 80030f0:	b580      	push	{r7, lr}
 80030f2:	b084      	sub	sp, #16
 80030f4:	af00      	add	r7, sp, #0
 80030f6:	460b      	mov	r3, r1
 80030f8:	603a      	str	r2, [r7, #0]
 80030fa:	4602      	mov	r2, r0
 80030fc:	71fa      	strb	r2, [r7, #7]
 80030fe:	71bb      	strb	r3, [r7, #6]
 8003100:	4b1d      	ldr	r3, [pc, #116]	; (8003178 <CreatEvent+0x88>)
 8003102:	781b      	ldrb	r3, [r3, #0]
 8003104:	b2db      	uxtb	r3, r3
 8003106:	f103 0301 	add.w	r3, r3, #1
 800310a:	b2da      	uxtb	r2, r3
 800310c:	4b1a      	ldr	r3, [pc, #104]	; (8003178 <CreatEvent+0x88>)
 800310e:	701a      	strb	r2, [r3, #0]
 8003110:	4b1a      	ldr	r3, [pc, #104]	; (800317c <CreatEvent+0x8c>)
 8003112:	681b      	ldr	r3, [r3, #0]
 8003114:	2b00      	cmp	r3, #0
 8003116:	d104      	bne.n	8003122 <CreatEvent+0x32>
 8003118:	f7fd f85a 	bl	80001d0 <OsSchedUnlock>
 800311c:	f04f 0300 	mov.w	r3, #0
 8003120:	e024      	b.n	800316c <CreatEvent+0x7c>
 8003122:	4b16      	ldr	r3, [pc, #88]	; (800317c <CreatEvent+0x8c>)
 8003124:	681b      	ldr	r3, [r3, #0]
 8003126:	60fb      	str	r3, [r7, #12]
 8003128:	4b14      	ldr	r3, [pc, #80]	; (800317c <CreatEvent+0x8c>)
 800312a:	681b      	ldr	r3, [r3, #0]
 800312c:	681b      	ldr	r3, [r3, #0]
 800312e:	461a      	mov	r2, r3
 8003130:	4b12      	ldr	r3, [pc, #72]	; (800317c <CreatEvent+0x8c>)
 8003132:	601a      	str	r2, [r3, #0]
 8003134:	f7fd f84c 	bl	80001d0 <OsSchedUnlock>
 8003138:	79fb      	ldrb	r3, [r7, #7]
 800313a:	f003 030f 	and.w	r3, r3, #15
 800313e:	b2d9      	uxtb	r1, r3
 8003140:	68fa      	ldr	r2, [r7, #12]
 8003142:	7953      	ldrb	r3, [r2, #5]
 8003144:	f361 0303 	bfi	r3, r1, #0, #4
 8003148:	7153      	strb	r3, [r2, #5]
 800314a:	79bb      	ldrb	r3, [r7, #6]
 800314c:	f003 030f 	and.w	r3, r3, #15
 8003150:	b2d9      	uxtb	r1, r3
 8003152:	68fa      	ldr	r2, [r7, #12]
 8003154:	7953      	ldrb	r3, [r2, #5]
 8003156:	f361 1307 	bfi	r3, r1, #4, #4
 800315a:	7153      	strb	r3, [r2, #5]
 800315c:	68fb      	ldr	r3, [r7, #12]
 800315e:	683a      	ldr	r2, [r7, #0]
 8003160:	601a      	str	r2, [r3, #0]
 8003162:	68fb      	ldr	r3, [r7, #12]
 8003164:	f04f 0200 	mov.w	r2, #0
 8003168:	60da      	str	r2, [r3, #12]
 800316a:	68fb      	ldr	r3, [r7, #12]
 800316c:	4618      	mov	r0, r3
 800316e:	f107 0710 	add.w	r7, r7, #16
 8003172:	46bd      	mov	sp, r7
 8003174:	bd80      	pop	{r7, pc}
 8003176:	bf00      	nop
 8003178:	200001e5 	.word	0x200001e5
 800317c:	2000051c 	.word	0x2000051c

08003180 <EventTaskToWait>:
 8003180:	b580      	push	{r7, lr}
 8003182:	b084      	sub	sp, #16
 8003184:	af00      	add	r7, sp, #0
 8003186:	6078      	str	r0, [r7, #4]
 8003188:	6039      	str	r1, [r7, #0]
 800318a:	4b3e      	ldr	r3, [pc, #248]	; (8003284 <EventTaskToWait+0x104>)
 800318c:	781b      	ldrb	r3, [r3, #0]
 800318e:	b2db      	uxtb	r3, r3
 8003190:	f103 0301 	add.w	r3, r3, #1
 8003194:	b2da      	uxtb	r2, r3
 8003196:	4b3b      	ldr	r3, [pc, #236]	; (8003284 <EventTaskToWait+0x104>)
 8003198:	701a      	strb	r2, [r3, #0]
 800319a:	687b      	ldr	r3, [r7, #4]
 800319c:	68db      	ldr	r3, [r3, #12]
 800319e:	60fb      	str	r3, [r7, #12]
 80031a0:	687b      	ldr	r3, [r7, #4]
 80031a2:	791a      	ldrb	r2, [r3, #4]
 80031a4:	683b      	ldr	r3, [r7, #0]
 80031a6:	721a      	strb	r2, [r3, #8]
 80031a8:	687b      	ldr	r3, [r7, #4]
 80031aa:	795b      	ldrb	r3, [r3, #5]
 80031ac:	f023 030f 	bic.w	r3, r3, #15
 80031b0:	b2db      	uxtb	r3, r3
 80031b2:	2b10      	cmp	r3, #16
 80031b4:	d116      	bne.n	80031e4 <EventTaskToWait+0x64>
 80031b6:	68fb      	ldr	r3, [r7, #12]
 80031b8:	2b00      	cmp	r3, #0
 80031ba:	d107      	bne.n	80031cc <EventTaskToWait+0x4c>
 80031bc:	687b      	ldr	r3, [r7, #4]
 80031be:	683a      	ldr	r2, [r7, #0]
 80031c0:	60da      	str	r2, [r3, #12]
 80031c2:	e050      	b.n	8003266 <EventTaskToWait+0xe6>
 80031c4:	68fb      	ldr	r3, [r7, #12]
 80031c6:	695b      	ldr	r3, [r3, #20]
 80031c8:	60fb      	str	r3, [r7, #12]
 80031ca:	e000      	b.n	80031ce <EventTaskToWait+0x4e>
 80031cc:	bf00      	nop
 80031ce:	68fb      	ldr	r3, [r7, #12]
 80031d0:	695b      	ldr	r3, [r3, #20]
 80031d2:	2b00      	cmp	r3, #0
 80031d4:	d1f6      	bne.n	80031c4 <EventTaskToWait+0x44>
 80031d6:	68fb      	ldr	r3, [r7, #12]
 80031d8:	683a      	ldr	r2, [r7, #0]
 80031da:	615a      	str	r2, [r3, #20]
 80031dc:	683b      	ldr	r3, [r7, #0]
 80031de:	68fa      	ldr	r2, [r7, #12]
 80031e0:	619a      	str	r2, [r3, #24]
 80031e2:	e040      	b.n	8003266 <EventTaskToWait+0xe6>
 80031e4:	687b      	ldr	r3, [r7, #4]
 80031e6:	795b      	ldrb	r3, [r3, #5]
 80031e8:	f023 030f 	bic.w	r3, r3, #15
 80031ec:	b2db      	uxtb	r3, r3
 80031ee:	2b20      	cmp	r3, #32
 80031f0:	d139      	bne.n	8003266 <EventTaskToWait+0xe6>
 80031f2:	68fb      	ldr	r3, [r7, #12]
 80031f4:	2b00      	cmp	r3, #0
 80031f6:	d103      	bne.n	8003200 <EventTaskToWait+0x80>
 80031f8:	687b      	ldr	r3, [r7, #4]
 80031fa:	683a      	ldr	r2, [r7, #0]
 80031fc:	60da      	str	r2, [r3, #12]
 80031fe:	e032      	b.n	8003266 <EventTaskToWait+0xe6>
 8003200:	68fb      	ldr	r3, [r7, #12]
 8003202:	791a      	ldrb	r2, [r3, #4]
 8003204:	683b      	ldr	r3, [r7, #0]
 8003206:	791b      	ldrb	r3, [r3, #4]
 8003208:	429a      	cmp	r2, r3
 800320a:	d909      	bls.n	8003220 <EventTaskToWait+0xa0>
 800320c:	687b      	ldr	r3, [r7, #4]
 800320e:	683a      	ldr	r2, [r7, #0]
 8003210:	60da      	str	r2, [r3, #12]
 8003212:	683b      	ldr	r3, [r7, #0]
 8003214:	68fa      	ldr	r2, [r7, #12]
 8003216:	615a      	str	r2, [r3, #20]
 8003218:	68fb      	ldr	r3, [r7, #12]
 800321a:	683a      	ldr	r2, [r7, #0]
 800321c:	619a      	str	r2, [r3, #24]
 800321e:	e022      	b.n	8003266 <EventTaskToWait+0xe6>
 8003220:	68fb      	ldr	r3, [r7, #12]
 8003222:	695b      	ldr	r3, [r3, #20]
 8003224:	60bb      	str	r3, [r7, #8]
 8003226:	e00a      	b.n	800323e <EventTaskToWait+0xbe>
 8003228:	68bb      	ldr	r3, [r7, #8]
 800322a:	791a      	ldrb	r2, [r3, #4]
 800322c:	683b      	ldr	r3, [r7, #0]
 800322e:	791b      	ldrb	r3, [r3, #4]
 8003230:	429a      	cmp	r2, r3
 8003232:	d808      	bhi.n	8003246 <EventTaskToWait+0xc6>
 8003234:	68bb      	ldr	r3, [r7, #8]
 8003236:	60fb      	str	r3, [r7, #12]
 8003238:	68bb      	ldr	r3, [r7, #8]
 800323a:	695b      	ldr	r3, [r3, #20]
 800323c:	60bb      	str	r3, [r7, #8]
 800323e:	68bb      	ldr	r3, [r7, #8]
 8003240:	2b00      	cmp	r3, #0
 8003242:	d1f1      	bne.n	8003228 <EventTaskToWait+0xa8>
 8003244:	e000      	b.n	8003248 <EventTaskToWait+0xc8>
 8003246:	bf00      	nop
 8003248:	68fb      	ldr	r3, [r7, #12]
 800324a:	683a      	ldr	r2, [r7, #0]
 800324c:	615a      	str	r2, [r3, #20]
 800324e:	683b      	ldr	r3, [r7, #0]
 8003250:	68fa      	ldr	r2, [r7, #12]
 8003252:	619a      	str	r2, [r3, #24]
 8003254:	683b      	ldr	r3, [r7, #0]
 8003256:	68ba      	ldr	r2, [r7, #8]
 8003258:	615a      	str	r2, [r3, #20]
 800325a:	68bb      	ldr	r3, [r7, #8]
 800325c:	2b00      	cmp	r3, #0
 800325e:	d002      	beq.n	8003266 <EventTaskToWait+0xe6>
 8003260:	68bb      	ldr	r3, [r7, #8]
 8003262:	683a      	ldr	r2, [r7, #0]
 8003264:	619a      	str	r2, [r3, #24]
 8003266:	683b      	ldr	r3, [r7, #0]
 8003268:	f04f 0202 	mov.w	r2, #2
 800326c:	715a      	strb	r2, [r3, #5]
 800326e:	4b06      	ldr	r3, [pc, #24]	; (8003288 <EventTaskToWait+0x108>)
 8003270:	f04f 0201 	mov.w	r2, #1
 8003274:	701a      	strb	r2, [r3, #0]
 8003276:	f7fc ffab 	bl	80001d0 <OsSchedUnlock>
 800327a:	f107 0710 	add.w	r7, r7, #16
 800327e:	46bd      	mov	sp, r7
 8003280:	bd80      	pop	{r7, pc}
 8003282:	bf00      	nop
 8003284:	200001e5 	.word	0x200001e5
 8003288:	200001e6 	.word	0x200001e6

0800328c <EventTaskToRdy>:
 800328c:	b580      	push	{r7, lr}
 800328e:	b084      	sub	sp, #16
 8003290:	af00      	add	r7, sp, #0
 8003292:	6078      	str	r0, [r7, #4]
 8003294:	687b      	ldr	r3, [r7, #4]
 8003296:	68db      	ldr	r3, [r3, #12]
 8003298:	60fb      	str	r3, [r7, #12]
 800329a:	68fb      	ldr	r3, [r7, #12]
 800329c:	2b00      	cmp	r3, #0
 800329e:	f000 8081 	beq.w	80033a4 <EventTaskToRdy+0x118>
 80032a2:	68fb      	ldr	r3, [r7, #12]
 80032a4:	695a      	ldr	r2, [r3, #20]
 80032a6:	687b      	ldr	r3, [r7, #4]
 80032a8:	60da      	str	r2, [r3, #12]
 80032aa:	687b      	ldr	r3, [r7, #4]
 80032ac:	68db      	ldr	r3, [r3, #12]
 80032ae:	2b00      	cmp	r3, #0
 80032b0:	d004      	beq.n	80032bc <EventTaskToRdy+0x30>
 80032b2:	687b      	ldr	r3, [r7, #4]
 80032b4:	68db      	ldr	r3, [r3, #12]
 80032b6:	f04f 0200 	mov.w	r2, #0
 80032ba:	619a      	str	r2, [r3, #24]
 80032bc:	68fb      	ldr	r3, [r7, #12]
 80032be:	f04f 0200 	mov.w	r2, #0
 80032c2:	615a      	str	r2, [r3, #20]
 80032c4:	68fb      	ldr	r3, [r7, #12]
 80032c6:	f04f 02ff 	mov.w	r2, #255	; 0xff
 80032ca:	721a      	strb	r2, [r3, #8]
 80032cc:	68fb      	ldr	r3, [r7, #12]
 80032ce:	6a1b      	ldr	r3, [r3, #32]
 80032d0:	f1b3 3fff 	cmp.w	r3, #4294967295
 80032d4:	d002      	beq.n	80032dc <EventTaskToRdy+0x50>
 80032d6:	68f8      	ldr	r0, [r7, #12]
 80032d8:	f7ff fdd0 	bl	8002e7c <RemoveDelayList>
 80032dc:	687b      	ldr	r3, [r7, #4]
 80032de:	795b      	ldrb	r3, [r3, #5]
 80032e0:	f003 030f 	and.w	r3, r3, #15
 80032e4:	b2db      	uxtb	r3, r3
 80032e6:	2b02      	cmp	r3, #2
 80032e8:	d10f      	bne.n	800330a <EventTaskToRdy+0x7e>
 80032ea:	687b      	ldr	r3, [r7, #4]
 80032ec:	681a      	ldr	r2, [r3, #0]
 80032ee:	68fb      	ldr	r3, [r7, #12]
 80032f0:	611a      	str	r2, [r3, #16]
 80032f2:	687b      	ldr	r3, [r7, #4]
 80032f4:	f04f 0200 	mov.w	r2, #0
 80032f8:	601a      	str	r2, [r3, #0]
 80032fa:	687b      	ldr	r3, [r7, #4]
 80032fc:	88db      	ldrh	r3, [r3, #6]
 80032fe:	f103 33ff 	add.w	r3, r3, #4294967295
 8003302:	b29a      	uxth	r2, r3
 8003304:	687b      	ldr	r3, [r7, #4]
 8003306:	80da      	strh	r2, [r3, #6]
 8003308:	e03e      	b.n	8003388 <EventTaskToRdy+0xfc>
 800330a:	687b      	ldr	r3, [r7, #4]
 800330c:	795b      	ldrb	r3, [r3, #5]
 800330e:	f003 030f 	and.w	r3, r3, #15
 8003312:	b2db      	uxtb	r3, r3
 8003314:	2b03      	cmp	r3, #3
 8003316:	d125      	bne.n	8003364 <EventTaskToRdy+0xd8>
 8003318:	687b      	ldr	r3, [r7, #4]
 800331a:	681b      	ldr	r3, [r3, #0]
 800331c:	60bb      	str	r3, [r7, #8]
 800331e:	68bb      	ldr	r3, [r7, #8]
 8003320:	681a      	ldr	r2, [r3, #0]
 8003322:	68bb      	ldr	r3, [r7, #8]
 8003324:	88db      	ldrh	r3, [r3, #6]
 8003326:	ea4f 0383 	mov.w	r3, r3, lsl #2
 800332a:	18d3      	adds	r3, r2, r3
 800332c:	681a      	ldr	r2, [r3, #0]
 800332e:	68fb      	ldr	r3, [r7, #12]
 8003330:	611a      	str	r2, [r3, #16]
 8003332:	68bb      	ldr	r3, [r7, #8]
 8003334:	88db      	ldrh	r3, [r3, #6]
 8003336:	f103 0301 	add.w	r3, r3, #1
 800333a:	b29a      	uxth	r2, r3
 800333c:	68bb      	ldr	r3, [r7, #8]
 800333e:	80da      	strh	r2, [r3, #6]
 8003340:	68bb      	ldr	r3, [r7, #8]
 8003342:	899b      	ldrh	r3, [r3, #12]
 8003344:	f103 33ff 	add.w	r3, r3, #4294967295
 8003348:	b29a      	uxth	r2, r3
 800334a:	68bb      	ldr	r3, [r7, #8]
 800334c:	819a      	strh	r2, [r3, #12]
 800334e:	68bb      	ldr	r3, [r7, #8]
 8003350:	88da      	ldrh	r2, [r3, #6]
 8003352:	68bb      	ldr	r3, [r7, #8]
 8003354:	895b      	ldrh	r3, [r3, #10]
 8003356:	429a      	cmp	r2, r3
 8003358:	d116      	bne.n	8003388 <EventTaskToRdy+0xfc>
 800335a:	68bb      	ldr	r3, [r7, #8]
 800335c:	f04f 0200 	mov.w	r2, #0
 8003360:	80da      	strh	r2, [r3, #6]
 8003362:	e011      	b.n	8003388 <EventTaskToRdy+0xfc>
 8003364:	687b      	ldr	r3, [r7, #4]
 8003366:	795b      	ldrb	r3, [r3, #5]
 8003368:	f003 030f 	and.w	r3, r3, #15
 800336c:	b2db      	uxtb	r3, r3
 800336e:	2b01      	cmp	r3, #1
 8003370:	d10a      	bne.n	8003388 <EventTaskToRdy+0xfc>
 8003372:	687b      	ldr	r3, [r7, #4]
 8003374:	88db      	ldrh	r3, [r3, #6]
 8003376:	f103 33ff 	add.w	r3, r3, #4294967295
 800337a:	b29a      	uxth	r2, r3
 800337c:	687b      	ldr	r3, [r7, #4]
 800337e:	80da      	strh	r2, [r3, #6]
 8003380:	68fb      	ldr	r3, [r7, #12]
 8003382:	f04f 32ff 	mov.w	r2, #4294967295
 8003386:	611a      	str	r2, [r3, #16]
 8003388:	4b09      	ldr	r3, [pc, #36]	; (80033b0 <EventTaskToRdy+0x124>)
 800338a:	681b      	ldr	r3, [r3, #0]
 800338c:	68fa      	ldr	r2, [r7, #12]
 800338e:	429a      	cmp	r2, r3
 8003390:	d104      	bne.n	800339c <EventTaskToRdy+0x110>
 8003392:	68fb      	ldr	r3, [r7, #12]
 8003394:	f04f 0201 	mov.w	r2, #1
 8003398:	715a      	strb	r2, [r3, #5]
 800339a:	e004      	b.n	80033a6 <EventTaskToRdy+0x11a>
 800339c:	68f8      	ldr	r0, [r7, #12]
 800339e:	f7fe fb01 	bl	80019a4 <InsertToTCBRdyList>
 80033a2:	e000      	b.n	80033a6 <EventTaskToRdy+0x11a>
 80033a4:	bf00      	nop
 80033a6:	f107 0710 	add.w	r7, r7, #16
 80033aa:	46bd      	mov	sp, r7
 80033ac:	bd80      	pop	{r7, pc}
 80033ae:	bf00      	nop
 80033b0:	20000398 	.word	0x20000398

080033b4 <RemoveEventWaittingList>:
 80033b4:	b480      	push	{r7}
 80033b6:	b085      	sub	sp, #20
 80033b8:	af00      	add	r7, sp, #0
 80033ba:	6078      	str	r0, [r7, #4]
 80033bc:	687b      	ldr	r3, [r7, #4]
 80033be:	7a1b      	ldrb	r3, [r3, #8]
 80033c0:	ea4f 1203 	mov.w	r2, r3, lsl #4
 80033c4:	4b25      	ldr	r3, [pc, #148]	; (800345c <RemoveEventWaittingList+0xa8>)
 80033c6:	18d3      	adds	r3, r2, r3
 80033c8:	60fb      	str	r3, [r7, #12]
 80033ca:	687b      	ldr	r3, [r7, #4]
 80033cc:	695b      	ldr	r3, [r3, #20]
 80033ce:	2b00      	cmp	r3, #0
 80033d0:	d108      	bne.n	80033e4 <RemoveEventWaittingList+0x30>
 80033d2:	687b      	ldr	r3, [r7, #4]
 80033d4:	699b      	ldr	r3, [r3, #24]
 80033d6:	2b00      	cmp	r3, #0
 80033d8:	d104      	bne.n	80033e4 <RemoveEventWaittingList+0x30>
 80033da:	68fb      	ldr	r3, [r7, #12]
 80033dc:	f04f 0200 	mov.w	r2, #0
 80033e0:	60da      	str	r2, [r3, #12]
 80033e2:	e031      	b.n	8003448 <RemoveEventWaittingList+0x94>
 80033e4:	687b      	ldr	r3, [r7, #4]
 80033e6:	699b      	ldr	r3, [r3, #24]
 80033e8:	2b00      	cmp	r3, #0
 80033ea:	d10d      	bne.n	8003408 <RemoveEventWaittingList+0x54>
 80033ec:	687b      	ldr	r3, [r7, #4]
 80033ee:	695b      	ldr	r3, [r3, #20]
 80033f0:	f04f 0200 	mov.w	r2, #0
 80033f4:	619a      	str	r2, [r3, #24]
 80033f6:	687b      	ldr	r3, [r7, #4]
 80033f8:	695a      	ldr	r2, [r3, #20]
 80033fa:	68fb      	ldr	r3, [r7, #12]
 80033fc:	60da      	str	r2, [r3, #12]
 80033fe:	687b      	ldr	r3, [r7, #4]
 8003400:	f04f 0200 	mov.w	r2, #0
 8003404:	615a      	str	r2, [r3, #20]
 8003406:	e01f      	b.n	8003448 <RemoveEventWaittingList+0x94>
 8003408:	687b      	ldr	r3, [r7, #4]
 800340a:	695b      	ldr	r3, [r3, #20]
 800340c:	2b00      	cmp	r3, #0
 800340e:	d109      	bne.n	8003424 <RemoveEventWaittingList+0x70>
 8003410:	687b      	ldr	r3, [r7, #4]
 8003412:	699b      	ldr	r3, [r3, #24]
 8003414:	f04f 0200 	mov.w	r2, #0
 8003418:	615a      	str	r2, [r3, #20]
 800341a:	687b      	ldr	r3, [r7, #4]
 800341c:	f04f 0200 	mov.w	r2, #0
 8003420:	619a      	str	r2, [r3, #24]
 8003422:	e011      	b.n	8003448 <RemoveEventWaittingList+0x94>
 8003424:	687b      	ldr	r3, [r7, #4]
 8003426:	699b      	ldr	r3, [r3, #24]
 8003428:	687a      	ldr	r2, [r7, #4]
 800342a:	6952      	ldr	r2, [r2, #20]
 800342c:	615a      	str	r2, [r3, #20]
 800342e:	687b      	ldr	r3, [r7, #4]
 8003430:	695b      	ldr	r3, [r3, #20]
 8003432:	687a      	ldr	r2, [r7, #4]
 8003434:	6992      	ldr	r2, [r2, #24]
 8003436:	619a      	str	r2, [r3, #24]
 8003438:	687b      	ldr	r3, [r7, #4]
 800343a:	f04f 0200 	mov.w	r2, #0
 800343e:	619a      	str	r2, [r3, #24]
 8003440:	687b      	ldr	r3, [r7, #4]
 8003442:	f04f 0200 	mov.w	r2, #0
 8003446:	615a      	str	r2, [r3, #20]
 8003448:	687b      	ldr	r3, [r7, #4]
 800344a:	f04f 02ff 	mov.w	r2, #255	; 0xff
 800344e:	721a      	strb	r2, [r3, #8]
 8003450:	f107 0714 	add.w	r7, r7, #20
 8003454:	46bd      	mov	sp, r7
 8003456:	bc80      	pop	{r7}
 8003458:	4770      	bx	lr
 800345a:	bf00      	nop
 800345c:	200003dc 	.word	0x200003dc

08003460 <Inc8>:
 8003460:	b490      	push	{r4, r7}
 8003462:	b082      	sub	sp, #8
 8003464:	af00      	add	r7, sp, #0
 8003466:	6078      	str	r0, [r7, #4]
 8003468:	f04f 0400 	mov.w	r4, #0
 800346c:	687b      	ldr	r3, [r7, #4]
 800346e:	b402      	push	{r1}
 8003470:	b672      	cpsid	i
 8003472:	7819      	ldrb	r1, [r3, #0]
 8003474:	f101 0101 	add.w	r1, r1, #1
 8003478:	7019      	strb	r1, [r3, #0]
 800347a:	b662      	cpsie	i
 800347c:	f1a1 0101 	sub.w	r1, r1, #1
 8003480:	000c      	movs	r4, r1
 8003482:	bc02      	pop	{r1}
 8003484:	b2e4      	uxtb	r4, r4
 8003486:	4623      	mov	r3, r4
 8003488:	4618      	mov	r0, r3
 800348a:	f107 0708 	add.w	r7, r7, #8
 800348e:	46bd      	mov	sp, r7
 8003490:	bc90      	pop	{r4, r7}
 8003492:	4770      	bx	lr

08003494 <Dec8>:
 8003494:	b490      	push	{r4, r7}
 8003496:	b082      	sub	sp, #8
 8003498:	af00      	add	r7, sp, #0
 800349a:	6078      	str	r0, [r7, #4]
 800349c:	f04f 0400 	mov.w	r4, #0
 80034a0:	687b      	ldr	r3, [r7, #4]
 80034a2:	b402      	push	{r1}
 80034a4:	b672      	cpsid	i
 80034a6:	7819      	ldrb	r1, [r3, #0]
 80034a8:	f1a1 0101 	sub.w	r1, r1, #1
 80034ac:	7019      	strb	r1, [r3, #0]
 80034ae:	b662      	cpsie	i
 80034b0:	000c      	movs	r4, r1
 80034b2:	bc02      	pop	{r1}
 80034b4:	b2e4      	uxtb	r4, r4
 80034b6:	4623      	mov	r3, r4
 80034b8:	4618      	mov	r0, r3
 80034ba:	f107 0708 	add.w	r7, r7, #8
 80034be:	46bd      	mov	sp, r7
 80034c0:	bc90      	pop	{r4, r7}
 80034c2:	4770      	bx	lr

080034c4 <IRQ_ENABLE_RESTORE>:
 80034c4:	b480      	push	{r7}
 80034c6:	af00      	add	r7, sp, #0
 80034c8:	b662      	cpsie	i
 80034ca:	46bd      	mov	sp, r7
 80034cc:	bc80      	pop	{r7}
 80034ce:	4770      	bx	lr

080034d0 <IRQ_DISABLE_SAVE>:
 80034d0:	b480      	push	{r7}
 80034d2:	af00      	add	r7, sp, #0
 80034d4:	b672      	cpsid	i
 80034d6:	46bd      	mov	sp, r7
 80034d8:	bc80      	pop	{r7}
 80034da:	4770      	bx	lr

080034dc <SetEnvironment>:
 80034dc:	f1a0 001c 	sub.w	r0, r0, #28
 80034e0:	f380 8809 	msr	PSP, r0
 80034e4:	4770      	bx	lr
 80034e6:	bf00      	nop

080034e8 <SwitchContext>:
 80034e8:	4b02      	ldr	r3, [pc, #8]	; (80034f4 <SwitchContext+0xc>)
 80034ea:	681b      	ldr	r3, [r3, #0]
 80034ec:	4a02      	ldr	r2, [pc, #8]	; (80034f8 <SwitchContext+0x10>)
 80034ee:	6811      	ldr	r1, [r2, #0]
 80034f0:	6019      	str	r1, [r3, #0]
 80034f2:	4770      	bx	lr
 80034f4:	20000100 	.word	0x20000100
 80034f8:	20000104 	.word	0x20000104

080034fc <PendSV_Handler>:
 80034fc:	4b0b      	ldr	r3, [pc, #44]	; (800352c <exitPendSV+0xe>)
 80034fe:	6819      	ldr	r1, [r3, #0]
 8003500:	4a0b      	ldr	r2, [pc, #44]	; (8003530 <exitPendSV+0x12>)
 8003502:	6812      	ldr	r2, [r2, #0]
 8003504:	4291      	cmp	r1, r2
 8003506:	d00a      	beq.n	800351e <exitPendSV>
 8003508:	f3ef 8009 	mrs	r0, PSP
 800350c:	e920 0ff0 	stmdb	r0!, {r4, r5, r6, r7, r8, r9, sl, fp}
 8003510:	6008      	str	r0, [r1, #0]
 8003512:	601a      	str	r2, [r3, #0]
 8003514:	6810      	ldr	r0, [r2, #0]
 8003516:	e8b0 0ff0 	ldmia.w	r0!, {r4, r5, r6, r7, r8, r9, sl, fp}
 800351a:	f380 8809 	msr	PSP, r0

0800351e <exitPendSV>:
 800351e:	4b05      	ldr	r3, [pc, #20]	; (8003534 <exitPendSV+0x16>)
 8003520:	2000      	movs	r0, #0
 8003522:	7018      	strb	r0, [r3, #0]
 8003524:	f04e 0e04 	orr.w	lr, lr, #4
 8003528:	4770      	bx	lr
 800352a:	0000      	.short	0x0000
 800352c:	20000398 	.word	0x20000398
 8003530:	20000394 	.word	0x20000394
 8003534:	200001e5 	.word	0x200001e5

08003538 <CoCreateQueue>:
 8003538:	b580      	push	{r7, lr}
 800353a:	b084      	sub	sp, #16
 800353c:	af00      	add	r7, sp, #0
 800353e:	6078      	str	r0, [r7, #4]
 8003540:	4613      	mov	r3, r2
 8003542:	460a      	mov	r2, r1
 8003544:	807a      	strh	r2, [r7, #2]
 8003546:	707b      	strb	r3, [r7, #1]
 8003548:	687b      	ldr	r3, [r7, #4]
 800354a:	2b00      	cmp	r3, #0
 800354c:	d002      	beq.n	8003554 <CoCreateQueue+0x1c>
 800354e:	887b      	ldrh	r3, [r7, #2]
 8003550:	2b00      	cmp	r3, #0
 8003552:	d102      	bne.n	800355a <CoCreateQueue+0x22>
 8003554:	f04f 03ff 	mov.w	r3, #255	; 0xff
 8003558:	e078      	b.n	800364c <CoCreateQueue+0x114>
 800355a:	4b3f      	ldr	r3, [pc, #252]	; (8003658 <CoCreateQueue+0x120>)
 800355c:	781b      	ldrb	r3, [r3, #0]
 800355e:	b2db      	uxtb	r3, r3
 8003560:	f103 0301 	add.w	r3, r3, #1
 8003564:	b2da      	uxtb	r2, r3
 8003566:	4b3c      	ldr	r3, [pc, #240]	; (8003658 <CoCreateQueue+0x120>)
 8003568:	701a      	strb	r2, [r3, #0]
 800356a:	f04f 0300 	mov.w	r3, #0
 800356e:	73fb      	strb	r3, [r7, #15]
 8003570:	e065      	b.n	800363e <CoCreateQueue+0x106>
 8003572:	7bfb      	ldrb	r3, [r7, #15]
 8003574:	f04f 0201 	mov.w	r2, #1
 8003578:	fa02 f303 	lsl.w	r3, r2, r3
 800357c:	461a      	mov	r2, r3
 800357e:	4b37      	ldr	r3, [pc, #220]	; (800365c <CoCreateQueue+0x124>)
 8003580:	681b      	ldr	r3, [r3, #0]
 8003582:	ea02 0303 	and.w	r3, r2, r3
 8003586:	2b00      	cmp	r3, #0
 8003588:	d155      	bne.n	8003636 <CoCreateQueue+0xfe>
 800358a:	7bfb      	ldrb	r3, [r7, #15]
 800358c:	f04f 0201 	mov.w	r2, #1
 8003590:	fa02 f303 	lsl.w	r3, r2, r3
 8003594:	461a      	mov	r2, r3
 8003596:	4b31      	ldr	r3, [pc, #196]	; (800365c <CoCreateQueue+0x124>)
 8003598:	681b      	ldr	r3, [r3, #0]
 800359a:	431a      	orrs	r2, r3
 800359c:	4b2f      	ldr	r3, [pc, #188]	; (800365c <CoCreateQueue+0x124>)
 800359e:	601a      	str	r2, [r3, #0]
 80035a0:	f7fc fe16 	bl	80001d0 <OsSchedUnlock>
 80035a4:	7bfb      	ldrb	r3, [r7, #15]
 80035a6:	4a2e      	ldr	r2, [pc, #184]	; (8003660 <CoCreateQueue+0x128>)
 80035a8:	ea4f 1303 	mov.w	r3, r3, lsl #4
 80035ac:	18d3      	adds	r3, r2, r3
 80035ae:	687a      	ldr	r2, [r7, #4]
 80035b0:	601a      	str	r2, [r3, #0]
 80035b2:	7bfb      	ldrb	r3, [r7, #15]
 80035b4:	4a2a      	ldr	r2, [pc, #168]	; (8003660 <CoCreateQueue+0x128>)
 80035b6:	ea4f 1303 	mov.w	r3, r3, lsl #4
 80035ba:	18d3      	adds	r3, r2, r3
 80035bc:	7bfa      	ldrb	r2, [r7, #15]
 80035be:	711a      	strb	r2, [r3, #4]
 80035c0:	7bfb      	ldrb	r3, [r7, #15]
 80035c2:	4a27      	ldr	r2, [pc, #156]	; (8003660 <CoCreateQueue+0x128>)
 80035c4:	ea4f 1303 	mov.w	r3, r3, lsl #4
 80035c8:	18d3      	adds	r3, r2, r3
 80035ca:	f04f 0200 	mov.w	r2, #0
 80035ce:	80da      	strh	r2, [r3, #6]
 80035d0:	7bfb      	ldrb	r3, [r7, #15]
 80035d2:	4a23      	ldr	r2, [pc, #140]	; (8003660 <CoCreateQueue+0x128>)
 80035d4:	ea4f 1303 	mov.w	r3, r3, lsl #4
 80035d8:	18d3      	adds	r3, r2, r3
 80035da:	f103 0308 	add.w	r3, r3, #8
 80035de:	f04f 0200 	mov.w	r2, #0
 80035e2:	801a      	strh	r2, [r3, #0]
 80035e4:	7bfb      	ldrb	r3, [r7, #15]
 80035e6:	4a1e      	ldr	r2, [pc, #120]	; (8003660 <CoCreateQueue+0x128>)
 80035e8:	ea4f 1303 	mov.w	r3, r3, lsl #4
 80035ec:	18d3      	adds	r3, r2, r3
 80035ee:	f103 0308 	add.w	r3, r3, #8
 80035f2:	887a      	ldrh	r2, [r7, #2]
 80035f4:	805a      	strh	r2, [r3, #2]
 80035f6:	7bfb      	ldrb	r3, [r7, #15]
 80035f8:	4a19      	ldr	r2, [pc, #100]	; (8003660 <CoCreateQueue+0x128>)
 80035fa:	ea4f 1303 	mov.w	r3, r3, lsl #4
 80035fe:	18d3      	adds	r3, r2, r3
 8003600:	f103 0308 	add.w	r3, r3, #8
 8003604:	f04f 0200 	mov.w	r2, #0
 8003608:	809a      	strh	r2, [r3, #4]
 800360a:	7bfb      	ldrb	r3, [r7, #15]
 800360c:	ea4f 1203 	mov.w	r2, r3, lsl #4
 8003610:	4b13      	ldr	r3, [pc, #76]	; (8003660 <CoCreateQueue+0x128>)
 8003612:	18d3      	adds	r3, r2, r3
 8003614:	787a      	ldrb	r2, [r7, #1]
 8003616:	f04f 0003 	mov.w	r0, #3
 800361a:	4611      	mov	r1, r2
 800361c:	461a      	mov	r2, r3
 800361e:	f7ff fd67 	bl	80030f0 <CreatEvent>
 8003622:	60b8      	str	r0, [r7, #8]
 8003624:	68bb      	ldr	r3, [r7, #8]
 8003626:	2b00      	cmp	r3, #0
 8003628:	d102      	bne.n	8003630 <CoCreateQueue+0xf8>
 800362a:	f04f 03ff 	mov.w	r3, #255	; 0xff
 800362e:	e00d      	b.n	800364c <CoCreateQueue+0x114>
 8003630:	68bb      	ldr	r3, [r7, #8]
 8003632:	791b      	ldrb	r3, [r3, #4]
 8003634:	e00a      	b.n	800364c <CoCreateQueue+0x114>
 8003636:	7bfb      	ldrb	r3, [r7, #15]
 8003638:	f103 0301 	add.w	r3, r3, #1
 800363c:	73fb      	strb	r3, [r7, #15]
 800363e:	7bfb      	ldrb	r3, [r7, #15]
 8003640:	2b01      	cmp	r3, #1
 8003642:	d996      	bls.n	8003572 <CoCreateQueue+0x3a>
 8003644:	f7fc fdc4 	bl	80001d0 <OsSchedUnlock>
 8003648:	f04f 03ff 	mov.w	r3, #255	; 0xff
 800364c:	4618      	mov	r0, r3
 800364e:	f107 0710 	add.w	r7, r7, #16
 8003652:	46bd      	mov	sp, r7
 8003654:	bd80      	pop	{r7, pc}
 8003656:	bf00      	nop
 8003658:	200001e5 	.word	0x200001e5
 800365c:	20000540 	.word	0x20000540
 8003660:	20000520 	.word	0x20000520

08003664 <CoPendQueueMail>:
 8003664:	b580      	push	{r7, lr}
 8003666:	b088      	sub	sp, #32
 8003668:	af00      	add	r7, sp, #0
 800366a:	4603      	mov	r3, r0
 800366c:	60b9      	str	r1, [r7, #8]
 800366e:	607a      	str	r2, [r7, #4]
 8003670:	73fb      	strb	r3, [r7, #15]
 8003672:	4b5a      	ldr	r3, [pc, #360]	; (80037dc <CoPendQueueMail+0x178>)
 8003674:	781b      	ldrb	r3, [r3, #0]
 8003676:	b2db      	uxtb	r3, r3
 8003678:	2b00      	cmp	r3, #0
 800367a:	d006      	beq.n	800368a <CoPendQueueMail+0x26>
 800367c:	687b      	ldr	r3, [r7, #4]
 800367e:	f04f 0203 	mov.w	r2, #3
 8003682:	701a      	strb	r2, [r3, #0]
 8003684:	f04f 0300 	mov.w	r3, #0
 8003688:	e0a3      	b.n	80037d2 <CoPendQueueMail+0x16e>
 800368a:	7bfb      	ldrb	r3, [r7, #15]
 800368c:	2b13      	cmp	r3, #19
 800368e:	d906      	bls.n	800369e <CoPendQueueMail+0x3a>
 8003690:	687b      	ldr	r3, [r7, #4]
 8003692:	f04f 0201 	mov.w	r2, #1
 8003696:	701a      	strb	r2, [r3, #0]
 8003698:	f04f 0300 	mov.w	r3, #0
 800369c:	e099      	b.n	80037d2 <CoPendQueueMail+0x16e>
 800369e:	7bfb      	ldrb	r3, [r7, #15]
 80036a0:	ea4f 1203 	mov.w	r2, r3, lsl #4
 80036a4:	4b4e      	ldr	r3, [pc, #312]	; (80037e0 <CoPendQueueMail+0x17c>)
 80036a6:	18d3      	adds	r3, r2, r3
 80036a8:	61fb      	str	r3, [r7, #28]
 80036aa:	69fb      	ldr	r3, [r7, #28]
 80036ac:	795b      	ldrb	r3, [r3, #5]
 80036ae:	f003 030f 	and.w	r3, r3, #15
 80036b2:	b2db      	uxtb	r3, r3
 80036b4:	2b03      	cmp	r3, #3
 80036b6:	d006      	beq.n	80036c6 <CoPendQueueMail+0x62>
 80036b8:	687b      	ldr	r3, [r7, #4]
 80036ba:	f04f 0201 	mov.w	r2, #1
 80036be:	701a      	strb	r2, [r3, #0]
 80036c0:	f04f 0300 	mov.w	r3, #0
 80036c4:	e085      	b.n	80037d2 <CoPendQueueMail+0x16e>
 80036c6:	4b47      	ldr	r3, [pc, #284]	; (80037e4 <CoPendQueueMail+0x180>)
 80036c8:	781b      	ldrb	r3, [r3, #0]
 80036ca:	b2db      	uxtb	r3, r3
 80036cc:	2b00      	cmp	r3, #0
 80036ce:	d006      	beq.n	80036de <CoPendQueueMail+0x7a>
 80036d0:	687b      	ldr	r3, [r7, #4]
 80036d2:	f04f 0215 	mov.w	r2, #21
 80036d6:	701a      	strb	r2, [r3, #0]
 80036d8:	f04f 0300 	mov.w	r3, #0
 80036dc:	e079      	b.n	80037d2 <CoPendQueueMail+0x16e>
 80036de:	69fb      	ldr	r3, [r7, #28]
 80036e0:	681b      	ldr	r3, [r3, #0]
 80036e2:	61bb      	str	r3, [r7, #24]
 80036e4:	4b3f      	ldr	r3, [pc, #252]	; (80037e4 <CoPendQueueMail+0x180>)
 80036e6:	781b      	ldrb	r3, [r3, #0]
 80036e8:	b2db      	uxtb	r3, r3
 80036ea:	f103 0301 	add.w	r3, r3, #1
 80036ee:	b2da      	uxtb	r2, r3
 80036f0:	4b3c      	ldr	r3, [pc, #240]	; (80037e4 <CoPendQueueMail+0x180>)
 80036f2:	701a      	strb	r2, [r3, #0]
 80036f4:	69bb      	ldr	r3, [r7, #24]
 80036f6:	899b      	ldrh	r3, [r3, #12]
 80036f8:	2b00      	cmp	r3, #0
 80036fa:	d028      	beq.n	800374e <CoPendQueueMail+0xea>
 80036fc:	69bb      	ldr	r3, [r7, #24]
 80036fe:	681a      	ldr	r2, [r3, #0]
 8003700:	69bb      	ldr	r3, [r7, #24]
 8003702:	88db      	ldrh	r3, [r3, #6]
 8003704:	ea4f 0383 	mov.w	r3, r3, lsl #2
 8003708:	18d3      	adds	r3, r2, r3
 800370a:	681b      	ldr	r3, [r3, #0]
 800370c:	617b      	str	r3, [r7, #20]
 800370e:	69bb      	ldr	r3, [r7, #24]
 8003710:	88db      	ldrh	r3, [r3, #6]
 8003712:	f103 0301 	add.w	r3, r3, #1
 8003716:	b29a      	uxth	r2, r3
 8003718:	69bb      	ldr	r3, [r7, #24]
 800371a:	80da      	strh	r2, [r3, #6]
 800371c:	69bb      	ldr	r3, [r7, #24]
 800371e:	899b      	ldrh	r3, [r3, #12]
 8003720:	f103 33ff 	add.w	r3, r3, #4294967295
 8003724:	b29a      	uxth	r2, r3
 8003726:	69bb      	ldr	r3, [r7, #24]
 8003728:	819a      	strh	r2, [r3, #12]
 800372a:	69bb      	ldr	r3, [r7, #24]
 800372c:	88da      	ldrh	r2, [r3, #6]
 800372e:	69bb      	ldr	r3, [r7, #24]
 8003730:	895b      	ldrh	r3, [r3, #10]
 8003732:	429a      	cmp	r2, r3
 8003734:	d103      	bne.n	800373e <CoPendQueueMail+0xda>
 8003736:	69bb      	ldr	r3, [r7, #24]
 8003738:	f04f 0200 	mov.w	r2, #0
 800373c:	80da      	strh	r2, [r3, #6]
 800373e:	f7fc fd47 	bl	80001d0 <OsSchedUnlock>
 8003742:	687b      	ldr	r3, [r7, #4]
 8003744:	f04f 0200 	mov.w	r2, #0
 8003748:	701a      	strb	r2, [r3, #0]
 800374a:	697b      	ldr	r3, [r7, #20]
 800374c:	e041      	b.n	80037d2 <CoPendQueueMail+0x16e>
 800374e:	f7fc fd3f 	bl	80001d0 <OsSchedUnlock>
 8003752:	4b25      	ldr	r3, [pc, #148]	; (80037e8 <CoPendQueueMail+0x184>)
 8003754:	681b      	ldr	r3, [r3, #0]
 8003756:	613b      	str	r3, [r7, #16]
 8003758:	68bb      	ldr	r3, [r7, #8]
 800375a:	2b00      	cmp	r3, #0
 800375c:	d110      	bne.n	8003780 <CoPendQueueMail+0x11c>
 800375e:	69f8      	ldr	r0, [r7, #28]
 8003760:	6939      	ldr	r1, [r7, #16]
 8003762:	f7ff fd0d 	bl	8003180 <EventTaskToWait>
 8003766:	693b      	ldr	r3, [r7, #16]
 8003768:	691b      	ldr	r3, [r3, #16]
 800376a:	617b      	str	r3, [r7, #20]
 800376c:	693b      	ldr	r3, [r7, #16]
 800376e:	f04f 0200 	mov.w	r2, #0
 8003772:	611a      	str	r2, [r3, #16]
 8003774:	687b      	ldr	r3, [r7, #4]
 8003776:	f04f 0200 	mov.w	r2, #0
 800377a:	701a      	strb	r2, [r3, #0]
 800377c:	697b      	ldr	r3, [r7, #20]
 800377e:	e028      	b.n	80037d2 <CoPendQueueMail+0x16e>
 8003780:	4b18      	ldr	r3, [pc, #96]	; (80037e4 <CoPendQueueMail+0x180>)
 8003782:	781b      	ldrb	r3, [r3, #0]
 8003784:	b2db      	uxtb	r3, r3
 8003786:	f103 0301 	add.w	r3, r3, #1
 800378a:	b2da      	uxtb	r2, r3
 800378c:	4b15      	ldr	r3, [pc, #84]	; (80037e4 <CoPendQueueMail+0x180>)
 800378e:	701a      	strb	r2, [r3, #0]
 8003790:	69f8      	ldr	r0, [r7, #28]
 8003792:	6939      	ldr	r1, [r7, #16]
 8003794:	f7ff fcf4 	bl	8003180 <EventTaskToWait>
 8003798:	6938      	ldr	r0, [r7, #16]
 800379a:	68b9      	ldr	r1, [r7, #8]
 800379c:	f7ff faf4 	bl	8002d88 <InsertDelayList>
 80037a0:	f7fc fd16 	bl	80001d0 <OsSchedUnlock>
 80037a4:	693b      	ldr	r3, [r7, #16]
 80037a6:	691b      	ldr	r3, [r3, #16]
 80037a8:	2b00      	cmp	r3, #0
 80037aa:	d106      	bne.n	80037ba <CoPendQueueMail+0x156>
 80037ac:	687b      	ldr	r3, [r7, #4]
 80037ae:	f04f 0205 	mov.w	r2, #5
 80037b2:	701a      	strb	r2, [r3, #0]
 80037b4:	f04f 0300 	mov.w	r3, #0
 80037b8:	e00b      	b.n	80037d2 <CoPendQueueMail+0x16e>
 80037ba:	693b      	ldr	r3, [r7, #16]
 80037bc:	691b      	ldr	r3, [r3, #16]
 80037be:	617b      	str	r3, [r7, #20]
 80037c0:	693b      	ldr	r3, [r7, #16]
 80037c2:	f04f 0200 	mov.w	r2, #0
 80037c6:	611a      	str	r2, [r3, #16]
 80037c8:	687b      	ldr	r3, [r7, #4]
 80037ca:	f04f 0200 	mov.w	r2, #0
 80037ce:	701a      	strb	r2, [r3, #0]
 80037d0:	697b      	ldr	r3, [r7, #20]
 80037d2:	4618      	mov	r0, r3
 80037d4:	f107 0720 	add.w	r7, r7, #32
 80037d8:	46bd      	mov	sp, r7
 80037da:	bd80      	pop	{r7, pc}
 80037dc:	200001e4 	.word	0x200001e4
 80037e0:	200003dc 	.word	0x200003dc
 80037e4:	200001e5 	.word	0x200001e5
 80037e8:	20000398 	.word	0x20000398

080037ec <CoPostQueueMail>:
 80037ec:	b580      	push	{r7, lr}
 80037ee:	b084      	sub	sp, #16
 80037f0:	af00      	add	r7, sp, #0
 80037f2:	4603      	mov	r3, r0
 80037f4:	6039      	str	r1, [r7, #0]
 80037f6:	71fb      	strb	r3, [r7, #7]
 80037f8:	79fb      	ldrb	r3, [r7, #7]
 80037fa:	2b13      	cmp	r3, #19
 80037fc:	d902      	bls.n	8003804 <CoPostQueueMail+0x18>
 80037fe:	f04f 0301 	mov.w	r3, #1
 8003802:	e04b      	b.n	800389c <CoPostQueueMail+0xb0>
 8003804:	79fb      	ldrb	r3, [r7, #7]
 8003806:	ea4f 1203 	mov.w	r2, r3, lsl #4
 800380a:	4b27      	ldr	r3, [pc, #156]	; (80038a8 <CoPostQueueMail+0xbc>)
 800380c:	18d3      	adds	r3, r2, r3
 800380e:	60fb      	str	r3, [r7, #12]
 8003810:	68fb      	ldr	r3, [r7, #12]
 8003812:	795b      	ldrb	r3, [r3, #5]
 8003814:	f003 030f 	and.w	r3, r3, #15
 8003818:	b2db      	uxtb	r3, r3
 800381a:	2b03      	cmp	r3, #3
 800381c:	d002      	beq.n	8003824 <CoPostQueueMail+0x38>
 800381e:	f04f 0301 	mov.w	r3, #1
 8003822:	e03b      	b.n	800389c <CoPostQueueMail+0xb0>
 8003824:	68fb      	ldr	r3, [r7, #12]
 8003826:	681b      	ldr	r3, [r3, #0]
 8003828:	60bb      	str	r3, [r7, #8]
 800382a:	68bb      	ldr	r3, [r7, #8]
 800382c:	899a      	ldrh	r2, [r3, #12]
 800382e:	68bb      	ldr	r3, [r7, #8]
 8003830:	895b      	ldrh	r3, [r3, #10]
 8003832:	429a      	cmp	r2, r3
 8003834:	d102      	bne.n	800383c <CoPostQueueMail+0x50>
 8003836:	f04f 0308 	mov.w	r3, #8
 800383a:	e02f      	b.n	800389c <CoPostQueueMail+0xb0>
 800383c:	4b1b      	ldr	r3, [pc, #108]	; (80038ac <CoPostQueueMail+0xc0>)
 800383e:	781b      	ldrb	r3, [r3, #0]
 8003840:	b2db      	uxtb	r3, r3
 8003842:	f103 0301 	add.w	r3, r3, #1
 8003846:	b2da      	uxtb	r2, r3
 8003848:	4b18      	ldr	r3, [pc, #96]	; (80038ac <CoPostQueueMail+0xc0>)
 800384a:	701a      	strb	r2, [r3, #0]
 800384c:	68bb      	ldr	r3, [r7, #8]
 800384e:	681a      	ldr	r2, [r3, #0]
 8003850:	68bb      	ldr	r3, [r7, #8]
 8003852:	891b      	ldrh	r3, [r3, #8]
 8003854:	ea4f 0383 	mov.w	r3, r3, lsl #2
 8003858:	18d3      	adds	r3, r2, r3
 800385a:	683a      	ldr	r2, [r7, #0]
 800385c:	601a      	str	r2, [r3, #0]
 800385e:	68bb      	ldr	r3, [r7, #8]
 8003860:	891b      	ldrh	r3, [r3, #8]
 8003862:	f103 0301 	add.w	r3, r3, #1
 8003866:	b29a      	uxth	r2, r3
 8003868:	68bb      	ldr	r3, [r7, #8]
 800386a:	811a      	strh	r2, [r3, #8]
 800386c:	68bb      	ldr	r3, [r7, #8]
 800386e:	899b      	ldrh	r3, [r3, #12]
 8003870:	f103 0301 	add.w	r3, r3, #1
 8003874:	b29a      	uxth	r2, r3
 8003876:	68bb      	ldr	r3, [r7, #8]
 8003878:	819a      	strh	r2, [r3, #12]
 800387a:	68bb      	ldr	r3, [r7, #8]
 800387c:	891a      	ldrh	r2, [r3, #8]
 800387e:	68bb      	ldr	r3, [r7, #8]
 8003880:	895b      	ldrh	r3, [r3, #10]
 8003882:	429a      	cmp	r2, r3
 8003884:	d103      	bne.n	800388e <CoPostQueueMail+0xa2>
 8003886:	68bb      	ldr	r3, [r7, #8]
 8003888:	f04f 0200 	mov.w	r2, #0
 800388c:	811a      	strh	r2, [r3, #8]
 800388e:	68f8      	ldr	r0, [r7, #12]
 8003890:	f7ff fcfc 	bl	800328c <EventTaskToRdy>
 8003894:	f7fc fc9c 	bl	80001d0 <OsSchedUnlock>
 8003898:	f04f 0300 	mov.w	r3, #0
 800389c:	4618      	mov	r0, r3
 800389e:	f107 0710 	add.w	r7, r7, #16
 80038a2:	46bd      	mov	sp, r7
 80038a4:	bd80      	pop	{r7, pc}
 80038a6:	bf00      	nop
 80038a8:	200003dc 	.word	0x200003dc
 80038ac:	200001e5 	.word	0x200001e5

080038b0 <CoCreateFlag>:
 80038b0:	b580      	push	{r7, lr}
 80038b2:	b084      	sub	sp, #16
 80038b4:	af00      	add	r7, sp, #0
 80038b6:	4602      	mov	r2, r0
 80038b8:	460b      	mov	r3, r1
 80038ba:	71fa      	strb	r2, [r7, #7]
 80038bc:	71bb      	strb	r3, [r7, #6]
 80038be:	4b23      	ldr	r3, [pc, #140]	; (800394c <CoCreateFlag+0x9c>)
 80038c0:	781b      	ldrb	r3, [r3, #0]
 80038c2:	b2db      	uxtb	r3, r3
 80038c4:	f103 0301 	add.w	r3, r3, #1
 80038c8:	b2da      	uxtb	r2, r3
 80038ca:	4b20      	ldr	r3, [pc, #128]	; (800394c <CoCreateFlag+0x9c>)
 80038cc:	701a      	strb	r2, [r3, #0]
 80038ce:	f04f 0300 	mov.w	r3, #0
 80038d2:	73fb      	strb	r3, [r7, #15]
 80038d4:	e02e      	b.n	8003934 <CoCreateFlag+0x84>
 80038d6:	4b1e      	ldr	r3, [pc, #120]	; (8003950 <CoCreateFlag+0xa0>)
 80038d8:	689a      	ldr	r2, [r3, #8]
 80038da:	7bfb      	ldrb	r3, [r7, #15]
 80038dc:	f04f 0101 	mov.w	r1, #1
 80038e0:	fa01 f303 	lsl.w	r3, r1, r3
 80038e4:	ea02 0303 	and.w	r3, r2, r3
 80038e8:	2b00      	cmp	r3, #0
 80038ea:	d11f      	bne.n	800392c <CoCreateFlag+0x7c>
 80038ec:	4b18      	ldr	r3, [pc, #96]	; (8003950 <CoCreateFlag+0xa0>)
 80038ee:	689a      	ldr	r2, [r3, #8]
 80038f0:	7bfb      	ldrb	r3, [r7, #15]
 80038f2:	f04f 0101 	mov.w	r1, #1
 80038f6:	fa01 f303 	lsl.w	r3, r1, r3
 80038fa:	431a      	orrs	r2, r3
 80038fc:	4b14      	ldr	r3, [pc, #80]	; (8003950 <CoCreateFlag+0xa0>)
 80038fe:	609a      	str	r2, [r3, #8]
 8003900:	4b13      	ldr	r3, [pc, #76]	; (8003950 <CoCreateFlag+0xa0>)
 8003902:	681a      	ldr	r2, [r3, #0]
 8003904:	79b9      	ldrb	r1, [r7, #6]
 8003906:	7bfb      	ldrb	r3, [r7, #15]
 8003908:	fa01 f303 	lsl.w	r3, r1, r3
 800390c:	431a      	orrs	r2, r3
 800390e:	4b10      	ldr	r3, [pc, #64]	; (8003950 <CoCreateFlag+0xa0>)
 8003910:	601a      	str	r2, [r3, #0]
 8003912:	4b0f      	ldr	r3, [pc, #60]	; (8003950 <CoCreateFlag+0xa0>)
 8003914:	685a      	ldr	r2, [r3, #4]
 8003916:	79f9      	ldrb	r1, [r7, #7]
 8003918:	7bfb      	ldrb	r3, [r7, #15]
 800391a:	fa01 f303 	lsl.w	r3, r1, r3
 800391e:	431a      	orrs	r2, r3
 8003920:	4b0b      	ldr	r3, [pc, #44]	; (8003950 <CoCreateFlag+0xa0>)
 8003922:	605a      	str	r2, [r3, #4]
 8003924:	f7fc fc54 	bl	80001d0 <OsSchedUnlock>
 8003928:	7bfb      	ldrb	r3, [r7, #15]
 800392a:	e00a      	b.n	8003942 <CoCreateFlag+0x92>
 800392c:	7bfb      	ldrb	r3, [r7, #15]
 800392e:	f103 0301 	add.w	r3, r3, #1
 8003932:	73fb      	strb	r3, [r7, #15]
 8003934:	7bfb      	ldrb	r3, [r7, #15]
 8003936:	2b1f      	cmp	r3, #31
 8003938:	d9cd      	bls.n	80038d6 <CoCreateFlag+0x26>
 800393a:	f7fc fc49 	bl	80001d0 <OsSchedUnlock>
 800393e:	f04f 03ff 	mov.w	r3, #255	; 0xff
 8003942:	4618      	mov	r0, r3
 8003944:	f107 0710 	add.w	r7, r7, #16
 8003948:	46bd      	mov	sp, r7
 800394a:	bd80      	pop	{r7, pc}
 800394c:	200001e5 	.word	0x200001e5
 8003950:	20000544 	.word	0x20000544

08003954 <CoWaitForSingleFlag>:
 8003954:	b580      	push	{r7, lr}
 8003956:	b08a      	sub	sp, #40	; 0x28
 8003958:	af00      	add	r7, sp, #0
 800395a:	4603      	mov	r3, r0
 800395c:	6039      	str	r1, [r7, #0]
 800395e:	71fb      	strb	r3, [r7, #7]
 8003960:	4b64      	ldr	r3, [pc, #400]	; (8003af4 <CoWaitForSingleFlag+0x1a0>)
 8003962:	781b      	ldrb	r3, [r3, #0]
 8003964:	b2db      	uxtb	r3, r3
 8003966:	2b00      	cmp	r3, #0
 8003968:	d002      	beq.n	8003970 <CoWaitForSingleFlag+0x1c>
 800396a:	f04f 0303 	mov.w	r3, #3
 800396e:	e0bb      	b.n	8003ae8 <CoWaitForSingleFlag+0x194>
 8003970:	4b61      	ldr	r3, [pc, #388]	; (8003af8 <CoWaitForSingleFlag+0x1a4>)
 8003972:	781b      	ldrb	r3, [r3, #0]
 8003974:	b2db      	uxtb	r3, r3
 8003976:	2b00      	cmp	r3, #0
 8003978:	d002      	beq.n	8003980 <CoWaitForSingleFlag+0x2c>
 800397a:	f04f 0315 	mov.w	r3, #21
 800397e:	e0b3      	b.n	8003ae8 <CoWaitForSingleFlag+0x194>
 8003980:	79fb      	ldrb	r3, [r7, #7]
 8003982:	2b1f      	cmp	r3, #31
 8003984:	d902      	bls.n	800398c <CoWaitForSingleFlag+0x38>
 8003986:	f04f 0301 	mov.w	r3, #1
 800398a:	e0ad      	b.n	8003ae8 <CoWaitForSingleFlag+0x194>
 800398c:	4b5b      	ldr	r3, [pc, #364]	; (8003afc <CoWaitForSingleFlag+0x1a8>)
 800398e:	689a      	ldr	r2, [r3, #8]
 8003990:	79fb      	ldrb	r3, [r7, #7]
 8003992:	f04f 0101 	mov.w	r1, #1
 8003996:	fa01 f303 	lsl.w	r3, r1, r3
 800399a:	ea02 0303 	and.w	r3, r2, r3
 800399e:	2b00      	cmp	r3, #0
 80039a0:	d102      	bne.n	80039a8 <CoWaitForSingleFlag+0x54>
 80039a2:	f04f 0301 	mov.w	r3, #1
 80039a6:	e09f      	b.n	8003ae8 <CoWaitForSingleFlag+0x194>
 80039a8:	4b53      	ldr	r3, [pc, #332]	; (8003af8 <CoWaitForSingleFlag+0x1a4>)
 80039aa:	781b      	ldrb	r3, [r3, #0]
 80039ac:	b2db      	uxtb	r3, r3
 80039ae:	f103 0301 	add.w	r3, r3, #1
 80039b2:	b2da      	uxtb	r2, r3
 80039b4:	4b50      	ldr	r3, [pc, #320]	; (8003af8 <CoWaitForSingleFlag+0x1a4>)
 80039b6:	701a      	strb	r2, [r3, #0]
 80039b8:	4b50      	ldr	r3, [pc, #320]	; (8003afc <CoWaitForSingleFlag+0x1a8>)
 80039ba:	627b      	str	r3, [r7, #36]	; 0x24
 80039bc:	6a7b      	ldr	r3, [r7, #36]	; 0x24
 80039be:	681a      	ldr	r2, [r3, #0]
 80039c0:	79fb      	ldrb	r3, [r7, #7]
 80039c2:	f04f 0101 	mov.w	r1, #1
 80039c6:	fa01 f303 	lsl.w	r3, r1, r3
 80039ca:	ea02 0303 	and.w	r3, r2, r3
 80039ce:	2b00      	cmp	r3, #0
 80039d0:	d012      	beq.n	80039f8 <CoWaitForSingleFlag+0xa4>
 80039d2:	6a7b      	ldr	r3, [r7, #36]	; 0x24
 80039d4:	681a      	ldr	r2, [r3, #0]
 80039d6:	6a7b      	ldr	r3, [r7, #36]	; 0x24
 80039d8:	6859      	ldr	r1, [r3, #4]
 80039da:	79fb      	ldrb	r3, [r7, #7]
 80039dc:	f04f 0001 	mov.w	r0, #1
 80039e0:	fa00 f303 	lsl.w	r3, r0, r3
 80039e4:	ea01 0303 	and.w	r3, r1, r3
 80039e8:	ea6f 0303 	mvn.w	r3, r3
 80039ec:	401a      	ands	r2, r3
 80039ee:	6a7b      	ldr	r3, [r7, #36]	; 0x24
 80039f0:	601a      	str	r2, [r3, #0]
 80039f2:	f7fc fbed 	bl	80001d0 <OsSchedUnlock>
 80039f6:	e075      	b.n	8003ae4 <CoWaitForSingleFlag+0x190>
 80039f8:	4b41      	ldr	r3, [pc, #260]	; (8003b00 <CoWaitForSingleFlag+0x1ac>)
 80039fa:	681b      	ldr	r3, [r3, #0]
 80039fc:	623b      	str	r3, [r7, #32]
 80039fe:	683b      	ldr	r3, [r7, #0]
 8003a00:	2b00      	cmp	r3, #0
 8003a02:	d136      	bne.n	8003a72 <CoWaitForSingleFlag+0x11e>
 8003a04:	79fb      	ldrb	r3, [r7, #7]
 8003a06:	f04f 0201 	mov.w	r2, #1
 8003a0a:	fa02 f303 	lsl.w	r3, r2, r3
 8003a0e:	f107 020c 	add.w	r2, r7, #12
 8003a12:	4610      	mov	r0, r2
 8003a14:	4619      	mov	r1, r3
 8003a16:	f04f 0202 	mov.w	r2, #2
 8003a1a:	f000 f95b 	bl	8003cd4 <FlagBlock>
 8003a1e:	6a3b      	ldr	r3, [r7, #32]
 8003a20:	f04f 0202 	mov.w	r2, #2
 8003a24:	715a      	strb	r2, [r3, #5]
 8003a26:	4b37      	ldr	r3, [pc, #220]	; (8003b04 <CoWaitForSingleFlag+0x1b0>)
 8003a28:	f04f 0201 	mov.w	r2, #1
 8003a2c:	701a      	strb	r2, [r3, #0]
 8003a2e:	f7fc fbcf 	bl	80001d0 <OsSchedUnlock>
 8003a32:	6a3b      	ldr	r3, [r7, #32]
 8003a34:	f04f 0200 	mov.w	r2, #0
 8003a38:	61da      	str	r2, [r3, #28]
 8003a3a:	4b2f      	ldr	r3, [pc, #188]	; (8003af8 <CoWaitForSingleFlag+0x1a4>)
 8003a3c:	781b      	ldrb	r3, [r3, #0]
 8003a3e:	b2db      	uxtb	r3, r3
 8003a40:	f103 0301 	add.w	r3, r3, #1
 8003a44:	b2da      	uxtb	r2, r3
 8003a46:	4b2c      	ldr	r3, [pc, #176]	; (8003af8 <CoWaitForSingleFlag+0x1a4>)
 8003a48:	701a      	strb	r2, [r3, #0]
 8003a4a:	6a7b      	ldr	r3, [r7, #36]	; 0x24
 8003a4c:	681a      	ldr	r2, [r3, #0]
 8003a4e:	79fb      	ldrb	r3, [r7, #7]
 8003a50:	f04f 0101 	mov.w	r1, #1
 8003a54:	fa01 f303 	lsl.w	r3, r1, r3
 8003a58:	4619      	mov	r1, r3
 8003a5a:	6a7b      	ldr	r3, [r7, #36]	; 0x24
 8003a5c:	685b      	ldr	r3, [r3, #4]
 8003a5e:	ea01 0303 	and.w	r3, r1, r3
 8003a62:	ea6f 0303 	mvn.w	r3, r3
 8003a66:	401a      	ands	r2, r3
 8003a68:	6a7b      	ldr	r3, [r7, #36]	; 0x24
 8003a6a:	601a      	str	r2, [r3, #0]
 8003a6c:	f7fc fbb0 	bl	80001d0 <OsSchedUnlock>
 8003a70:	e038      	b.n	8003ae4 <CoWaitForSingleFlag+0x190>
 8003a72:	79fb      	ldrb	r3, [r7, #7]
 8003a74:	f04f 0201 	mov.w	r2, #1
 8003a78:	fa02 f303 	lsl.w	r3, r2, r3
 8003a7c:	f107 020c 	add.w	r2, r7, #12
 8003a80:	4610      	mov	r0, r2
 8003a82:	4619      	mov	r1, r3
 8003a84:	f04f 0202 	mov.w	r2, #2
 8003a88:	f000 f924 	bl	8003cd4 <FlagBlock>
 8003a8c:	6a38      	ldr	r0, [r7, #32]
 8003a8e:	6839      	ldr	r1, [r7, #0]
 8003a90:	f7ff f97a 	bl	8002d88 <InsertDelayList>
 8003a94:	f7fc fb9c 	bl	80001d0 <OsSchedUnlock>
 8003a98:	6a3b      	ldr	r3, [r7, #32]
 8003a9a:	69db      	ldr	r3, [r3, #28]
 8003a9c:	2b00      	cmp	r3, #0
 8003a9e:	d102      	bne.n	8003aa6 <CoWaitForSingleFlag+0x152>
 8003aa0:	f04f 0305 	mov.w	r3, #5
 8003aa4:	e020      	b.n	8003ae8 <CoWaitForSingleFlag+0x194>
 8003aa6:	6a3b      	ldr	r3, [r7, #32]
 8003aa8:	f04f 0200 	mov.w	r2, #0
 8003aac:	61da      	str	r2, [r3, #28]
 8003aae:	4b12      	ldr	r3, [pc, #72]	; (8003af8 <CoWaitForSingleFlag+0x1a4>)
 8003ab0:	781b      	ldrb	r3, [r3, #0]
 8003ab2:	b2db      	uxtb	r3, r3
 8003ab4:	f103 0301 	add.w	r3, r3, #1
 8003ab8:	b2da      	uxtb	r2, r3
 8003aba:	4b0f      	ldr	r3, [pc, #60]	; (8003af8 <CoWaitForSingleFlag+0x1a4>)
 8003abc:	701a      	strb	r2, [r3, #0]
 8003abe:	6a7b      	ldr	r3, [r7, #36]	; 0x24
 8003ac0:	681a      	ldr	r2, [r3, #0]
 8003ac2:	79fb      	ldrb	r3, [r7, #7]
 8003ac4:	f04f 0101 	mov.w	r1, #1
 8003ac8:	fa01 f303 	lsl.w	r3, r1, r3
 8003acc:	4619      	mov	r1, r3
 8003ace:	6a7b      	ldr	r3, [r7, #36]	; 0x24
 8003ad0:	685b      	ldr	r3, [r3, #4]
 8003ad2:	ea01 0303 	and.w	r3, r1, r3
 8003ad6:	ea6f 0303 	mvn.w	r3, r3
 8003ada:	401a      	ands	r2, r3
 8003adc:	6a7b      	ldr	r3, [r7, #36]	; 0x24
 8003ade:	601a      	str	r2, [r3, #0]
 8003ae0:	f7fc fb76 	bl	80001d0 <OsSchedUnlock>
 8003ae4:	f04f 0300 	mov.w	r3, #0
 8003ae8:	4618      	mov	r0, r3
 8003aea:	f107 0728 	add.w	r7, r7, #40	; 0x28
 8003aee:	46bd      	mov	sp, r7
 8003af0:	bd80      	pop	{r7, pc}
 8003af2:	bf00      	nop
 8003af4:	200001e4 	.word	0x200001e4
 8003af8:	200001e5 	.word	0x200001e5
 8003afc:	20000544 	.word	0x20000544
 8003b00:	20000398 	.word	0x20000398
 8003b04:	200001e6 	.word	0x200001e6

08003b08 <CoClearFlag>:
 8003b08:	b480      	push	{r7}
 8003b0a:	b085      	sub	sp, #20
 8003b0c:	af00      	add	r7, sp, #0
 8003b0e:	4603      	mov	r3, r0
 8003b10:	71fb      	strb	r3, [r7, #7]
 8003b12:	4b15      	ldr	r3, [pc, #84]	; (8003b68 <CoClearFlag+0x60>)
 8003b14:	60fb      	str	r3, [r7, #12]
 8003b16:	79fb      	ldrb	r3, [r7, #7]
 8003b18:	2b1f      	cmp	r3, #31
 8003b1a:	d902      	bls.n	8003b22 <CoClearFlag+0x1a>
 8003b1c:	f04f 0301 	mov.w	r3, #1
 8003b20:	e01b      	b.n	8003b5a <CoClearFlag+0x52>
 8003b22:	68fb      	ldr	r3, [r7, #12]
 8003b24:	689a      	ldr	r2, [r3, #8]
 8003b26:	79fb      	ldrb	r3, [r7, #7]
 8003b28:	f04f 0101 	mov.w	r1, #1
 8003b2c:	fa01 f303 	lsl.w	r3, r1, r3
 8003b30:	ea02 0303 	and.w	r3, r2, r3
 8003b34:	2b00      	cmp	r3, #0
 8003b36:	d102      	bne.n	8003b3e <CoClearFlag+0x36>
 8003b38:	f04f 0301 	mov.w	r3, #1
 8003b3c:	e00d      	b.n	8003b5a <CoClearFlag+0x52>
 8003b3e:	68fb      	ldr	r3, [r7, #12]
 8003b40:	681a      	ldr	r2, [r3, #0]
 8003b42:	79fb      	ldrb	r3, [r7, #7]
 8003b44:	f04f 0101 	mov.w	r1, #1
 8003b48:	fa01 f303 	lsl.w	r3, r1, r3
 8003b4c:	ea6f 0303 	mvn.w	r3, r3
 8003b50:	401a      	ands	r2, r3
 8003b52:	68fb      	ldr	r3, [r7, #12]
 8003b54:	601a      	str	r2, [r3, #0]
 8003b56:	f04f 0300 	mov.w	r3, #0
 8003b5a:	4618      	mov	r0, r3
 8003b5c:	f107 0714 	add.w	r7, r7, #20
 8003b60:	46bd      	mov	sp, r7
 8003b62:	bc80      	pop	{r7}
 8003b64:	4770      	bx	lr
 8003b66:	bf00      	nop
 8003b68:	20000544 	.word	0x20000544

08003b6c <CoSetFlag>:
 8003b6c:	b580      	push	{r7, lr}
 8003b6e:	b084      	sub	sp, #16
 8003b70:	af00      	add	r7, sp, #0
 8003b72:	4603      	mov	r3, r0
 8003b74:	71fb      	strb	r3, [r7, #7]
 8003b76:	4b41      	ldr	r3, [pc, #260]	; (8003c7c <CoSetFlag+0x110>)
 8003b78:	60bb      	str	r3, [r7, #8]
 8003b7a:	79fb      	ldrb	r3, [r7, #7]
 8003b7c:	2b1f      	cmp	r3, #31
 8003b7e:	d902      	bls.n	8003b86 <CoSetFlag+0x1a>
 8003b80:	f04f 0301 	mov.w	r3, #1
 8003b84:	e074      	b.n	8003c70 <CoSetFlag+0x104>
 8003b86:	68bb      	ldr	r3, [r7, #8]
 8003b88:	689a      	ldr	r2, [r3, #8]
 8003b8a:	79fb      	ldrb	r3, [r7, #7]
 8003b8c:	f04f 0101 	mov.w	r1, #1
 8003b90:	fa01 f303 	lsl.w	r3, r1, r3
 8003b94:	ea02 0303 	and.w	r3, r2, r3
 8003b98:	2b00      	cmp	r3, #0
 8003b9a:	d102      	bne.n	8003ba2 <CoSetFlag+0x36>
 8003b9c:	f04f 0301 	mov.w	r3, #1
 8003ba0:	e066      	b.n	8003c70 <CoSetFlag+0x104>
 8003ba2:	68bb      	ldr	r3, [r7, #8]
 8003ba4:	681a      	ldr	r2, [r3, #0]
 8003ba6:	79fb      	ldrb	r3, [r7, #7]
 8003ba8:	f04f 0101 	mov.w	r1, #1
 8003bac:	fa01 f303 	lsl.w	r3, r1, r3
 8003bb0:	ea02 0303 	and.w	r3, r2, r3
 8003bb4:	2b00      	cmp	r3, #0
 8003bb6:	d002      	beq.n	8003bbe <CoSetFlag+0x52>
 8003bb8:	f04f 0300 	mov.w	r3, #0
 8003bbc:	e058      	b.n	8003c70 <CoSetFlag+0x104>
 8003bbe:	68bb      	ldr	r3, [r7, #8]
 8003bc0:	681a      	ldr	r2, [r3, #0]
 8003bc2:	79fb      	ldrb	r3, [r7, #7]
 8003bc4:	f04f 0101 	mov.w	r1, #1
 8003bc8:	fa01 f303 	lsl.w	r3, r1, r3
 8003bcc:	431a      	orrs	r2, r3
 8003bce:	68bb      	ldr	r3, [r7, #8]
 8003bd0:	601a      	str	r2, [r3, #0]
 8003bd2:	4b2b      	ldr	r3, [pc, #172]	; (8003c80 <CoSetFlag+0x114>)
 8003bd4:	781b      	ldrb	r3, [r3, #0]
 8003bd6:	b2db      	uxtb	r3, r3
 8003bd8:	f103 0301 	add.w	r3, r3, #1
 8003bdc:	b2da      	uxtb	r2, r3
 8003bde:	4b28      	ldr	r3, [pc, #160]	; (8003c80 <CoSetFlag+0x114>)
 8003be0:	701a      	strb	r2, [r3, #0]
 8003be2:	68bb      	ldr	r3, [r7, #8]
 8003be4:	68db      	ldr	r3, [r3, #12]
 8003be6:	60fb      	str	r3, [r7, #12]
 8003be8:	e03b      	b.n	8003c62 <CoSetFlag+0xf6>
 8003bea:	68fb      	ldr	r3, [r7, #12]
 8003bec:	7c1b      	ldrb	r3, [r3, #16]
 8003bee:	2b00      	cmp	r3, #0
 8003bf0:	d118      	bne.n	8003c24 <CoSetFlag+0xb8>
 8003bf2:	68fb      	ldr	r3, [r7, #12]
 8003bf4:	689a      	ldr	r2, [r3, #8]
 8003bf6:	68bb      	ldr	r3, [r7, #8]
 8003bf8:	681b      	ldr	r3, [r3, #0]
 8003bfa:	401a      	ands	r2, r3
 8003bfc:	68fb      	ldr	r3, [r7, #12]
 8003bfe:	689b      	ldr	r3, [r3, #8]
 8003c00:	429a      	cmp	r2, r3
 8003c02:	d127      	bne.n	8003c54 <CoSetFlag+0xe8>
 8003c04:	68f8      	ldr	r0, [r7, #12]
 8003c06:	f000 f8a5 	bl	8003d54 <RemoveFromLink>
 8003c0a:	60f8      	str	r0, [r7, #12]
 8003c0c:	68bb      	ldr	r3, [r7, #8]
 8003c0e:	685a      	ldr	r2, [r3, #4]
 8003c10:	79fb      	ldrb	r3, [r7, #7]
 8003c12:	f04f 0101 	mov.w	r1, #1
 8003c16:	fa01 f303 	lsl.w	r3, r1, r3
 8003c1a:	ea02 0303 	and.w	r3, r2, r3
 8003c1e:	2b00      	cmp	r3, #0
 8003c20:	d01c      	beq.n	8003c5c <CoSetFlag+0xf0>
 8003c22:	e021      	b.n	8003c68 <CoSetFlag+0xfc>
 8003c24:	68fb      	ldr	r3, [r7, #12]
 8003c26:	689a      	ldr	r2, [r3, #8]
 8003c28:	68bb      	ldr	r3, [r7, #8]
 8003c2a:	681b      	ldr	r3, [r3, #0]
 8003c2c:	ea02 0303 	and.w	r3, r2, r3
 8003c30:	2b00      	cmp	r3, #0
 8003c32:	d00f      	beq.n	8003c54 <CoSetFlag+0xe8>
 8003c34:	68f8      	ldr	r0, [r7, #12]
 8003c36:	f000 f88d 	bl	8003d54 <RemoveFromLink>
 8003c3a:	60f8      	str	r0, [r7, #12]
 8003c3c:	68bb      	ldr	r3, [r7, #8]
 8003c3e:	685a      	ldr	r2, [r3, #4]
 8003c40:	79fb      	ldrb	r3, [r7, #7]
 8003c42:	f04f 0101 	mov.w	r1, #1
 8003c46:	fa01 f303 	lsl.w	r3, r1, r3
 8003c4a:	ea02 0303 	and.w	r3, r2, r3
 8003c4e:	2b00      	cmp	r3, #0
 8003c50:	d006      	beq.n	8003c60 <CoSetFlag+0xf4>
 8003c52:	e009      	b.n	8003c68 <CoSetFlag+0xfc>
 8003c54:	68fb      	ldr	r3, [r7, #12]
 8003c56:	681b      	ldr	r3, [r3, #0]
 8003c58:	60fb      	str	r3, [r7, #12]
 8003c5a:	e002      	b.n	8003c62 <CoSetFlag+0xf6>
 8003c5c:	bf00      	nop
 8003c5e:	e000      	b.n	8003c62 <CoSetFlag+0xf6>
 8003c60:	bf00      	nop
 8003c62:	68fb      	ldr	r3, [r7, #12]
 8003c64:	2b00      	cmp	r3, #0
 8003c66:	d1c0      	bne.n	8003bea <CoSetFlag+0x7e>
 8003c68:	f7fc fab2 	bl	80001d0 <OsSchedUnlock>
 8003c6c:	f04f 0300 	mov.w	r3, #0
 8003c70:	4618      	mov	r0, r3
 8003c72:	f107 0710 	add.w	r7, r7, #16
 8003c76:	46bd      	mov	sp, r7
 8003c78:	bd80      	pop	{r7, pc}
 8003c7a:	bf00      	nop
 8003c7c:	20000544 	.word	0x20000544
 8003c80:	200001e5 	.word	0x200001e5

08003c84 <isr_SetFlag>:
 8003c84:	b580      	push	{r7, lr}
 8003c86:	b082      	sub	sp, #8
 8003c88:	af00      	add	r7, sp, #0
 8003c8a:	4603      	mov	r3, r0
 8003c8c:	71fb      	strb	r3, [r7, #7]
 8003c8e:	4b10      	ldr	r3, [pc, #64]	; (8003cd0 <isr_SetFlag+0x4c>)
 8003c90:	781b      	ldrb	r3, [r3, #0]
 8003c92:	b2db      	uxtb	r3, r3
 8003c94:	2b00      	cmp	r3, #0
 8003c96:	d010      	beq.n	8003cba <isr_SetFlag+0x36>
 8003c98:	79fb      	ldrb	r3, [r7, #7]
 8003c9a:	f04f 0003 	mov.w	r0, #3
 8003c9e:	4619      	mov	r1, r3
 8003ca0:	f04f 0200 	mov.w	r2, #0
 8003ca4:	f7fe f8cc 	bl	8001e40 <InsertInSRQ>
 8003ca8:	4603      	mov	r3, r0
 8003caa:	2b00      	cmp	r3, #0
 8003cac:	d102      	bne.n	8003cb4 <isr_SetFlag+0x30>
 8003cae:	f04f 0312 	mov.w	r3, #18
 8003cb2:	e007      	b.n	8003cc4 <isr_SetFlag+0x40>
 8003cb4:	f04f 0300 	mov.w	r3, #0
 8003cb8:	e004      	b.n	8003cc4 <isr_SetFlag+0x40>
 8003cba:	79fb      	ldrb	r3, [r7, #7]
 8003cbc:	4618      	mov	r0, r3
 8003cbe:	f7ff ff55 	bl	8003b6c <CoSetFlag>
 8003cc2:	4603      	mov	r3, r0
 8003cc4:	4618      	mov	r0, r3
 8003cc6:	f107 0708 	add.w	r7, r7, #8
 8003cca:	46bd      	mov	sp, r7
 8003ccc:	bd80      	pop	{r7, pc}
 8003cce:	bf00      	nop
 8003cd0:	200001e5 	.word	0x200001e5

08003cd4 <FlagBlock>:
 8003cd4:	b480      	push	{r7}
 8003cd6:	b087      	sub	sp, #28
 8003cd8:	af00      	add	r7, sp, #0
 8003cda:	60f8      	str	r0, [r7, #12]
 8003cdc:	60b9      	str	r1, [r7, #8]
 8003cde:	4613      	mov	r3, r2
 8003ce0:	71fb      	strb	r3, [r7, #7]
 8003ce2:	4b1a      	ldr	r3, [pc, #104]	; (8003d4c <FlagBlock+0x78>)
 8003ce4:	617b      	str	r3, [r7, #20]
 8003ce6:	4b1a      	ldr	r3, [pc, #104]	; (8003d50 <FlagBlock+0x7c>)
 8003ce8:	681b      	ldr	r3, [r3, #0]
 8003cea:	68fa      	ldr	r2, [r7, #12]
 8003cec:	61da      	str	r2, [r3, #28]
 8003cee:	4b18      	ldr	r3, [pc, #96]	; (8003d50 <FlagBlock+0x7c>)
 8003cf0:	681a      	ldr	r2, [r3, #0]
 8003cf2:	68fb      	ldr	r3, [r7, #12]
 8003cf4:	60da      	str	r2, [r3, #12]
 8003cf6:	68fb      	ldr	r3, [r7, #12]
 8003cf8:	68ba      	ldr	r2, [r7, #8]
 8003cfa:	609a      	str	r2, [r3, #8]
 8003cfc:	68fb      	ldr	r3, [r7, #12]
 8003cfe:	79fa      	ldrb	r2, [r7, #7]
 8003d00:	741a      	strb	r2, [r3, #16]
 8003d02:	697b      	ldr	r3, [r7, #20]
 8003d04:	691b      	ldr	r3, [r3, #16]
 8003d06:	2b00      	cmp	r3, #0
 8003d08:	d10b      	bne.n	8003d22 <FlagBlock+0x4e>
 8003d0a:	68fb      	ldr	r3, [r7, #12]
 8003d0c:	f04f 0200 	mov.w	r2, #0
 8003d10:	601a      	str	r2, [r3, #0]
 8003d12:	68fb      	ldr	r3, [r7, #12]
 8003d14:	f04f 0200 	mov.w	r2, #0
 8003d18:	605a      	str	r2, [r3, #4]
 8003d1a:	697b      	ldr	r3, [r7, #20]
 8003d1c:	68fa      	ldr	r2, [r7, #12]
 8003d1e:	60da      	str	r2, [r3, #12]
 8003d20:	e00b      	b.n	8003d3a <FlagBlock+0x66>
 8003d22:	697b      	ldr	r3, [r7, #20]
 8003d24:	691b      	ldr	r3, [r3, #16]
 8003d26:	68fa      	ldr	r2, [r7, #12]
 8003d28:	601a      	str	r2, [r3, #0]
 8003d2a:	697b      	ldr	r3, [r7, #20]
 8003d2c:	691a      	ldr	r2, [r3, #16]
 8003d2e:	68fb      	ldr	r3, [r7, #12]
 8003d30:	605a      	str	r2, [r3, #4]
 8003d32:	68fb      	ldr	r3, [r7, #12]
 8003d34:	f04f 0200 	mov.w	r2, #0
 8003d38:	601a      	str	r2, [r3, #0]
 8003d3a:	697b      	ldr	r3, [r7, #20]
 8003d3c:	68fa      	ldr	r2, [r7, #12]
 8003d3e:	611a      	str	r2, [r3, #16]
 8003d40:	f107 071c 	add.w	r7, r7, #28
 8003d44:	46bd      	mov	sp, r7
 8003d46:	bc80      	pop	{r7}
 8003d48:	4770      	bx	lr
 8003d4a:	bf00      	nop
 8003d4c:	20000544 	.word	0x20000544
 8003d50:	20000398 	.word	0x20000398

08003d54 <RemoveFromLink>:
 8003d54:	b580      	push	{r7, lr}
 8003d56:	b084      	sub	sp, #16
 8003d58:	af00      	add	r7, sp, #0
 8003d5a:	6078      	str	r0, [r7, #4]
 8003d5c:	6878      	ldr	r0, [r7, #4]
 8003d5e:	f000 f825 	bl	8003dac <RemoveLinkNode>
 8003d62:	687b      	ldr	r3, [r7, #4]
 8003d64:	68db      	ldr	r3, [r3, #12]
 8003d66:	60fb      	str	r3, [r7, #12]
 8003d68:	68fb      	ldr	r3, [r7, #12]
 8003d6a:	6a1b      	ldr	r3, [r3, #32]
 8003d6c:	f1b3 3fff 	cmp.w	r3, #4294967295
 8003d70:	d002      	beq.n	8003d78 <RemoveFromLink+0x24>
 8003d72:	68f8      	ldr	r0, [r7, #12]
 8003d74:	f7ff f882 	bl	8002e7c <RemoveDelayList>
 8003d78:	68fb      	ldr	r3, [r7, #12]
 8003d7a:	f04f 32ff 	mov.w	r2, #4294967295
 8003d7e:	61da      	str	r2, [r3, #28]
 8003d80:	4b09      	ldr	r3, [pc, #36]	; (8003da8 <RemoveFromLink+0x54>)
 8003d82:	681b      	ldr	r3, [r3, #0]
 8003d84:	68fa      	ldr	r2, [r7, #12]
 8003d86:	429a      	cmp	r2, r3
 8003d88:	d104      	bne.n	8003d94 <RemoveFromLink+0x40>
 8003d8a:	68fb      	ldr	r3, [r7, #12]
 8003d8c:	f04f 0201 	mov.w	r2, #1
 8003d90:	715a      	strb	r2, [r3, #5]
 8003d92:	e002      	b.n	8003d9a <RemoveFromLink+0x46>
 8003d94:	68f8      	ldr	r0, [r7, #12]
 8003d96:	f7fd fe05 	bl	80019a4 <InsertToTCBRdyList>
 8003d9a:	687b      	ldr	r3, [r7, #4]
 8003d9c:	681b      	ldr	r3, [r3, #0]
 8003d9e:	4618      	mov	r0, r3
 8003da0:	f107 0710 	add.w	r7, r7, #16
 8003da4:	46bd      	mov	sp, r7
 8003da6:	bd80      	pop	{r7, pc}
 8003da8:	20000398 	.word	0x20000398

08003dac <RemoveLinkNode>:
 8003dac:	b480      	push	{r7}
 8003dae:	b083      	sub	sp, #12
 8003db0:	af00      	add	r7, sp, #0
 8003db2:	6078      	str	r0, [r7, #4]
 8003db4:	687b      	ldr	r3, [r7, #4]
 8003db6:	681b      	ldr	r3, [r3, #0]
 8003db8:	2b00      	cmp	r3, #0
 8003dba:	d10c      	bne.n	8003dd6 <RemoveLinkNode+0x2a>
 8003dbc:	687b      	ldr	r3, [r7, #4]
 8003dbe:	685b      	ldr	r3, [r3, #4]
 8003dc0:	2b00      	cmp	r3, #0
 8003dc2:	d108      	bne.n	8003dd6 <RemoveLinkNode+0x2a>
 8003dc4:	4b1c      	ldr	r3, [pc, #112]	; (8003e38 <RemoveLinkNode+0x8c>)
 8003dc6:	f04f 0200 	mov.w	r2, #0
 8003dca:	60da      	str	r2, [r3, #12]
 8003dcc:	4b1a      	ldr	r3, [pc, #104]	; (8003e38 <RemoveLinkNode+0x8c>)
 8003dce:	f04f 0200 	mov.w	r2, #0
 8003dd2:	611a      	str	r2, [r3, #16]
 8003dd4:	e025      	b.n	8003e22 <RemoveLinkNode+0x76>
 8003dd6:	687b      	ldr	r3, [r7, #4]
 8003dd8:	681b      	ldr	r3, [r3, #0]
 8003dda:	2b00      	cmp	r3, #0
 8003ddc:	d109      	bne.n	8003df2 <RemoveLinkNode+0x46>
 8003dde:	687b      	ldr	r3, [r7, #4]
 8003de0:	685a      	ldr	r2, [r3, #4]
 8003de2:	4b15      	ldr	r3, [pc, #84]	; (8003e38 <RemoveLinkNode+0x8c>)
 8003de4:	611a      	str	r2, [r3, #16]
 8003de6:	687b      	ldr	r3, [r7, #4]
 8003de8:	685b      	ldr	r3, [r3, #4]
 8003dea:	f04f 0200 	mov.w	r2, #0
 8003dee:	601a      	str	r2, [r3, #0]
 8003df0:	e017      	b.n	8003e22 <RemoveLinkNode+0x76>
 8003df2:	687b      	ldr	r3, [r7, #4]
 8003df4:	685b      	ldr	r3, [r3, #4]
 8003df6:	2b00      	cmp	r3, #0
 8003df8:	d109      	bne.n	8003e0e <RemoveLinkNode+0x62>
 8003dfa:	687b      	ldr	r3, [r7, #4]
 8003dfc:	681a      	ldr	r2, [r3, #0]
 8003dfe:	4b0e      	ldr	r3, [pc, #56]	; (8003e38 <RemoveLinkNode+0x8c>)
 8003e00:	60da      	str	r2, [r3, #12]
 8003e02:	687b      	ldr	r3, [r7, #4]
 8003e04:	681b      	ldr	r3, [r3, #0]
 8003e06:	f04f 0200 	mov.w	r2, #0
 8003e0a:	605a      	str	r2, [r3, #4]
 8003e0c:	e009      	b.n	8003e22 <RemoveLinkNode+0x76>
 8003e0e:	687b      	ldr	r3, [r7, #4]
 8003e10:	681b      	ldr	r3, [r3, #0]
 8003e12:	687a      	ldr	r2, [r7, #4]
 8003e14:	6852      	ldr	r2, [r2, #4]
 8003e16:	605a      	str	r2, [r3, #4]
 8003e18:	687b      	ldr	r3, [r7, #4]
 8003e1a:	685b      	ldr	r3, [r3, #4]
 8003e1c:	687a      	ldr	r2, [r7, #4]
 8003e1e:	6812      	ldr	r2, [r2, #0]
 8003e20:	601a      	str	r2, [r3, #0]
 8003e22:	687b      	ldr	r3, [r7, #4]
 8003e24:	68db      	ldr	r3, [r3, #12]
 8003e26:	f04f 0200 	mov.w	r2, #0
 8003e2a:	61da      	str	r2, [r3, #28]
 8003e2c:	f107 070c 	add.w	r7, r7, #12
 8003e30:	46bd      	mov	sp, r7
 8003e32:	bc80      	pop	{r7}
 8003e34:	4770      	bx	lr
 8003e36:	bf00      	nop
 8003e38:	20000544 	.word	0x20000544

08003e3c <InitTaskContext>:
 8003e3c:	b480      	push	{r7}
 8003e3e:	b087      	sub	sp, #28
 8003e40:	af00      	add	r7, sp, #0
 8003e42:	60f8      	str	r0, [r7, #12]
 8003e44:	60b9      	str	r1, [r7, #8]
 8003e46:	607a      	str	r2, [r7, #4]
 8003e48:	687b      	ldr	r3, [r7, #4]
 8003e4a:	617b      	str	r3, [r7, #20]
 8003e4c:	697b      	ldr	r3, [r7, #20]
 8003e4e:	f04f 7280 	mov.w	r2, #16777216	; 0x1000000
 8003e52:	601a      	str	r2, [r3, #0]
 8003e54:	697b      	ldr	r3, [r7, #20]
 8003e56:	f1a3 0304 	sub.w	r3, r3, #4
 8003e5a:	617b      	str	r3, [r7, #20]
 8003e5c:	68fa      	ldr	r2, [r7, #12]
 8003e5e:	697b      	ldr	r3, [r7, #20]
 8003e60:	601a      	str	r2, [r3, #0]
 8003e62:	697b      	ldr	r3, [r7, #20]
 8003e64:	f1a3 0304 	sub.w	r3, r3, #4
 8003e68:	617b      	str	r3, [r7, #20]
 8003e6a:	697b      	ldr	r3, [r7, #20]
 8003e6c:	f06f 0201 	mvn.w	r2, #1
 8003e70:	601a      	str	r2, [r3, #0]
 8003e72:	697b      	ldr	r3, [r7, #20]
 8003e74:	f1a3 0314 	sub.w	r3, r3, #20
 8003e78:	617b      	str	r3, [r7, #20]
 8003e7a:	68ba      	ldr	r2, [r7, #8]
 8003e7c:	697b      	ldr	r3, [r7, #20]
 8003e7e:	601a      	str	r2, [r3, #0]
 8003e80:	697b      	ldr	r3, [r7, #20]
 8003e82:	f1a3 0320 	sub.w	r3, r3, #32
 8003e86:	617b      	str	r3, [r7, #20]
 8003e88:	697b      	ldr	r3, [r7, #20]
 8003e8a:	4618      	mov	r0, r3
 8003e8c:	f107 071c 	add.w	r7, r7, #28
 8003e90:	46bd      	mov	sp, r7
 8003e92:	bc80      	pop	{r7}
 8003e94:	4770      	bx	lr
 8003e96:	bf00      	nop

08003e98 <SysTick_Handler>:
 8003e98:	b580      	push	{r7, lr}
 8003e9a:	af00      	add	r7, sp, #0
 8003e9c:	4b24      	ldr	r3, [pc, #144]	; (8003f30 <SysTick_Handler+0x98>)
 8003e9e:	781b      	ldrb	r3, [r3, #0]
 8003ea0:	b2db      	uxtb	r3, r3
 8003ea2:	f103 0301 	add.w	r3, r3, #1
 8003ea6:	b2da      	uxtb	r2, r3
 8003ea8:	4b21      	ldr	r3, [pc, #132]	; (8003f30 <SysTick_Handler+0x98>)
 8003eaa:	701a      	strb	r2, [r3, #0]
 8003eac:	4b21      	ldr	r3, [pc, #132]	; (8003f34 <SysTick_Handler+0x9c>)
 8003eae:	e9d3 0100 	ldrd	r0, r1, [r3]
 8003eb2:	f04f 0201 	mov.w	r2, #1
 8003eb6:	f04f 0300 	mov.w	r3, #0
 8003eba:	1812      	adds	r2, r2, r0
 8003ebc:	eb43 0301 	adc.w	r3, r3, r1
 8003ec0:	491c      	ldr	r1, [pc, #112]	; (8003f34 <SysTick_Handler+0x9c>)
 8003ec2:	e9c1 2300 	strd	r2, r3, [r1]
 8003ec6:	4b1c      	ldr	r3, [pc, #112]	; (8003f38 <SysTick_Handler+0xa0>)
 8003ec8:	681b      	ldr	r3, [r3, #0]
 8003eca:	2b00      	cmp	r3, #0
 8003ecc:	d012      	beq.n	8003ef4 <SysTick_Handler+0x5c>
 8003ece:	4b1a      	ldr	r3, [pc, #104]	; (8003f38 <SysTick_Handler+0xa0>)
 8003ed0:	681b      	ldr	r3, [r3, #0]
 8003ed2:	6a1b      	ldr	r3, [r3, #32]
 8003ed4:	2b01      	cmp	r3, #1
 8003ed6:	d906      	bls.n	8003ee6 <SysTick_Handler+0x4e>
 8003ed8:	4b17      	ldr	r3, [pc, #92]	; (8003f38 <SysTick_Handler+0xa0>)
 8003eda:	681b      	ldr	r3, [r3, #0]
 8003edc:	6a1a      	ldr	r2, [r3, #32]
 8003ede:	f102 32ff 	add.w	r2, r2, #4294967295
 8003ee2:	621a      	str	r2, [r3, #32]
 8003ee4:	e006      	b.n	8003ef4 <SysTick_Handler+0x5c>
 8003ee6:	4b14      	ldr	r3, [pc, #80]	; (8003f38 <SysTick_Handler+0xa0>)
 8003ee8:	681b      	ldr	r3, [r3, #0]
 8003eea:	f04f 0200 	mov.w	r2, #0
 8003eee:	621a      	str	r2, [r3, #32]
 8003ef0:	f7ff f8a0 	bl	8003034 <isr_TimeDispose>
 8003ef4:	4b11      	ldr	r3, [pc, #68]	; (8003f3c <SysTick_Handler+0xa4>)
 8003ef6:	681b      	ldr	r3, [r3, #0]
 8003ef8:	2b00      	cmp	r3, #0
 8003efa:	d012      	beq.n	8003f22 <SysTick_Handler+0x8a>
 8003efc:	4b0f      	ldr	r3, [pc, #60]	; (8003f3c <SysTick_Handler+0xa4>)
 8003efe:	681b      	ldr	r3, [r3, #0]
 8003f00:	685b      	ldr	r3, [r3, #4]
 8003f02:	2b01      	cmp	r3, #1
 8003f04:	d906      	bls.n	8003f14 <SysTick_Handler+0x7c>
 8003f06:	4b0d      	ldr	r3, [pc, #52]	; (8003f3c <SysTick_Handler+0xa4>)
 8003f08:	681b      	ldr	r3, [r3, #0]
 8003f0a:	685a      	ldr	r2, [r3, #4]
 8003f0c:	f102 32ff 	add.w	r2, r2, #4294967295
 8003f10:	605a      	str	r2, [r3, #4]
 8003f12:	e006      	b.n	8003f22 <SysTick_Handler+0x8a>
 8003f14:	4b09      	ldr	r3, [pc, #36]	; (8003f3c <SysTick_Handler+0xa4>)
 8003f16:	681b      	ldr	r3, [r3, #0]
 8003f18:	f04f 0200 	mov.w	r2, #0
 8003f1c:	605a      	str	r2, [r3, #4]
 8003f1e:	f7fc fe03 	bl	8000b28 <isr_TmrDispose>
 8003f22:	4b07      	ldr	r3, [pc, #28]	; (8003f40 <SysTick_Handler+0xa8>)
 8003f24:	f04f 0201 	mov.w	r2, #1
 8003f28:	701a      	strb	r2, [r3, #0]
 8003f2a:	f7fc f951 	bl	80001d0 <OsSchedUnlock>
 8003f2e:	bd80      	pop	{r7, pc}
 8003f30:	200001e5 	.word	0x200001e5
 8003f34:	20000558 	.word	0x20000558
 8003f38:	200003d8 	.word	0x200003d8
 8003f3c:	20000218 	.word	0x20000218
 8003f40:	200001e6 	.word	0x200001e6

08003f44 <NVIC_PriorityGroupConfig>:
 8003f44:	b480      	push	{r7}
 8003f46:	b083      	sub	sp, #12
 8003f48:	af00      	add	r7, sp, #0
 8003f4a:	6078      	str	r0, [r7, #4]
 8003f4c:	4a05      	ldr	r2, [pc, #20]	; (8003f64 <NVIC_PriorityGroupConfig+0x20>)
 8003f4e:	687b      	ldr	r3, [r7, #4]
 8003f50:	f043 63be 	orr.w	r3, r3, #99614720	; 0x5f00000
 8003f54:	f443 2320 	orr.w	r3, r3, #655360	; 0xa0000
 8003f58:	60d3      	str	r3, [r2, #12]
 8003f5a:	f107 070c 	add.w	r7, r7, #12
 8003f5e:	46bd      	mov	sp, r7
 8003f60:	bc80      	pop	{r7}
 8003f62:	4770      	bx	lr
 8003f64:	e000ed00 	.word	0xe000ed00

08003f68 <NVIC_Init>:
 8003f68:	b480      	push	{r7}
 8003f6a:	b087      	sub	sp, #28
 8003f6c:	af00      	add	r7, sp, #0
 8003f6e:	6078      	str	r0, [r7, #4]
 8003f70:	f04f 0300 	mov.w	r3, #0
 8003f74:	617b      	str	r3, [r7, #20]
 8003f76:	f04f 0300 	mov.w	r3, #0
 8003f7a:	613b      	str	r3, [r7, #16]
 8003f7c:	f04f 030f 	mov.w	r3, #15
 8003f80:	60fb      	str	r3, [r7, #12]
 8003f82:	687b      	ldr	r3, [r7, #4]
 8003f84:	78db      	ldrb	r3, [r3, #3]
 8003f86:	2b00      	cmp	r3, #0
 8003f88:	d03f      	beq.n	800400a <NVIC_Init+0xa2>
 8003f8a:	4b2b      	ldr	r3, [pc, #172]	; (8004038 <NVIC_Init+0xd0>)
 8003f8c:	68db      	ldr	r3, [r3, #12]
 8003f8e:	ea6f 0303 	mvn.w	r3, r3
 8003f92:	f403 63e0 	and.w	r3, r3, #1792	; 0x700
 8003f96:	ea4f 2313 	mov.w	r3, r3, lsr #8
 8003f9a:	617b      	str	r3, [r7, #20]
 8003f9c:	697b      	ldr	r3, [r7, #20]
 8003f9e:	f1c3 0304 	rsb	r3, r3, #4
 8003fa2:	613b      	str	r3, [r7, #16]
 8003fa4:	697b      	ldr	r3, [r7, #20]
 8003fa6:	68fa      	ldr	r2, [r7, #12]
 8003fa8:	fa22 f303 	lsr.w	r3, r2, r3
 8003fac:	60fb      	str	r3, [r7, #12]
 8003fae:	687b      	ldr	r3, [r7, #4]
 8003fb0:	785b      	ldrb	r3, [r3, #1]
 8003fb2:	461a      	mov	r2, r3
 8003fb4:	693b      	ldr	r3, [r7, #16]
 8003fb6:	fa02 f303 	lsl.w	r3, r2, r3
 8003fba:	617b      	str	r3, [r7, #20]
 8003fbc:	687b      	ldr	r3, [r7, #4]
 8003fbe:	789b      	ldrb	r3, [r3, #2]
 8003fc0:	461a      	mov	r2, r3
 8003fc2:	68fb      	ldr	r3, [r7, #12]
 8003fc4:	ea02 0303 	and.w	r3, r2, r3
 8003fc8:	697a      	ldr	r2, [r7, #20]
 8003fca:	ea42 0303 	orr.w	r3, r2, r3
 8003fce:	617b      	str	r3, [r7, #20]
 8003fd0:	697b      	ldr	r3, [r7, #20]
 8003fd2:	ea4f 1303 	mov.w	r3, r3, lsl #4
 8003fd6:	617b      	str	r3, [r7, #20]
 8003fd8:	4918      	ldr	r1, [pc, #96]	; (800403c <NVIC_Init+0xd4>)
 8003fda:	687b      	ldr	r3, [r7, #4]
 8003fdc:	781b      	ldrb	r3, [r3, #0]
 8003fde:	697a      	ldr	r2, [r7, #20]
 8003fe0:	b2d2      	uxtb	r2, r2
 8003fe2:	18cb      	adds	r3, r1, r3
 8003fe4:	f883 2300 	strb.w	r2, [r3, #768]	; 0x300
 8003fe8:	4b14      	ldr	r3, [pc, #80]	; (800403c <NVIC_Init+0xd4>)
 8003fea:	687a      	ldr	r2, [r7, #4]
 8003fec:	7812      	ldrb	r2, [r2, #0]
 8003fee:	ea4f 1252 	mov.w	r2, r2, lsr #5
 8003ff2:	b2d2      	uxtb	r2, r2
 8003ff4:	6879      	ldr	r1, [r7, #4]
 8003ff6:	7809      	ldrb	r1, [r1, #0]
 8003ff8:	f001 011f 	and.w	r1, r1, #31
 8003ffc:	f04f 0001 	mov.w	r0, #1
 8004000:	fa00 f101 	lsl.w	r1, r0, r1
 8004004:	f843 1022 	str.w	r1, [r3, r2, lsl #2]
 8004008:	e011      	b.n	800402e <NVIC_Init+0xc6>
 800400a:	4b0c      	ldr	r3, [pc, #48]	; (800403c <NVIC_Init+0xd4>)
 800400c:	687a      	ldr	r2, [r7, #4]
 800400e:	7812      	ldrb	r2, [r2, #0]
 8004010:	ea4f 1252 	mov.w	r2, r2, lsr #5
 8004014:	b2d2      	uxtb	r2, r2
 8004016:	6879      	ldr	r1, [r7, #4]
 8004018:	7809      	ldrb	r1, [r1, #0]
 800401a:	f001 011f 	and.w	r1, r1, #31
 800401e:	f04f 0001 	mov.w	r0, #1
 8004022:	fa00 f101 	lsl.w	r1, r0, r1
 8004026:	f102 0220 	add.w	r2, r2, #32
 800402a:	f843 1022 	str.w	r1, [r3, r2, lsl #2]
 800402e:	f107 071c 	add.w	r7, r7, #28
 8004032:	46bd      	mov	sp, r7
 8004034:	bc80      	pop	{r7}
 8004036:	4770      	bx	lr
 8004038:	e000ed00 	.word	0xe000ed00
 800403c:	e000e100 	.word	0xe000e100

08004040 <CoPostSem>:
 8004040:	b580      	push	{r7, lr}
 8004042:	b084      	sub	sp, #16
 8004044:	af00      	add	r7, sp, #0
 8004046:	4603      	mov	r3, r0
 8004048:	71fb      	strb	r3, [r7, #7]
 800404a:	79fb      	ldrb	r3, [r7, #7]
 800404c:	2b13      	cmp	r3, #19
 800404e:	d902      	bls.n	8004056 <CoPostSem+0x16>
 8004050:	f04f 0301 	mov.w	r3, #1
 8004054:	e02e      	b.n	80040b4 <CoPostSem+0x74>
 8004056:	79fb      	ldrb	r3, [r7, #7]
 8004058:	ea4f 1203 	mov.w	r2, r3, lsl #4
 800405c:	4b18      	ldr	r3, [pc, #96]	; (80040c0 <CoPostSem+0x80>)
 800405e:	18d3      	adds	r3, r2, r3
 8004060:	60fb      	str	r3, [r7, #12]
 8004062:	68fb      	ldr	r3, [r7, #12]
 8004064:	795b      	ldrb	r3, [r3, #5]
 8004066:	f003 030f 	and.w	r3, r3, #15
 800406a:	b2db      	uxtb	r3, r3
 800406c:	2b01      	cmp	r3, #1
 800406e:	d002      	beq.n	8004076 <CoPostSem+0x36>
 8004070:	f04f 0301 	mov.w	r3, #1
 8004074:	e01e      	b.n	80040b4 <CoPostSem+0x74>
 8004076:	68fb      	ldr	r3, [r7, #12]
 8004078:	88da      	ldrh	r2, [r3, #6]
 800407a:	68fb      	ldr	r3, [r7, #12]
 800407c:	891b      	ldrh	r3, [r3, #8]
 800407e:	429a      	cmp	r2, r3
 8004080:	d102      	bne.n	8004088 <CoPostSem+0x48>
 8004082:	f04f 0306 	mov.w	r3, #6
 8004086:	e015      	b.n	80040b4 <CoPostSem+0x74>
 8004088:	4b0e      	ldr	r3, [pc, #56]	; (80040c4 <CoPostSem+0x84>)
 800408a:	781b      	ldrb	r3, [r3, #0]
 800408c:	b2db      	uxtb	r3, r3
 800408e:	f103 0301 	add.w	r3, r3, #1
 8004092:	b2da      	uxtb	r2, r3
 8004094:	4b0b      	ldr	r3, [pc, #44]	; (80040c4 <CoPostSem+0x84>)
 8004096:	701a      	strb	r2, [r3, #0]
 8004098:	68fb      	ldr	r3, [r7, #12]
 800409a:	88db      	ldrh	r3, [r3, #6]
 800409c:	f103 0301 	add.w	r3, r3, #1
 80040a0:	b29a      	uxth	r2, r3
 80040a2:	68fb      	ldr	r3, [r7, #12]
 80040a4:	80da      	strh	r2, [r3, #6]
 80040a6:	68f8      	ldr	r0, [r7, #12]
 80040a8:	f7ff f8f0 	bl	800328c <EventTaskToRdy>
 80040ac:	f7fc f890 	bl	80001d0 <OsSchedUnlock>
 80040b0:	f04f 0300 	mov.w	r3, #0
 80040b4:	4618      	mov	r0, r3
 80040b6:	f107 0710 	add.w	r7, r7, #16
 80040ba:	46bd      	mov	sp, r7
 80040bc:	bd80      	pop	{r7, pc}
 80040be:	bf00      	nop
 80040c0:	200003dc 	.word	0x200003dc
 80040c4:	200001e5 	.word	0x200001e5

080040c8 <Read_Data>:
 80040c8:	b580      	push	{r7, lr}
 80040ca:	b084      	sub	sp, #16
 80040cc:	af00      	add	r7, sp, #0
 80040ce:	4603      	mov	r3, r0
 80040d0:	71fb      	strb	r3, [r7, #7]
 80040d2:	4b4d      	ldr	r3, [pc, #308]	; (8004208 <Read_Data+0x140>)
 80040d4:	781b      	ldrb	r3, [r3, #0]
 80040d6:	2b00      	cmp	r3, #0
 80040d8:	f000 8092 	beq.w	8004200 <Read_Data+0x138>
 80040dc:	4b4b      	ldr	r3, [pc, #300]	; (800420c <Read_Data+0x144>)
 80040de:	681b      	ldr	r3, [r3, #0]
 80040e0:	2b01      	cmp	r3, #1
 80040e2:	d103      	bne.n	80040ec <Read_Data+0x24>
 80040e4:	79fb      	ldrb	r3, [r7, #7]
 80040e6:	2b7e      	cmp	r3, #126	; 0x7e
 80040e8:	f000 8089 	beq.w	80041fe <Read_Data+0x136>
 80040ec:	4b48      	ldr	r3, [pc, #288]	; (8004210 <Read_Data+0x148>)
 80040ee:	781b      	ldrb	r3, [r3, #0]
 80040f0:	461a      	mov	r2, r3
 80040f2:	4b46      	ldr	r3, [pc, #280]	; (800420c <Read_Data+0x144>)
 80040f4:	681b      	ldr	r3, [r3, #0]
 80040f6:	4947      	ldr	r1, [pc, #284]	; (8004214 <Read_Data+0x14c>)
 80040f8:	ea4f 1282 	mov.w	r2, r2, lsl #6
 80040fc:	18d2      	adds	r2, r2, r3
 80040fe:	188a      	adds	r2, r1, r2
 8004100:	79f9      	ldrb	r1, [r7, #7]
 8004102:	7011      	strb	r1, [r2, #0]
 8004104:	f103 0201 	add.w	r2, r3, #1
 8004108:	4b40      	ldr	r3, [pc, #256]	; (800420c <Read_Data+0x144>)
 800410a:	601a      	str	r2, [r3, #0]
 800410c:	79fb      	ldrb	r3, [r7, #7]
 800410e:	2b7e      	cmp	r3, #126	; 0x7e
 8004110:	d156      	bne.n	80041c0 <Read_Data+0xf8>
 8004112:	4841      	ldr	r0, [pc, #260]	; (8004218 <Read_Data+0x150>)
 8004114:	f7fe fc82 	bl	8002a1c <printf>
 8004118:	4b40      	ldr	r3, [pc, #256]	; (800421c <Read_Data+0x154>)
 800411a:	f04f 0200 	mov.w	r2, #0
 800411e:	601a      	str	r2, [r3, #0]
 8004120:	e014      	b.n	800414c <Read_Data+0x84>
 8004122:	4b3b      	ldr	r3, [pc, #236]	; (8004210 <Read_Data+0x148>)
 8004124:	781b      	ldrb	r3, [r3, #0]
 8004126:	4619      	mov	r1, r3
 8004128:	4b3c      	ldr	r3, [pc, #240]	; (800421c <Read_Data+0x154>)
 800412a:	681b      	ldr	r3, [r3, #0]
 800412c:	4a39      	ldr	r2, [pc, #228]	; (8004214 <Read_Data+0x14c>)
 800412e:	ea4f 1181 	mov.w	r1, r1, lsl #6
 8004132:	18cb      	adds	r3, r1, r3
 8004134:	18d3      	adds	r3, r2, r3
 8004136:	781b      	ldrb	r3, [r3, #0]
 8004138:	4839      	ldr	r0, [pc, #228]	; (8004220 <Read_Data+0x158>)
 800413a:	4619      	mov	r1, r3
 800413c:	f7fe fc6e 	bl	8002a1c <printf>
 8004140:	4b36      	ldr	r3, [pc, #216]	; (800421c <Read_Data+0x154>)
 8004142:	681b      	ldr	r3, [r3, #0]
 8004144:	f103 0201 	add.w	r2, r3, #1
 8004148:	4b34      	ldr	r3, [pc, #208]	; (800421c <Read_Data+0x154>)
 800414a:	601a      	str	r2, [r3, #0]
 800414c:	4b33      	ldr	r3, [pc, #204]	; (800421c <Read_Data+0x154>)
 800414e:	681a      	ldr	r2, [r3, #0]
 8004150:	4b2e      	ldr	r3, [pc, #184]	; (800420c <Read_Data+0x144>)
 8004152:	681b      	ldr	r3, [r3, #0]
 8004154:	429a      	cmp	r2, r3
 8004156:	dbe4      	blt.n	8004122 <Read_Data+0x5a>
 8004158:	4832      	ldr	r0, [pc, #200]	; (8004224 <Read_Data+0x15c>)
 800415a:	f7fe fc75 	bl	8002a48 <puts>
 800415e:	4b32      	ldr	r3, [pc, #200]	; (8004228 <Read_Data+0x160>)
 8004160:	781a      	ldrb	r2, [r3, #0]
 8004162:	4b2b      	ldr	r3, [pc, #172]	; (8004210 <Read_Data+0x148>)
 8004164:	781b      	ldrb	r3, [r3, #0]
 8004166:	ea4f 1183 	mov.w	r1, r3, lsl #6
 800416a:	4b2a      	ldr	r3, [pc, #168]	; (8004214 <Read_Data+0x14c>)
 800416c:	18cb      	adds	r3, r1, r3
 800416e:	4610      	mov	r0, r2
 8004170:	4619      	mov	r1, r3
 8004172:	f7ff fb3b 	bl	80037ec <CoPostQueueMail>
 8004176:	4603      	mov	r3, r0
 8004178:	73fb      	strb	r3, [r7, #15]
 800417a:	7bfb      	ldrb	r3, [r7, #15]
 800417c:	2b00      	cmp	r3, #0
 800417e:	d00c      	beq.n	800419a <Read_Data+0xd2>
 8004180:	7bfb      	ldrb	r3, [r7, #15]
 8004182:	2b01      	cmp	r3, #1
 8004184:	d103      	bne.n	800418e <Read_Data+0xc6>
 8004186:	4829      	ldr	r0, [pc, #164]	; (800422c <Read_Data+0x164>)
 8004188:	f7fe fc5e 	bl	8002a48 <puts>
 800418c:	e005      	b.n	800419a <Read_Data+0xd2>
 800418e:	7bfb      	ldrb	r3, [r7, #15]
 8004190:	2b07      	cmp	r3, #7
 8004192:	d102      	bne.n	800419a <Read_Data+0xd2>
 8004194:	4826      	ldr	r0, [pc, #152]	; (8004230 <Read_Data+0x168>)
 8004196:	f7fe fc57 	bl	8002a48 <puts>
 800419a:	4b1b      	ldr	r3, [pc, #108]	; (8004208 <Read_Data+0x140>)
 800419c:	f04f 0200 	mov.w	r2, #0
 80041a0:	701a      	strb	r2, [r3, #0]
 80041a2:	4b1a      	ldr	r3, [pc, #104]	; (800420c <Read_Data+0x144>)
 80041a4:	f04f 0200 	mov.w	r2, #0
 80041a8:	601a      	str	r2, [r3, #0]
 80041aa:	4b19      	ldr	r3, [pc, #100]	; (8004210 <Read_Data+0x148>)
 80041ac:	781b      	ldrb	r3, [r3, #0]
 80041ae:	f083 0301 	eor.w	r3, r3, #1
 80041b2:	b2da      	uxtb	r2, r3
 80041b4:	4b16      	ldr	r3, [pc, #88]	; (8004210 <Read_Data+0x148>)
 80041b6:	701a      	strb	r2, [r3, #0]
 80041b8:	481e      	ldr	r0, [pc, #120]	; (8004234 <Read_Data+0x16c>)
 80041ba:	f7fe fc45 	bl	8002a48 <puts>
 80041be:	e01f      	b.n	8004200 <Read_Data+0x138>
 80041c0:	79fb      	ldrb	r3, [r7, #7]
 80041c2:	2b7e      	cmp	r3, #126	; 0x7e
 80041c4:	d115      	bne.n	80041f2 <Read_Data+0x12a>
 80041c6:	4b10      	ldr	r3, [pc, #64]	; (8004208 <Read_Data+0x140>)
 80041c8:	f04f 0201 	mov.w	r2, #1
 80041cc:	701a      	strb	r2, [r3, #0]
 80041ce:	4b10      	ldr	r3, [pc, #64]	; (8004210 <Read_Data+0x148>)
 80041d0:	781b      	ldrb	r3, [r3, #0]
 80041d2:	461a      	mov	r2, r3
 80041d4:	4b0d      	ldr	r3, [pc, #52]	; (800420c <Read_Data+0x144>)
 80041d6:	681b      	ldr	r3, [r3, #0]
 80041d8:	490e      	ldr	r1, [pc, #56]	; (8004214 <Read_Data+0x14c>)
 80041da:	ea4f 1282 	mov.w	r2, r2, lsl #6
 80041de:	18d2      	adds	r2, r2, r3
 80041e0:	188a      	adds	r2, r1, r2
 80041e2:	f04f 017e 	mov.w	r1, #126	; 0x7e
 80041e6:	7011      	strb	r1, [r2, #0]
 80041e8:	f103 0201 	add.w	r2, r3, #1
 80041ec:	4b07      	ldr	r3, [pc, #28]	; (800420c <Read_Data+0x144>)
 80041ee:	601a      	str	r2, [r3, #0]
 80041f0:	e006      	b.n	8004200 <Read_Data+0x138>
 80041f2:	79fb      	ldrb	r3, [r7, #7]
 80041f4:	4810      	ldr	r0, [pc, #64]	; (8004238 <Read_Data+0x170>)
 80041f6:	4619      	mov	r1, r3
 80041f8:	f7fe fc10 	bl	8002a1c <printf>
 80041fc:	e000      	b.n	8004200 <Read_Data+0x138>
 80041fe:	bf00      	nop
 8004200:	f107 0710 	add.w	r7, r7, #16
 8004204:	46bd      	mov	sp, r7
 8004206:	bd80      	pop	{r7, pc}
 8004208:	20000560 	.word	0x20000560
 800420c:	20000564 	.word	0x20000564
 8004210:	20000568 	.word	0x20000568
 8004214:	20000bf4 	.word	0x20000bf4
 8004218:	0800460c 	.word	0x0800460c
 800421c:	2000056c 	.word	0x2000056c
 8004220:	0800461c 	.word	0x0800461c
 8004224:	08004624 	.word	0x08004624
 8004228:	200008c4 	.word	0x200008c4
 800422c:	08004628 	.word	0x08004628
 8004230:	0800463c 	.word	0x0800463c
 8004234:	08004650 	.word	0x08004650
 8004238:	08004664 	.word	0x08004664

0800423c <wsnPacketDecoding>:
 800423c:	b580      	push	{r7, lr}
 800423e:	b094      	sub	sp, #80	; 0x50
 8004240:	af00      	add	r7, sp, #0
 8004242:	4b1f      	ldr	r3, [pc, #124]	; (80042c0 <wsnPacketDecoding+0x84>)
 8004244:	781a      	ldrb	r2, [r3, #0]
 8004246:	f107 0307 	add.w	r3, r7, #7
 800424a:	4610      	mov	r0, r2
 800424c:	f04f 0100 	mov.w	r1, #0
 8004250:	461a      	mov	r2, r3
 8004252:	f7ff fa07 	bl	8003664 <CoPendQueueMail>
 8004256:	64f8      	str	r0, [r7, #76]	; 0x4c
 8004258:	79fb      	ldrb	r3, [r7, #7]
 800425a:	2b00      	cmp	r3, #0
 800425c:	d006      	beq.n	800426c <wsnPacketDecoding+0x30>
 800425e:	79fb      	ldrb	r3, [r7, #7]
 8004260:	2b01      	cmp	r3, #1
 8004262:	d128      	bne.n	80042b6 <wsnPacketDecoding+0x7a>
 8004264:	4817      	ldr	r0, [pc, #92]	; (80042c4 <wsnPacketDecoding+0x88>)
 8004266:	f7fe fbef 	bl	8002a48 <puts>
 800426a:	e024      	b.n	80042b6 <wsnPacketDecoding+0x7a>
 800426c:	f107 0308 	add.w	r3, r7, #8
 8004270:	4618      	mov	r0, r3
 8004272:	6cf9      	ldr	r1, [r7, #76]	; 0x4c
 8004274:	f04f 0240 	mov.w	r2, #64	; 0x40
 8004278:	f000 f87a 	bl	8004370 <memcpy>
 800427c:	7a7b      	ldrb	r3, [r7, #9]
 800427e:	2b45      	cmp	r3, #69	; 0x45
 8004280:	d119      	bne.n	80042b6 <wsnPacketDecoding+0x7a>
 8004282:	4b11      	ldr	r3, [pc, #68]	; (80042c8 <wsnPacketDecoding+0x8c>)
 8004284:	f107 0208 	add.w	r2, r7, #8
 8004288:	4610      	mov	r0, r2
 800428a:	4798      	blx	r3
 800428c:	f107 0308 	add.w	r3, r7, #8
 8004290:	f103 0303 	add.w	r3, r3, #3
 8004294:	64bb      	str	r3, [r7, #72]	; 0x48
 8004296:	6cbb      	ldr	r3, [r7, #72]	; 0x48
 8004298:	f103 0307 	add.w	r3, r3, #7
 800429c:	f103 0304 	add.w	r3, r3, #4
 80042a0:	f107 0208 	add.w	r2, r7, #8
 80042a4:	4610      	mov	r0, r2
 80042a6:	4619      	mov	r1, r3
 80042a8:	f04f 0224 	mov.w	r2, #36	; 0x24
 80042ac:	f000 f860 	bl	8004370 <memcpy>
 80042b0:	4806      	ldr	r0, [pc, #24]	; (80042cc <wsnPacketDecoding+0x90>)
 80042b2:	f7fe fbb3 	bl	8002a1c <printf>
 80042b6:	f107 0750 	add.w	r7, r7, #80	; 0x50
 80042ba:	46bd      	mov	sp, r7
 80042bc:	bd80      	pop	{r7, pc}
 80042be:	bf00      	nop
 80042c0:	200008c4 	.word	0x200008c4
 80042c4:	08004668 	.word	0x08004668
 80042c8:	080042d1 	.word	0x080042d1
 80042cc:	0800467c 	.word	0x0800467c

080042d0 <ParsePkt>:
 80042d0:	b480      	push	{r7}
 80042d2:	b085      	sub	sp, #20
 80042d4:	af00      	add	r7, sp, #0
 80042d6:	6078      	str	r0, [r7, #4]
 80042d8:	f04f 0301 	mov.w	r3, #1
 80042dc:	60fb      	str	r3, [r7, #12]
 80042de:	f04f 0301 	mov.w	r3, #1
 80042e2:	60bb      	str	r3, [r7, #8]
 80042e4:	e02d      	b.n	8004342 <ParsePkt+0x72>
 80042e6:	68fb      	ldr	r3, [r7, #12]
 80042e8:	687a      	ldr	r2, [r7, #4]
 80042ea:	18d3      	adds	r3, r2, r3
 80042ec:	781b      	ldrb	r3, [r3, #0]
 80042ee:	2b7d      	cmp	r3, #125	; 0x7d
 80042f0:	d117      	bne.n	8004322 <ParsePkt+0x52>
 80042f2:	68bb      	ldr	r3, [r7, #8]
 80042f4:	687a      	ldr	r2, [r7, #4]
 80042f6:	18d3      	adds	r3, r2, r3
 80042f8:	68fa      	ldr	r2, [r7, #12]
 80042fa:	f102 0201 	add.w	r2, r2, #1
 80042fe:	60fa      	str	r2, [r7, #12]
 8004300:	68fa      	ldr	r2, [r7, #12]
 8004302:	6879      	ldr	r1, [r7, #4]
 8004304:	188a      	adds	r2, r1, r2
 8004306:	7812      	ldrb	r2, [r2, #0]
 8004308:	f082 0220 	eor.w	r2, r2, #32
 800430c:	b2d2      	uxtb	r2, r2
 800430e:	701a      	strb	r2, [r3, #0]
 8004310:	68bb      	ldr	r3, [r7, #8]
 8004312:	f103 0301 	add.w	r3, r3, #1
 8004316:	60bb      	str	r3, [r7, #8]
 8004318:	68fb      	ldr	r3, [r7, #12]
 800431a:	f103 0301 	add.w	r3, r3, #1
 800431e:	60fb      	str	r3, [r7, #12]
 8004320:	e00f      	b.n	8004342 <ParsePkt+0x72>
 8004322:	68bb      	ldr	r3, [r7, #8]
 8004324:	687a      	ldr	r2, [r7, #4]
 8004326:	18d3      	adds	r3, r2, r3
 8004328:	68fa      	ldr	r2, [r7, #12]
 800432a:	6879      	ldr	r1, [r7, #4]
 800432c:	188a      	adds	r2, r1, r2
 800432e:	7812      	ldrb	r2, [r2, #0]
 8004330:	701a      	strb	r2, [r3, #0]
 8004332:	68bb      	ldr	r3, [r7, #8]
 8004334:	f103 0301 	add.w	r3, r3, #1
 8004338:	60bb      	str	r3, [r7, #8]
 800433a:	68fb      	ldr	r3, [r7, #12]
 800433c:	f103 0301 	add.w	r3, r3, #1
 8004340:	60fb      	str	r3, [r7, #12]
 8004342:	68fb      	ldr	r3, [r7, #12]
 8004344:	687a      	ldr	r2, [r7, #4]
 8004346:	18d3      	adds	r3, r2, r3
 8004348:	781b      	ldrb	r3, [r3, #0]
 800434a:	2b7e      	cmp	r3, #126	; 0x7e
 800434c:	d1cb      	bne.n	80042e6 <ParsePkt+0x16>
 800434e:	f107 0714 	add.w	r7, r7, #20
 8004352:	46bd      	mov	sp, r7
 8004354:	bc80      	pop	{r7}
 8004356:	4770      	bx	lr

08004358 <CoIdleTask>:
 8004358:	b480      	push	{r7}
 800435a:	b083      	sub	sp, #12
 800435c:	af00      	add	r7, sp, #0
 800435e:	6078      	str	r0, [r7, #4]
 8004360:	e7fe      	b.n	8004360 <CoIdleTask+0x8>
 8004362:	bf00      	nop

08004364 <CoStkOverflowHook>:
 8004364:	b480      	push	{r7}
 8004366:	b083      	sub	sp, #12
 8004368:	af00      	add	r7, sp, #0
 800436a:	4603      	mov	r3, r0
 800436c:	71fb      	strb	r3, [r7, #7]
 800436e:	e7fe      	b.n	800436e <CoStkOverflowHook+0xa>

08004370 <memcpy>:
 8004370:	2a03      	cmp	r2, #3
 8004372:	e92d 01f0 	stmdb	sp!, {r4, r5, r6, r7, r8}
 8004376:	d809      	bhi.n	800438c <memcpy+0x1c>
 8004378:	b12a      	cbz	r2, 8004386 <memcpy+0x16>
 800437a:	2300      	movs	r3, #0
 800437c:	5ccc      	ldrb	r4, [r1, r3]
 800437e:	54c4      	strb	r4, [r0, r3]
 8004380:	3301      	adds	r3, #1
 8004382:	4293      	cmp	r3, r2
 8004384:	d1fa      	bne.n	800437c <memcpy+0xc>
 8004386:	e8bd 01f0 	ldmia.w	sp!, {r4, r5, r6, r7, r8}
 800438a:	4770      	bx	lr
 800438c:	460b      	mov	r3, r1
 800438e:	1882      	adds	r2, r0, r2
 8004390:	4601      	mov	r1, r0
 8004392:	e003      	b.n	800439c <memcpy+0x2c>
 8004394:	7824      	ldrb	r4, [r4, #0]
 8004396:	3301      	adds	r3, #1
 8004398:	f801 4b01 	strb.w	r4, [r1], #1
 800439c:	f011 0f03 	tst.w	r1, #3
 80043a0:	461c      	mov	r4, r3
 80043a2:	d1f7      	bne.n	8004394 <memcpy+0x24>
 80043a4:	f013 0503 	ands.w	r5, r3, #3
 80043a8:	d05d      	beq.n	8004466 <memcpy+0xf6>
 80043aa:	426e      	negs	r6, r5
 80043ac:	f1c5 0c04 	rsb	ip, r5, #4
 80043b0:	00ed      	lsls	r5, r5, #3
 80043b2:	599b      	ldr	r3, [r3, r6]
 80043b4:	ea4f 0ccc 	mov.w	ip, ip, lsl #3
 80043b8:	e008      	b.n	80043cc <memcpy+0x5c>
 80043ba:	3404      	adds	r4, #4
 80043bc:	59a7      	ldr	r7, [r4, r6]
 80043be:	463b      	mov	r3, r7
 80043c0:	fa07 f70c 	lsl.w	r7, r7, ip
 80043c4:	ea48 0707 	orr.w	r7, r8, r7
 80043c8:	f841 7b04 	str.w	r7, [r1], #4
 80043cc:	1a57      	subs	r7, r2, r1
 80043ce:	fa23 f805 	lsr.w	r8, r3, r5
 80043d2:	2f03      	cmp	r7, #3
 80043d4:	dcf1      	bgt.n	80043ba <memcpy+0x4a>
 80043d6:	e003      	b.n	80043e0 <memcpy+0x70>
 80043d8:	f814 3b01 	ldrb.w	r3, [r4], #1
 80043dc:	f801 3b01 	strb.w	r3, [r1], #1
 80043e0:	428a      	cmp	r2, r1
 80043e2:	d8f9      	bhi.n	80043d8 <memcpy+0x68>
 80043e4:	e7cf      	b.n	8004386 <memcpy+0x16>
 80043e6:	f853 4c40 	ldr.w	r4, [r3, #-64]
 80043ea:	f841 4c40 	str.w	r4, [r1, #-64]
 80043ee:	f853 4c3c 	ldr.w	r4, [r3, #-60]
 80043f2:	f841 4c3c 	str.w	r4, [r1, #-60]
 80043f6:	f853 4c38 	ldr.w	r4, [r3, #-56]
 80043fa:	f841 4c38 	str.w	r4, [r1, #-56]
 80043fe:	f853 4c34 	ldr.w	r4, [r3, #-52]
 8004402:	f841 4c34 	str.w	r4, [r1, #-52]
 8004406:	f853 4c30 	ldr.w	r4, [r3, #-48]
 800440a:	f841 4c30 	str.w	r4, [r1, #-48]
 800440e:	f853 4c2c 	ldr.w	r4, [r3, #-44]
 8004412:	f841 4c2c 	str.w	r4, [r1, #-44]
 8004416:	f853 4c28 	ldr.w	r4, [r3, #-40]
 800441a:	f841 4c28 	str.w	r4, [r1, #-40]
 800441e:	f853 4c24 	ldr.w	r4, [r3, #-36]
 8004422:	f841 4c24 	str.w	r4, [r1, #-36]
 8004426:	f853 4c20 	ldr.w	r4, [r3, #-32]
 800442a:	f841 4c20 	str.w	r4, [r1, #-32]
 800442e:	f853 4c1c 	ldr.w	r4, [r3, #-28]
 8004432:	f841 4c1c 	str.w	r4, [r1, #-28]
 8004436:	f853 4c18 	ldr.w	r4, [r3, #-24]
 800443a:	f841 4c18 	str.w	r4, [r1, #-24]
 800443e:	f853 4c14 	ldr.w	r4, [r3, #-20]
 8004442:	f841 4c14 	str.w	r4, [r1, #-20]
 8004446:	f853 4c10 	ldr.w	r4, [r3, #-16]
 800444a:	f841 4c10 	str.w	r4, [r1, #-16]
 800444e:	f853 4c0c 	ldr.w	r4, [r3, #-12]
 8004452:	f841 4c0c 	str.w	r4, [r1, #-12]
 8004456:	f853 4c08 	ldr.w	r4, [r3, #-8]
 800445a:	f841 4c08 	str.w	r4, [r1, #-8]
 800445e:	f853 4c04 	ldr.w	r4, [r3, #-4]
 8004462:	f841 4c04 	str.w	r4, [r1, #-4]
 8004466:	1a56      	subs	r6, r2, r1
 8004468:	461d      	mov	r5, r3
 800446a:	460c      	mov	r4, r1
 800446c:	3340      	adds	r3, #64	; 0x40
 800446e:	3140      	adds	r1, #64	; 0x40
 8004470:	2e3f      	cmp	r6, #63	; 0x3f
 8004472:	dcb8      	bgt.n	80043e6 <memcpy+0x76>
 8004474:	462b      	mov	r3, r5
 8004476:	e00f      	b.n	8004498 <memcpy+0x128>
 8004478:	f853 1c10 	ldr.w	r1, [r3, #-16]
 800447c:	f844 1c10 	str.w	r1, [r4, #-16]
 8004480:	f853 1c0c 	ldr.w	r1, [r3, #-12]
 8004484:	f844 1c0c 	str.w	r1, [r4, #-12]
 8004488:	f853 1c08 	ldr.w	r1, [r3, #-8]
 800448c:	f844 1c08 	str.w	r1, [r4, #-8]
 8004490:	f853 1c04 	ldr.w	r1, [r3, #-4]
 8004494:	f844 1c04 	str.w	r1, [r4, #-4]
 8004498:	1b16      	subs	r6, r2, r4
 800449a:	4621      	mov	r1, r4
 800449c:	461d      	mov	r5, r3
 800449e:	3410      	adds	r4, #16
 80044a0:	3310      	adds	r3, #16
 80044a2:	2e0f      	cmp	r6, #15
 80044a4:	dce8      	bgt.n	8004478 <memcpy+0x108>
 80044a6:	462b      	mov	r3, r5
 80044a8:	e002      	b.n	80044b0 <memcpy+0x140>
 80044aa:	6824      	ldr	r4, [r4, #0]
 80044ac:	f841 4b04 	str.w	r4, [r1], #4
 80044b0:	1a55      	subs	r5, r2, r1
 80044b2:	461c      	mov	r4, r3
 80044b4:	2d03      	cmp	r5, #3
 80044b6:	f103 0304 	add.w	r3, r3, #4
 80044ba:	dcf6      	bgt.n	80044aa <memcpy+0x13a>
 80044bc:	e790      	b.n	80043e0 <memcpy+0x70>
 80044be:	bf00      	nop

080044c0 <pi_pio>:
 80044c0:	03dd 0800 0495 0800 06e1 0800 0601 0800     ................
 80044d0:	0755 0800                                   U...

080044d4 <APBAHBPrescTable>:
 80044d4:	0000 0000 0201 0403 0201 0403 0706 0908     ................

080044e4 <ADCPrescTable>:
 80044e4:	0402 0806                                   ....

080044e8 <pi_serial1>:
 80044e8:	1775 0800 17d5 0800 1841 0800 18ad 0800     u.......A.......

080044f8 <pi_serial2>:
 80044f8:	1795 0800 17f9 0800 1865 0800 18d9 0800     ........e.......

08004508 <pi_serial3>:
 8004508:	17b5 0800 181d 0800 1889 0800 1905 0800     ................
 8004518:	6553 7672 6369 2065 6572 7571 7365 2074     Service request 
 8004528:	7571 7565 2065 7369 6620 6c75 206c 0021     queue is full !.
 8004538:	6146 6c69 6465 7420 206f 7263 6165 6574     Failed to create
 8004548:	6120 6620 616c 2167 0000 0000 6c46 6761      a flag!....Flag
 8004558:	4920 2044 203a 6425 0a20 0000 7243 6165      ID : %d ...Crea
 8004568:	6574 6120 7120 6575 6575 6620 6961 206c     te a queue fail 
 8004578:	0021 0000 7551 7565 2065 4449 3a20 2520     !...Queue ID : %
 8004588:	2064 000a 6e49 6176 696c 2064 6c46 6761     d ..Invalid Flag
 8004598:	4920 2044 0021 0000 7245 6f72 2072 6163      ID !...Error ca
 80045a8:	6c6c 6920 206e 5349 2052 0021 6954 656d     ll in ISR !.Time
 80045b8:	4f20 7475 2120 0000 7542 6666 7265 6520      Out !..Buffer e
 80045c8:	7272 726f 0a20 000d 6e49 6176 696c 2064     rror ...Invalid 
 80045d8:	6c66 6761 4920 2044 0021 0000 2520 0063     flag ID !... %c.
 80045e8:	7473 6964 2e6f 3a63 6920 636e 6572 7361     stdio.c: increas
 80045f8:	2065 414d 5f58 5453 4952 474e 535f 5a49     e MAX_STRING_SIZ
 8004608:	0a45 000d 440a 7461 2061 6552 6463 6920     E....Data Recd i
 8004618:	3a73 0020 2509 2078 0000 0000 0020 0000     s: ..%x .... ...
 8004628:	6e49 6176 696c 2064 7551 7565 2065 4449     Invalid Queue ID
 8004638:	2120 0020 6854 2065 7551 7565 2065 7369      ! .The Queue is
 8004648:	6620 6c75 206c 0021 2b2b 2b2b 2b2b 2b2b      full !.++++++++
 8004658:	2b2b 2b2b 2b2b 2b2b 002b 0000 2520 0063     +++++++++... %c.
 8004668:	6e49 6176 696c 2064 7551 7565 2065 4449     Invalid Queue ID
 8004678:	2120 0000 7573 6363 7365 6673 6c75 796c      !..successfully
 8004688:	6120 6464 6465 7420 736f 7020 6361 656b      added tos packe
 8004698:	0074 0000                                   t...
