
Debug/bin\stmdscvrgpio.elf:     file format elf32-littlearm


Disassembly of section .text:

08000000 <g_pfnVectors>:
 8000000:	fc 03 00 20 25 01 00 08 8d 01 00 08 8d 01 00 08     ... %...........
 8000010:	8d 01 00 08 8d 01 00 08 8d 01 00 08 00 00 00 00     ................
	...
 800002c:	8d 01 00 08 8d 01 00 08 00 00 00 00 8d 01 00 08     ................
 800003c:	8d 01 00 08 8d 01 00 08 8d 01 00 08 8d 01 00 08     ................
 800004c:	8d 01 00 08 8d 01 00 08 8d 01 00 08 8d 01 00 08     ................
 800005c:	8d 01 00 08 8d 01 00 08 8d 01 00 08 8d 01 00 08     ................
 800006c:	8d 01 00 08 8d 01 00 08 8d 01 00 08 8d 01 00 08     ................
 800007c:	8d 01 00 08 8d 01 00 08 8d 01 00 08 8d 01 00 08     ................
	...
 800009c:	8d 01 00 08 8d 01 00 08 8d 01 00 08 8d 01 00 08     ................
 80000ac:	8d 01 00 08 8d 01 00 08 8d 01 00 08 8d 01 00 08     ................
 80000bc:	8d 01 00 08 8d 01 00 08 8d 01 00 08 8d 01 00 08     ................
 80000cc:	8d 01 00 08 8d 01 00 08 8d 01 00 08 8d 01 00 08     ................
 80000dc:	8d 01 00 08 8d 01 00 08 8d 01 00 08 8d 01 00 08     ................
	...
 8000118:	8d 01 00 08 8d 01 00 08 5f f8 08 f1                 ........_...

08000124 <Default_Reset_Handler>:
 8000124:	b580      	push	{r7, lr}
 8000126:	b082      	sub	sp, #8
 8000128:	af00      	add	r7, sp, #0
 800012a:	4b13      	ldr	r3, [pc, #76]	; (8000178 <zero_loop+0x1c>)
 800012c:	607b      	str	r3, [r7, #4]
 800012e:	4b13      	ldr	r3, [pc, #76]	; (800017c <zero_loop+0x20>)
 8000130:	603b      	str	r3, [r7, #0]
 8000132:	e00b      	b.n	800014c <Default_Reset_Handler+0x28>
 8000134:	687b      	ldr	r3, [r7, #4]
 8000136:	681a      	ldr	r2, [r3, #0]
 8000138:	683b      	ldr	r3, [r7, #0]
 800013a:	601a      	str	r2, [r3, #0]
 800013c:	683b      	ldr	r3, [r7, #0]
 800013e:	f103 0304 	add.w	r3, r3, #4
 8000142:	603b      	str	r3, [r7, #0]
 8000144:	687b      	ldr	r3, [r7, #4]
 8000146:	f103 0304 	add.w	r3, r3, #4
 800014a:	607b      	str	r3, [r7, #4]
 800014c:	683a      	ldr	r2, [r7, #0]
 800014e:	4b0c      	ldr	r3, [pc, #48]	; (8000180 <zero_loop+0x24>)
 8000150:	429a      	cmp	r2, r3
 8000152:	d3ef      	bcc.n	8000134 <Default_Reset_Handler+0x10>
 8000154:	480b      	ldr	r0, [pc, #44]	; (8000184 <zero_loop+0x28>)
 8000156:	490c      	ldr	r1, [pc, #48]	; (8000188 <zero_loop+0x2c>)
 8000158:	f04f 0200 	mov.w	r2, #0

0800015c <zero_loop>:
 800015c:	4288      	cmp	r0, r1
 800015e:	bfb8      	it	lt
 8000160:	f840 2b04 	strlt.w	r2, [r0], #4
 8000164:	dbfa      	blt.n	800015c <zero_loop>
 8000166:	f000 facf 	bl	8000708 <SystemInit>
 800016a:	f000 fb79 	bl	8000860 <main>
 800016e:	f107 0708 	add.w	r7, r7, #8
 8000172:	46bd      	mov	sp, r7
 8000174:	bd80      	pop	{r7, pc}
 8000176:	bf00      	nop
 8000178:	08000974 	.word	0x08000974
 800017c:	20000000 	.word	0x20000000
 8000180:	20000000 	.word	0x20000000
 8000184:	20000000 	.word	0x20000000
 8000188:	20000000 	.word	0x20000000

0800018c <ADC1_IRQHandler>:
 800018c:	b480      	push	{r7}
 800018e:	af00      	add	r7, sp, #0
 8000190:	e7fe      	b.n	8000190 <ADC1_IRQHandler+0x4>
 8000192:	bf00      	nop

08000194 <STM32_GetGPIO>:
 8000194:	b480      	push	{r7}
 8000196:	b085      	sub	sp, #20
 8000198:	af00      	add	r7, sp, #0
 800019a:	4603      	mov	r3, r0
 800019c:	71fb      	strb	r3, [r7, #7]
 800019e:	f04f 0300 	mov.w	r3, #0
 80001a2:	60fb      	str	r3, [r7, #12]
 80001a4:	79fb      	ldrb	r3, [r7, #7]
 80001a6:	2b06      	cmp	r3, #6
 80001a8:	d825      	bhi.n	80001f6 <STM32_GetGPIO+0x62>
 80001aa:	a201      	add	r2, pc, #4	; (adr r2, 80001b0 <STM32_GetGPIO+0x1c>)
 80001ac:	f852 f023 	ldr.w	pc, [r2, r3, lsl #2]
 80001b0:	080001cd 	.word	0x080001cd
 80001b4:	080001d3 	.word	0x080001d3
 80001b8:	080001d9 	.word	0x080001d9
 80001bc:	080001df 	.word	0x080001df
 80001c0:	080001e5 	.word	0x080001e5
 80001c4:	080001eb 	.word	0x080001eb
 80001c8:	080001f1 	.word	0x080001f1
 80001cc:	4b0e      	ldr	r3, [pc, #56]	; (8000208 <STM32_GetGPIO+0x74>)
 80001ce:	60fb      	str	r3, [r7, #12]
 80001d0:	e012      	b.n	80001f8 <STM32_GetGPIO+0x64>
 80001d2:	4b0e      	ldr	r3, [pc, #56]	; (800020c <STM32_GetGPIO+0x78>)
 80001d4:	60fb      	str	r3, [r7, #12]
 80001d6:	e00f      	b.n	80001f8 <STM32_GetGPIO+0x64>
 80001d8:	4b0d      	ldr	r3, [pc, #52]	; (8000210 <STM32_GetGPIO+0x7c>)
 80001da:	60fb      	str	r3, [r7, #12]
 80001dc:	e00c      	b.n	80001f8 <STM32_GetGPIO+0x64>
 80001de:	4b0d      	ldr	r3, [pc, #52]	; (8000214 <STM32_GetGPIO+0x80>)
 80001e0:	60fb      	str	r3, [r7, #12]
 80001e2:	e009      	b.n	80001f8 <STM32_GetGPIO+0x64>
 80001e4:	4b0c      	ldr	r3, [pc, #48]	; (8000218 <STM32_GetGPIO+0x84>)
 80001e6:	60fb      	str	r3, [r7, #12]
 80001e8:	e006      	b.n	80001f8 <STM32_GetGPIO+0x64>
 80001ea:	4b0c      	ldr	r3, [pc, #48]	; (800021c <STM32_GetGPIO+0x88>)
 80001ec:	60fb      	str	r3, [r7, #12]
 80001ee:	e003      	b.n	80001f8 <STM32_GetGPIO+0x64>
 80001f0:	4b0b      	ldr	r3, [pc, #44]	; (8000220 <STM32_GetGPIO+0x8c>)
 80001f2:	60fb      	str	r3, [r7, #12]
 80001f4:	e000      	b.n	80001f8 <STM32_GetGPIO+0x64>
 80001f6:	bf00      	nop
 80001f8:	68fb      	ldr	r3, [r7, #12]
 80001fa:	4618      	mov	r0, r3
 80001fc:	f107 0714 	add.w	r7, r7, #20
 8000200:	46bd      	mov	sp, r7
 8000202:	bc80      	pop	{r7}
 8000204:	4770      	bx	lr
 8000206:	bf00      	nop
 8000208:	40010800 	.word	0x40010800
 800020c:	40010c00 	.word	0x40010c00
 8000210:	40011000 	.word	0x40011000
 8000214:	40011400 	.word	0x40011400
 8000218:	40011800 	.word	0x40011800
 800021c:	40011c00 	.word	0x40011c00
 8000220:	40012000 	.word	0x40012000

08000224 <STM32_PIO_Init>:
 8000224:	b580      	push	{r7, lr}
 8000226:	b084      	sub	sp, #16
 8000228:	af00      	add	r7, sp, #0
 800022a:	4603      	mov	r3, r0
 800022c:	80fb      	strh	r3, [r7, #6]
 800022e:	f04f 0300 	mov.w	r3, #0
 8000232:	60fb      	str	r3, [r7, #12]
 8000234:	88fb      	ldrh	r3, [r7, #6]
 8000236:	ea4f 2313 	mov.w	r3, r3, lsr #8
 800023a:	b29b      	uxth	r3, r3
 800023c:	72fb      	strb	r3, [r7, #11]
 800023e:	88fb      	ldrh	r3, [r7, #6]
 8000240:	72bb      	strb	r3, [r7, #10]
 8000242:	7afb      	ldrb	r3, [r7, #11]
 8000244:	4618      	mov	r0, r3
 8000246:	f7ff ffa5 	bl	8000194 <STM32_GetGPIO>
 800024a:	60f8      	str	r0, [r7, #12]
 800024c:	7afb      	ldrb	r3, [r7, #11]
 800024e:	2b06      	cmp	r3, #6
 8000250:	d802      	bhi.n	8000258 <STM32_PIO_Init+0x34>
 8000252:	7abb      	ldrb	r3, [r7, #10]
 8000254:	2b0f      	cmp	r3, #15
 8000256:	d902      	bls.n	800025e <STM32_PIO_Init+0x3a>
 8000258:	f04f 0301 	mov.w	r3, #1
 800025c:	e036      	b.n	80002cc <STM32_PIO_Init+0xa8>
 800025e:	7afb      	ldrb	r3, [r7, #11]
 8000260:	2b04      	cmp	r3, #4
 8000262:	d830      	bhi.n	80002c6 <STM32_PIO_Init+0xa2>
 8000264:	a201      	add	r2, pc, #4	; (adr r2, 800026c <STM32_PIO_Init+0x48>)
 8000266:	f852 f023 	ldr.w	pc, [r2, r3, lsl #2]
 800026a:	bf00      	nop
 800026c:	08000281 	.word	0x08000281
 8000270:	0800028f 	.word	0x0800028f
 8000274:	0800029d 	.word	0x0800029d
 8000278:	080002ab 	.word	0x080002ab
 800027c:	080002b9 	.word	0x080002b9
 8000280:	4b15      	ldr	r3, [pc, #84]	; (80002d8 <STM32_PIO_Init+0xb4>)
 8000282:	4a15      	ldr	r2, [pc, #84]	; (80002d8 <STM32_PIO_Init+0xb4>)
 8000284:	6992      	ldr	r2, [r2, #24]
 8000286:	f042 0205 	orr.w	r2, r2, #5
 800028a:	619a      	str	r2, [r3, #24]
 800028c:	e01c      	b.n	80002c8 <STM32_PIO_Init+0xa4>
 800028e:	4b12      	ldr	r3, [pc, #72]	; (80002d8 <STM32_PIO_Init+0xb4>)
 8000290:	4a11      	ldr	r2, [pc, #68]	; (80002d8 <STM32_PIO_Init+0xb4>)
 8000292:	6992      	ldr	r2, [r2, #24]
 8000294:	f042 0209 	orr.w	r2, r2, #9
 8000298:	619a      	str	r2, [r3, #24]
 800029a:	e015      	b.n	80002c8 <STM32_PIO_Init+0xa4>
 800029c:	4b0e      	ldr	r3, [pc, #56]	; (80002d8 <STM32_PIO_Init+0xb4>)
 800029e:	4a0e      	ldr	r2, [pc, #56]	; (80002d8 <STM32_PIO_Init+0xb4>)
 80002a0:	6992      	ldr	r2, [r2, #24]
 80002a2:	f042 0211 	orr.w	r2, r2, #17
 80002a6:	619a      	str	r2, [r3, #24]
 80002a8:	e00e      	b.n	80002c8 <STM32_PIO_Init+0xa4>
 80002aa:	4b0b      	ldr	r3, [pc, #44]	; (80002d8 <STM32_PIO_Init+0xb4>)
 80002ac:	4a0a      	ldr	r2, [pc, #40]	; (80002d8 <STM32_PIO_Init+0xb4>)
 80002ae:	6992      	ldr	r2, [r2, #24]
 80002b0:	f042 0221 	orr.w	r2, r2, #33	; 0x21
 80002b4:	619a      	str	r2, [r3, #24]
 80002b6:	e007      	b.n	80002c8 <STM32_PIO_Init+0xa4>
 80002b8:	4b07      	ldr	r3, [pc, #28]	; (80002d8 <STM32_PIO_Init+0xb4>)
 80002ba:	4a07      	ldr	r2, [pc, #28]	; (80002d8 <STM32_PIO_Init+0xb4>)
 80002bc:	6992      	ldr	r2, [r2, #24]
 80002be:	f042 0241 	orr.w	r2, r2, #65	; 0x41
 80002c2:	619a      	str	r2, [r3, #24]
 80002c4:	e000      	b.n	80002c8 <STM32_PIO_Init+0xa4>
 80002c6:	bf00      	nop
 80002c8:	f04f 0300 	mov.w	r3, #0
 80002cc:	4618      	mov	r0, r3
 80002ce:	f107 0710 	add.w	r7, r7, #16
 80002d2:	46bd      	mov	sp, r7
 80002d4:	bd80      	pop	{r7, pc}
 80002d6:	bf00      	nop
 80002d8:	40021000 	.word	0x40021000

080002dc <STM32_PIO_SetDir>:
 80002dc:	b580      	push	{r7, lr}
 80002de:	b084      	sub	sp, #16
 80002e0:	af00      	add	r7, sp, #0
 80002e2:	4602      	mov	r2, r0
 80002e4:	460b      	mov	r3, r1
 80002e6:	80fa      	strh	r2, [r7, #6]
 80002e8:	717b      	strb	r3, [r7, #5]
 80002ea:	f04f 0300 	mov.w	r3, #0
 80002ee:	60fb      	str	r3, [r7, #12]
 80002f0:	88fb      	ldrh	r3, [r7, #6]
 80002f2:	ea4f 2313 	mov.w	r3, r3, lsr #8
 80002f6:	b29b      	uxth	r3, r3
 80002f8:	72fb      	strb	r3, [r7, #11]
 80002fa:	88fb      	ldrh	r3, [r7, #6]
 80002fc:	72bb      	strb	r3, [r7, #10]
 80002fe:	7afb      	ldrb	r3, [r7, #11]
 8000300:	4618      	mov	r0, r3
 8000302:	f7ff ff47 	bl	8000194 <STM32_GetGPIO>
 8000306:	60f8      	str	r0, [r7, #12]
 8000308:	797b      	ldrb	r3, [r7, #5]
 800030a:	2b00      	cmp	r3, #0
 800030c:	d158      	bne.n	80003c0 <STM32_PIO_SetDir+0xe4>
 800030e:	7abb      	ldrb	r3, [r7, #10]
 8000310:	2b07      	cmp	r3, #7
 8000312:	d92c      	bls.n	800036e <STM32_PIO_SetDir+0x92>
 8000314:	7abb      	ldrb	r3, [r7, #10]
 8000316:	f1a3 0308 	sub.w	r3, r3, #8
 800031a:	72bb      	strb	r3, [r7, #10]
 800031c:	68fb      	ldr	r3, [r7, #12]
 800031e:	685a      	ldr	r2, [r3, #4]
 8000320:	7abb      	ldrb	r3, [r7, #10]
 8000322:	ea4f 0383 	mov.w	r3, r3, lsl #2
 8000326:	f04f 0103 	mov.w	r1, #3
 800032a:	fa01 f303 	lsl.w	r3, r1, r3
 800032e:	ea6f 0303 	mvn.w	r3, r3
 8000332:	401a      	ands	r2, r3
 8000334:	68fb      	ldr	r3, [r7, #12]
 8000336:	605a      	str	r2, [r3, #4]
 8000338:	68fb      	ldr	r3, [r7, #12]
 800033a:	685a      	ldr	r2, [r3, #4]
 800033c:	7abb      	ldrb	r3, [r7, #10]
 800033e:	ea4f 0383 	mov.w	r3, r3, lsl #2
 8000342:	f04f 0108 	mov.w	r1, #8
 8000346:	fa01 f303 	lsl.w	r3, r1, r3
 800034a:	ea6f 0303 	mvn.w	r3, r3
 800034e:	401a      	ands	r2, r3
 8000350:	68fb      	ldr	r3, [r7, #12]
 8000352:	605a      	str	r2, [r3, #4]
 8000354:	68fb      	ldr	r3, [r7, #12]
 8000356:	685a      	ldr	r2, [r3, #4]
 8000358:	7abb      	ldrb	r3, [r7, #10]
 800035a:	ea4f 0383 	mov.w	r3, r3, lsl #2
 800035e:	f04f 0104 	mov.w	r1, #4
 8000362:	fa01 f303 	lsl.w	r3, r1, r3
 8000366:	431a      	orrs	r2, r3
 8000368:	68fb      	ldr	r3, [r7, #12]
 800036a:	605a      	str	r2, [r3, #4]
 800036c:	e064      	b.n	8000438 <STM32_PIO_SetDir+0x15c>
 800036e:	68fb      	ldr	r3, [r7, #12]
 8000370:	681a      	ldr	r2, [r3, #0]
 8000372:	7abb      	ldrb	r3, [r7, #10]
 8000374:	ea4f 0383 	mov.w	r3, r3, lsl #2
 8000378:	f04f 0103 	mov.w	r1, #3
 800037c:	fa01 f303 	lsl.w	r3, r1, r3
 8000380:	ea6f 0303 	mvn.w	r3, r3
 8000384:	401a      	ands	r2, r3
 8000386:	68fb      	ldr	r3, [r7, #12]
 8000388:	601a      	str	r2, [r3, #0]
 800038a:	68fb      	ldr	r3, [r7, #12]
 800038c:	681a      	ldr	r2, [r3, #0]
 800038e:	7abb      	ldrb	r3, [r7, #10]
 8000390:	ea4f 0383 	mov.w	r3, r3, lsl #2
 8000394:	f04f 0108 	mov.w	r1, #8
 8000398:	fa01 f303 	lsl.w	r3, r1, r3
 800039c:	ea6f 0303 	mvn.w	r3, r3
 80003a0:	401a      	ands	r2, r3
 80003a2:	68fb      	ldr	r3, [r7, #12]
 80003a4:	601a      	str	r2, [r3, #0]
 80003a6:	68fb      	ldr	r3, [r7, #12]
 80003a8:	681a      	ldr	r2, [r3, #0]
 80003aa:	7abb      	ldrb	r3, [r7, #10]
 80003ac:	ea4f 0383 	mov.w	r3, r3, lsl #2
 80003b0:	f04f 0104 	mov.w	r1, #4
 80003b4:	fa01 f303 	lsl.w	r3, r1, r3
 80003b8:	431a      	orrs	r2, r3
 80003ba:	68fb      	ldr	r3, [r7, #12]
 80003bc:	601a      	str	r2, [r3, #0]
 80003be:	e03b      	b.n	8000438 <STM32_PIO_SetDir+0x15c>
 80003c0:	7abb      	ldrb	r3, [r7, #10]
 80003c2:	2b07      	cmp	r3, #7
 80003c4:	d91e      	bls.n	8000404 <STM32_PIO_SetDir+0x128>
 80003c6:	7abb      	ldrb	r3, [r7, #10]
 80003c8:	f1a3 0308 	sub.w	r3, r3, #8
 80003cc:	72bb      	strb	r3, [r7, #10]
 80003ce:	68fb      	ldr	r3, [r7, #12]
 80003d0:	685a      	ldr	r2, [r3, #4]
 80003d2:	7abb      	ldrb	r3, [r7, #10]
 80003d4:	ea4f 0383 	mov.w	r3, r3, lsl #2
 80003d8:	f04f 0103 	mov.w	r1, #3
 80003dc:	fa01 f303 	lsl.w	r3, r1, r3
 80003e0:	431a      	orrs	r2, r3
 80003e2:	68fb      	ldr	r3, [r7, #12]
 80003e4:	605a      	str	r2, [r3, #4]
 80003e6:	68fb      	ldr	r3, [r7, #12]
 80003e8:	685a      	ldr	r2, [r3, #4]
 80003ea:	7abb      	ldrb	r3, [r7, #10]
 80003ec:	ea4f 0383 	mov.w	r3, r3, lsl #2
 80003f0:	f04f 010c 	mov.w	r1, #12
 80003f4:	fa01 f303 	lsl.w	r3, r1, r3
 80003f8:	ea6f 0303 	mvn.w	r3, r3
 80003fc:	401a      	ands	r2, r3
 80003fe:	68fb      	ldr	r3, [r7, #12]
 8000400:	605a      	str	r2, [r3, #4]
 8000402:	e019      	b.n	8000438 <STM32_PIO_SetDir+0x15c>
 8000404:	68fb      	ldr	r3, [r7, #12]
 8000406:	681a      	ldr	r2, [r3, #0]
 8000408:	7abb      	ldrb	r3, [r7, #10]
 800040a:	ea4f 0383 	mov.w	r3, r3, lsl #2
 800040e:	f04f 0103 	mov.w	r1, #3
 8000412:	fa01 f303 	lsl.w	r3, r1, r3
 8000416:	431a      	orrs	r2, r3
 8000418:	68fb      	ldr	r3, [r7, #12]
 800041a:	601a      	str	r2, [r3, #0]
 800041c:	68fb      	ldr	r3, [r7, #12]
 800041e:	681a      	ldr	r2, [r3, #0]
 8000420:	7abb      	ldrb	r3, [r7, #10]
 8000422:	ea4f 0383 	mov.w	r3, r3, lsl #2
 8000426:	f04f 010c 	mov.w	r1, #12
 800042a:	fa01 f303 	lsl.w	r3, r1, r3
 800042e:	ea6f 0303 	mvn.w	r3, r3
 8000432:	401a      	ands	r2, r3
 8000434:	68fb      	ldr	r3, [r7, #12]
 8000436:	601a      	str	r2, [r3, #0]
 8000438:	f04f 0300 	mov.w	r3, #0
 800043c:	4618      	mov	r0, r3
 800043e:	f107 0710 	add.w	r7, r7, #16
 8000442:	46bd      	mov	sp, r7
 8000444:	bd80      	pop	{r7, pc}
 8000446:	bf00      	nop

08000448 <STM32_PIO_Read>:
 8000448:	b580      	push	{r7, lr}
 800044a:	b086      	sub	sp, #24
 800044c:	af00      	add	r7, sp, #0
 800044e:	4603      	mov	r3, r0
 8000450:	80fb      	strh	r3, [r7, #6]
 8000452:	f04f 0300 	mov.w	r3, #0
 8000456:	613b      	str	r3, [r7, #16]
 8000458:	88fb      	ldrh	r3, [r7, #6]
 800045a:	ea4f 2313 	mov.w	r3, r3, lsr #8
 800045e:	b29b      	uxth	r3, r3
 8000460:	73fb      	strb	r3, [r7, #15]
 8000462:	88fb      	ldrh	r3, [r7, #6]
 8000464:	73bb      	strb	r3, [r7, #14]
 8000466:	7bfb      	ldrb	r3, [r7, #15]
 8000468:	4618      	mov	r0, r3
 800046a:	f7ff fe93 	bl	8000194 <STM32_GetGPIO>
 800046e:	6138      	str	r0, [r7, #16]
 8000470:	7bbb      	ldrb	r3, [r7, #14]
 8000472:	2b07      	cmp	r3, #7
 8000474:	d92a      	bls.n	80004cc <STM32_PIO_Read+0x84>
 8000476:	693b      	ldr	r3, [r7, #16]
 8000478:	685a      	ldr	r2, [r3, #4]
 800047a:	7bbb      	ldrb	r3, [r7, #14]
 800047c:	f1a3 0308 	sub.w	r3, r3, #8
 8000480:	ea4f 0383 	mov.w	r3, r3, lsl #2
 8000484:	fa22 f303 	lsr.w	r3, r2, r3
 8000488:	f003 0303 	and.w	r3, r3, #3
 800048c:	2b00      	cmp	r3, #0
 800048e:	d10e      	bne.n	80004ae <STM32_PIO_Read+0x66>
 8000490:	693b      	ldr	r3, [r7, #16]
 8000492:	689a      	ldr	r2, [r3, #8]
 8000494:	7bbb      	ldrb	r3, [r7, #14]
 8000496:	fa22 f303 	lsr.w	r3, r2, r3
 800049a:	2b00      	cmp	r3, #0
 800049c:	d103      	bne.n	80004a6 <STM32_PIO_Read+0x5e>
 800049e:	f04f 0300 	mov.w	r3, #0
 80004a2:	75fb      	strb	r3, [r7, #23]
 80004a4:	e03a      	b.n	800051c <STM32_PIO_Read+0xd4>
 80004a6:	f04f 0301 	mov.w	r3, #1
 80004aa:	75fb      	strb	r3, [r7, #23]
 80004ac:	e036      	b.n	800051c <STM32_PIO_Read+0xd4>
 80004ae:	693b      	ldr	r3, [r7, #16]
 80004b0:	68da      	ldr	r2, [r3, #12]
 80004b2:	7bbb      	ldrb	r3, [r7, #14]
 80004b4:	fa22 f303 	lsr.w	r3, r2, r3
 80004b8:	2b00      	cmp	r3, #0
 80004ba:	d103      	bne.n	80004c4 <STM32_PIO_Read+0x7c>
 80004bc:	f04f 0300 	mov.w	r3, #0
 80004c0:	75fb      	strb	r3, [r7, #23]
 80004c2:	e02b      	b.n	800051c <STM32_PIO_Read+0xd4>
 80004c4:	f04f 0301 	mov.w	r3, #1
 80004c8:	75fb      	strb	r3, [r7, #23]
 80004ca:	e027      	b.n	800051c <STM32_PIO_Read+0xd4>
 80004cc:	693b      	ldr	r3, [r7, #16]
 80004ce:	681a      	ldr	r2, [r3, #0]
 80004d0:	7bbb      	ldrb	r3, [r7, #14]
 80004d2:	ea4f 0383 	mov.w	r3, r3, lsl #2
 80004d6:	fa22 f303 	lsr.w	r3, r2, r3
 80004da:	f003 0303 	and.w	r3, r3, #3
 80004de:	2b00      	cmp	r3, #0
 80004e0:	d10e      	bne.n	8000500 <STM32_PIO_Read+0xb8>
 80004e2:	693b      	ldr	r3, [r7, #16]
 80004e4:	689a      	ldr	r2, [r3, #8]
 80004e6:	7bbb      	ldrb	r3, [r7, #14]
 80004e8:	fa22 f303 	lsr.w	r3, r2, r3
 80004ec:	2b00      	cmp	r3, #0
 80004ee:	d103      	bne.n	80004f8 <STM32_PIO_Read+0xb0>
 80004f0:	f04f 0300 	mov.w	r3, #0
 80004f4:	75fb      	strb	r3, [r7, #23]
 80004f6:	e011      	b.n	800051c <STM32_PIO_Read+0xd4>
 80004f8:	f04f 0301 	mov.w	r3, #1
 80004fc:	75fb      	strb	r3, [r7, #23]
 80004fe:	e00d      	b.n	800051c <STM32_PIO_Read+0xd4>
 8000500:	693b      	ldr	r3, [r7, #16]
 8000502:	68da      	ldr	r2, [r3, #12]
 8000504:	7bbb      	ldrb	r3, [r7, #14]
 8000506:	fa22 f303 	lsr.w	r3, r2, r3
 800050a:	2b00      	cmp	r3, #0
 800050c:	d103      	bne.n	8000516 <STM32_PIO_Read+0xce>
 800050e:	f04f 0300 	mov.w	r3, #0
 8000512:	75fb      	strb	r3, [r7, #23]
 8000514:	e002      	b.n	800051c <STM32_PIO_Read+0xd4>
 8000516:	f04f 0301 	mov.w	r3, #1
 800051a:	75fb      	strb	r3, [r7, #23]
 800051c:	7dfb      	ldrb	r3, [r7, #23]
 800051e:	4618      	mov	r0, r3
 8000520:	f107 0718 	add.w	r7, r7, #24
 8000524:	46bd      	mov	sp, r7
 8000526:	bd80      	pop	{r7, pc}

08000528 <STM32_PIO_Out>:
 8000528:	b580      	push	{r7, lr}
 800052a:	b084      	sub	sp, #16
 800052c:	af00      	add	r7, sp, #0
 800052e:	4602      	mov	r2, r0
 8000530:	460b      	mov	r3, r1
 8000532:	80fa      	strh	r2, [r7, #6]
 8000534:	717b      	strb	r3, [r7, #5]
 8000536:	f04f 0300 	mov.w	r3, #0
 800053a:	60fb      	str	r3, [r7, #12]
 800053c:	88fb      	ldrh	r3, [r7, #6]
 800053e:	ea4f 2313 	mov.w	r3, r3, lsr #8
 8000542:	b29b      	uxth	r3, r3
 8000544:	72fb      	strb	r3, [r7, #11]
 8000546:	88fb      	ldrh	r3, [r7, #6]
 8000548:	72bb      	strb	r3, [r7, #10]
 800054a:	7afb      	ldrb	r3, [r7, #11]
 800054c:	4618      	mov	r0, r3
 800054e:	f7ff fe21 	bl	8000194 <STM32_GetGPIO>
 8000552:	60f8      	str	r0, [r7, #12]
 8000554:	88fb      	ldrh	r3, [r7, #6]
 8000556:	4618      	mov	r0, r3
 8000558:	f7ff ff76 	bl	8000448 <STM32_PIO_Read>
 800055c:	4603      	mov	r3, r0
 800055e:	727b      	strb	r3, [r7, #9]
 8000560:	797b      	ldrb	r3, [r7, #5]
 8000562:	2b00      	cmp	r3, #0
 8000564:	d10a      	bne.n	800057c <STM32_PIO_Out+0x54>
 8000566:	68fb      	ldr	r3, [r7, #12]
 8000568:	691a      	ldr	r2, [r3, #16]
 800056a:	7abb      	ldrb	r3, [r7, #10]
 800056c:	f04f 0101 	mov.w	r1, #1
 8000570:	fa01 f303 	lsl.w	r3, r1, r3
 8000574:	431a      	orrs	r2, r3
 8000576:	68fb      	ldr	r3, [r7, #12]
 8000578:	611a      	str	r2, [r3, #16]
 800057a:	e009      	b.n	8000590 <STM32_PIO_Out+0x68>
 800057c:	68fb      	ldr	r3, [r7, #12]
 800057e:	695a      	ldr	r2, [r3, #20]
 8000580:	7abb      	ldrb	r3, [r7, #10]
 8000582:	f04f 0101 	mov.w	r1, #1
 8000586:	fa01 f303 	lsl.w	r3, r1, r3
 800058a:	431a      	orrs	r2, r3
 800058c:	68fb      	ldr	r3, [r7, #12]
 800058e:	615a      	str	r2, [r3, #20]
 8000590:	7a7b      	ldrb	r3, [r7, #9]
 8000592:	4618      	mov	r0, r3
 8000594:	f107 0710 	add.w	r7, r7, #16
 8000598:	46bd      	mov	sp, r7
 800059a:	bd80      	pop	{r7, pc}

0800059c <STM32_PIO_Cfg>:
 800059c:	b580      	push	{r7, lr}
 800059e:	b088      	sub	sp, #32
 80005a0:	af00      	add	r7, sp, #0
 80005a2:	60ba      	str	r2, [r7, #8]
 80005a4:	607b      	str	r3, [r7, #4]
 80005a6:	4603      	mov	r3, r0
 80005a8:	81fb      	strh	r3, [r7, #14]
 80005aa:	460b      	mov	r3, r1
 80005ac:	737b      	strb	r3, [r7, #13]
 80005ae:	f04f 0300 	mov.w	r3, #0
 80005b2:	61bb      	str	r3, [r7, #24]
 80005b4:	89fb      	ldrh	r3, [r7, #14]
 80005b6:	ea4f 2313 	mov.w	r3, r3, lsr #8
 80005ba:	b29b      	uxth	r3, r3
 80005bc:	75fb      	strb	r3, [r7, #23]
 80005be:	89fb      	ldrh	r3, [r7, #14]
 80005c0:	77fb      	strb	r3, [r7, #31]
 80005c2:	7dfb      	ldrb	r3, [r7, #23]
 80005c4:	4618      	mov	r0, r3
 80005c6:	f7ff fde5 	bl	8000194 <STM32_GetGPIO>
 80005ca:	61b8      	str	r0, [r7, #24]
 80005cc:	69bb      	ldr	r3, [r7, #24]
 80005ce:	68da      	ldr	r2, [r3, #12]
 80005d0:	7ffb      	ldrb	r3, [r7, #31]
 80005d2:	f04f 0101 	mov.w	r1, #1
 80005d6:	fa01 f303 	lsl.w	r3, r1, r3
 80005da:	431a      	orrs	r2, r3
 80005dc:	69bb      	ldr	r3, [r7, #24]
 80005de:	60da      	str	r2, [r3, #12]
 80005e0:	7b7b      	ldrb	r3, [r7, #13]
 80005e2:	2b01      	cmp	r3, #1
 80005e4:	d002      	beq.n	80005ec <STM32_PIO_Cfg+0x50>
 80005e6:	2b02      	cmp	r3, #2
 80005e8:	d03d      	beq.n	8000666 <STM32_PIO_Cfg+0xca>
 80005ea:	e085      	b.n	80006f8 <STM32_PIO_Cfg+0x15c>
 80005ec:	7ffb      	ldrb	r3, [r7, #31]
 80005ee:	2b07      	cmp	r3, #7
 80005f0:	d91e      	bls.n	8000630 <STM32_PIO_Cfg+0x94>
 80005f2:	7ffb      	ldrb	r3, [r7, #31]
 80005f4:	f1a3 0308 	sub.w	r3, r3, #8
 80005f8:	77fb      	strb	r3, [r7, #31]
 80005fa:	69bb      	ldr	r3, [r7, #24]
 80005fc:	685a      	ldr	r2, [r3, #4]
 80005fe:	7ffb      	ldrb	r3, [r7, #31]
 8000600:	ea4f 0383 	mov.w	r3, r3, lsl #2
 8000604:	f04f 0108 	mov.w	r1, #8
 8000608:	fa01 f303 	lsl.w	r3, r1, r3
 800060c:	431a      	orrs	r2, r3
 800060e:	69bb      	ldr	r3, [r7, #24]
 8000610:	605a      	str	r2, [r3, #4]
 8000612:	69bb      	ldr	r3, [r7, #24]
 8000614:	685a      	ldr	r2, [r3, #4]
 8000616:	7ffb      	ldrb	r3, [r7, #31]
 8000618:	ea4f 0383 	mov.w	r3, r3, lsl #2
 800061c:	f04f 0104 	mov.w	r1, #4
 8000620:	fa01 f303 	lsl.w	r3, r1, r3
 8000624:	ea6f 0303 	mvn.w	r3, r3
 8000628:	401a      	ands	r2, r3
 800062a:	69bb      	ldr	r3, [r7, #24]
 800062c:	605a      	str	r2, [r3, #4]
 800062e:	e063      	b.n	80006f8 <STM32_PIO_Cfg+0x15c>
 8000630:	69bb      	ldr	r3, [r7, #24]
 8000632:	681a      	ldr	r2, [r3, #0]
 8000634:	7ffb      	ldrb	r3, [r7, #31]
 8000636:	ea4f 0383 	mov.w	r3, r3, lsl #2
 800063a:	f04f 0108 	mov.w	r1, #8
 800063e:	fa01 f303 	lsl.w	r3, r1, r3
 8000642:	431a      	orrs	r2, r3
 8000644:	69bb      	ldr	r3, [r7, #24]
 8000646:	601a      	str	r2, [r3, #0]
 8000648:	69bb      	ldr	r3, [r7, #24]
 800064a:	681a      	ldr	r2, [r3, #0]
 800064c:	7ffb      	ldrb	r3, [r7, #31]
 800064e:	ea4f 0383 	mov.w	r3, r3, lsl #2
 8000652:	f04f 0104 	mov.w	r1, #4
 8000656:	fa01 f303 	lsl.w	r3, r1, r3
 800065a:	ea6f 0303 	mvn.w	r3, r3
 800065e:	401a      	ands	r2, r3
 8000660:	69bb      	ldr	r3, [r7, #24]
 8000662:	601a      	str	r2, [r3, #0]
 8000664:	e048      	b.n	80006f8 <STM32_PIO_Cfg+0x15c>
 8000666:	7ffb      	ldrb	r3, [r7, #31]
 8000668:	2b07      	cmp	r3, #7
 800066a:	d91e      	bls.n	80006aa <STM32_PIO_Cfg+0x10e>
 800066c:	7ffb      	ldrb	r3, [r7, #31]
 800066e:	f1a3 0308 	sub.w	r3, r3, #8
 8000672:	77fb      	strb	r3, [r7, #31]
 8000674:	69bb      	ldr	r3, [r7, #24]
 8000676:	685a      	ldr	r2, [r3, #4]
 8000678:	7ffb      	ldrb	r3, [r7, #31]
 800067a:	ea4f 0383 	mov.w	r3, r3, lsl #2
 800067e:	f04f 0108 	mov.w	r1, #8
 8000682:	fa01 f303 	lsl.w	r3, r1, r3
 8000686:	431a      	orrs	r2, r3
 8000688:	69bb      	ldr	r3, [r7, #24]
 800068a:	605a      	str	r2, [r3, #4]
 800068c:	69bb      	ldr	r3, [r7, #24]
 800068e:	685a      	ldr	r2, [r3, #4]
 8000690:	7ffb      	ldrb	r3, [r7, #31]
 8000692:	ea4f 0383 	mov.w	r3, r3, lsl #2
 8000696:	f04f 0104 	mov.w	r1, #4
 800069a:	fa01 f303 	lsl.w	r3, r1, r3
 800069e:	ea6f 0303 	mvn.w	r3, r3
 80006a2:	401a      	ands	r2, r3
 80006a4:	69bb      	ldr	r3, [r7, #24]
 80006a6:	605a      	str	r2, [r3, #4]
 80006a8:	e019      	b.n	80006de <STM32_PIO_Cfg+0x142>
 80006aa:	69bb      	ldr	r3, [r7, #24]
 80006ac:	681a      	ldr	r2, [r3, #0]
 80006ae:	7ffb      	ldrb	r3, [r7, #31]
 80006b0:	ea4f 0383 	mov.w	r3, r3, lsl #2
 80006b4:	f04f 0108 	mov.w	r1, #8
 80006b8:	fa01 f303 	lsl.w	r3, r1, r3
 80006bc:	431a      	orrs	r2, r3
 80006be:	69bb      	ldr	r3, [r7, #24]
 80006c0:	601a      	str	r2, [r3, #0]
 80006c2:	69bb      	ldr	r3, [r7, #24]
 80006c4:	681a      	ldr	r2, [r3, #0]
 80006c6:	7ffb      	ldrb	r3, [r7, #31]
 80006c8:	ea4f 0383 	mov.w	r3, r3, lsl #2
 80006cc:	f04f 0104 	mov.w	r1, #4
 80006d0:	fa01 f303 	lsl.w	r3, r1, r3
 80006d4:	ea6f 0303 	mvn.w	r3, r3
 80006d8:	401a      	ands	r2, r3
 80006da:	69bb      	ldr	r3, [r7, #24]
 80006dc:	601a      	str	r2, [r3, #0]
 80006de:	69bb      	ldr	r3, [r7, #24]
 80006e0:	68da      	ldr	r2, [r3, #12]
 80006e2:	7ffb      	ldrb	r3, [r7, #31]
 80006e4:	f04f 0101 	mov.w	r1, #1
 80006e8:	fa01 f303 	lsl.w	r3, r1, r3
 80006ec:	ea6f 0303 	mvn.w	r3, r3
 80006f0:	401a      	ands	r2, r3
 80006f2:	69bb      	ldr	r3, [r7, #24]
 80006f4:	60da      	str	r2, [r3, #12]
 80006f6:	bf00      	nop
 80006f8:	f04f 0300 	mov.w	r3, #0
 80006fc:	4618      	mov	r0, r3
 80006fe:	f107 0720 	add.w	r7, r7, #32
 8000702:	46bd      	mov	sp, r7
 8000704:	bd80      	pop	{r7, pc}
 8000706:	bf00      	nop

08000708 <SystemInit>:
 8000708:	b580      	push	{r7, lr}
 800070a:	af00      	add	r7, sp, #0
 800070c:	4b17      	ldr	r3, [pc, #92]	; (800076c <SystemInit+0x64>)
 800070e:	4a17      	ldr	r2, [pc, #92]	; (800076c <SystemInit+0x64>)
 8000710:	6812      	ldr	r2, [r2, #0]
 8000712:	f042 0201 	orr.w	r2, r2, #1
 8000716:	601a      	str	r2, [r3, #0]
 8000718:	4a14      	ldr	r2, [pc, #80]	; (800076c <SystemInit+0x64>)
 800071a:	4b14      	ldr	r3, [pc, #80]	; (800076c <SystemInit+0x64>)
 800071c:	6859      	ldr	r1, [r3, #4]
 800071e:	4b14      	ldr	r3, [pc, #80]	; (8000770 <SystemInit+0x68>)
 8000720:	ea01 0303 	and.w	r3, r1, r3
 8000724:	6053      	str	r3, [r2, #4]
 8000726:	4a11      	ldr	r2, [pc, #68]	; (800076c <SystemInit+0x64>)
 8000728:	4b10      	ldr	r3, [pc, #64]	; (800076c <SystemInit+0x64>)
 800072a:	681b      	ldr	r3, [r3, #0]
 800072c:	f023 7384 	bic.w	r3, r3, #17301504	; 0x1080000
 8000730:	f423 3380 	bic.w	r3, r3, #65536	; 0x10000
 8000734:	6013      	str	r3, [r2, #0]
 8000736:	4b0d      	ldr	r3, [pc, #52]	; (800076c <SystemInit+0x64>)
 8000738:	4a0c      	ldr	r2, [pc, #48]	; (800076c <SystemInit+0x64>)
 800073a:	6812      	ldr	r2, [r2, #0]
 800073c:	f422 2280 	bic.w	r2, r2, #262144	; 0x40000
 8000740:	601a      	str	r2, [r3, #0]
 8000742:	4b0a      	ldr	r3, [pc, #40]	; (800076c <SystemInit+0x64>)
 8000744:	4a09      	ldr	r2, [pc, #36]	; (800076c <SystemInit+0x64>)
 8000746:	6852      	ldr	r2, [r2, #4]
 8000748:	f422 02fe 	bic.w	r2, r2, #8323072	; 0x7f0000
 800074c:	605a      	str	r2, [r3, #4]
 800074e:	4b07      	ldr	r3, [pc, #28]	; (800076c <SystemInit+0x64>)
 8000750:	f44f 021f 	mov.w	r2, #10420224	; 0x9f0000
 8000754:	609a      	str	r2, [r3, #8]
 8000756:	4b05      	ldr	r3, [pc, #20]	; (800076c <SystemInit+0x64>)
 8000758:	f04f 0200 	mov.w	r2, #0
 800075c:	62da      	str	r2, [r3, #44]	; 0x2c
 800075e:	f000 f80b 	bl	8000778 <SetSysClock>
 8000762:	4b04      	ldr	r3, [pc, #16]	; (8000774 <SystemInit+0x6c>)
 8000764:	f04f 6200 	mov.w	r2, #134217728	; 0x8000000
 8000768:	609a      	str	r2, [r3, #8]
 800076a:	bd80      	pop	{r7, pc}
 800076c:	40021000 	.word	0x40021000
 8000770:	f8ff0000 	.word	0xf8ff0000
 8000774:	e000ed00 	.word	0xe000ed00

08000778 <SetSysClock>:
 8000778:	b580      	push	{r7, lr}
 800077a:	af00      	add	r7, sp, #0
 800077c:	f000 f802 	bl	8000784 <SetSysClockTo24>
 8000780:	bd80      	pop	{r7, pc}
 8000782:	bf00      	nop

08000784 <SetSysClockTo24>:
 8000784:	b480      	push	{r7}
 8000786:	b083      	sub	sp, #12
 8000788:	af00      	add	r7, sp, #0
 800078a:	f04f 0300 	mov.w	r3, #0
 800078e:	607b      	str	r3, [r7, #4]
 8000790:	f04f 0300 	mov.w	r3, #0
 8000794:	603b      	str	r3, [r7, #0]
 8000796:	4b31      	ldr	r3, [pc, #196]	; (800085c <SetSysClockTo24+0xd8>)
 8000798:	4a30      	ldr	r2, [pc, #192]	; (800085c <SetSysClockTo24+0xd8>)
 800079a:	6812      	ldr	r2, [r2, #0]
 800079c:	f442 3280 	orr.w	r2, r2, #65536	; 0x10000
 80007a0:	601a      	str	r2, [r3, #0]
 80007a2:	4b2e      	ldr	r3, [pc, #184]	; (800085c <SetSysClockTo24+0xd8>)
 80007a4:	681b      	ldr	r3, [r3, #0]
 80007a6:	f403 3300 	and.w	r3, r3, #131072	; 0x20000
 80007aa:	603b      	str	r3, [r7, #0]
 80007ac:	687b      	ldr	r3, [r7, #4]
 80007ae:	f103 0301 	add.w	r3, r3, #1
 80007b2:	607b      	str	r3, [r7, #4]
 80007b4:	683b      	ldr	r3, [r7, #0]
 80007b6:	2b00      	cmp	r3, #0
 80007b8:	d103      	bne.n	80007c2 <SetSysClockTo24+0x3e>
 80007ba:	687b      	ldr	r3, [r7, #4]
 80007bc:	f5b3 6fa0 	cmp.w	r3, #1280	; 0x500
 80007c0:	d1ef      	bne.n	80007a2 <SetSysClockTo24+0x1e>
 80007c2:	4b26      	ldr	r3, [pc, #152]	; (800085c <SetSysClockTo24+0xd8>)
 80007c4:	681b      	ldr	r3, [r3, #0]
 80007c6:	f403 3300 	and.w	r3, r3, #131072	; 0x20000
 80007ca:	2b00      	cmp	r3, #0
 80007cc:	d003      	beq.n	80007d6 <SetSysClockTo24+0x52>
 80007ce:	f04f 0301 	mov.w	r3, #1
 80007d2:	603b      	str	r3, [r7, #0]
 80007d4:	e002      	b.n	80007dc <SetSysClockTo24+0x58>
 80007d6:	f04f 0300 	mov.w	r3, #0
 80007da:	603b      	str	r3, [r7, #0]
 80007dc:	683b      	ldr	r3, [r7, #0]
 80007de:	2b01      	cmp	r3, #1
 80007e0:	d137      	bne.n	8000852 <SetSysClockTo24+0xce>
 80007e2:	4b1e      	ldr	r3, [pc, #120]	; (800085c <SetSysClockTo24+0xd8>)
 80007e4:	4a1d      	ldr	r2, [pc, #116]	; (800085c <SetSysClockTo24+0xd8>)
 80007e6:	6852      	ldr	r2, [r2, #4]
 80007e8:	605a      	str	r2, [r3, #4]
 80007ea:	4b1c      	ldr	r3, [pc, #112]	; (800085c <SetSysClockTo24+0xd8>)
 80007ec:	4a1b      	ldr	r2, [pc, #108]	; (800085c <SetSysClockTo24+0xd8>)
 80007ee:	6852      	ldr	r2, [r2, #4]
 80007f0:	605a      	str	r2, [r3, #4]
 80007f2:	4b1a      	ldr	r3, [pc, #104]	; (800085c <SetSysClockTo24+0xd8>)
 80007f4:	4a19      	ldr	r2, [pc, #100]	; (800085c <SetSysClockTo24+0xd8>)
 80007f6:	6852      	ldr	r2, [r2, #4]
 80007f8:	605a      	str	r2, [r3, #4]
 80007fa:	4b18      	ldr	r3, [pc, #96]	; (800085c <SetSysClockTo24+0xd8>)
 80007fc:	4a17      	ldr	r2, [pc, #92]	; (800085c <SetSysClockTo24+0xd8>)
 80007fe:	6852      	ldr	r2, [r2, #4]
 8000800:	f422 127c 	bic.w	r2, r2, #4128768	; 0x3f0000
 8000804:	605a      	str	r2, [r3, #4]
 8000806:	4b15      	ldr	r3, [pc, #84]	; (800085c <SetSysClockTo24+0xd8>)
 8000808:	4a14      	ldr	r2, [pc, #80]	; (800085c <SetSysClockTo24+0xd8>)
 800080a:	6852      	ldr	r2, [r2, #4]
 800080c:	f442 1298 	orr.w	r2, r2, #1245184	; 0x130000
 8000810:	605a      	str	r2, [r3, #4]
 8000812:	4b12      	ldr	r3, [pc, #72]	; (800085c <SetSysClockTo24+0xd8>)
 8000814:	4a11      	ldr	r2, [pc, #68]	; (800085c <SetSysClockTo24+0xd8>)
 8000816:	6812      	ldr	r2, [r2, #0]
 8000818:	f042 7280 	orr.w	r2, r2, #16777216	; 0x1000000
 800081c:	601a      	str	r2, [r3, #0]
 800081e:	bf00      	nop
 8000820:	4b0e      	ldr	r3, [pc, #56]	; (800085c <SetSysClockTo24+0xd8>)
 8000822:	681b      	ldr	r3, [r3, #0]
 8000824:	f003 7300 	and.w	r3, r3, #33554432	; 0x2000000
 8000828:	2b00      	cmp	r3, #0
 800082a:	d0f9      	beq.n	8000820 <SetSysClockTo24+0x9c>
 800082c:	4b0b      	ldr	r3, [pc, #44]	; (800085c <SetSysClockTo24+0xd8>)
 800082e:	4a0b      	ldr	r2, [pc, #44]	; (800085c <SetSysClockTo24+0xd8>)
 8000830:	6852      	ldr	r2, [r2, #4]
 8000832:	f022 0203 	bic.w	r2, r2, #3
 8000836:	605a      	str	r2, [r3, #4]
 8000838:	4b08      	ldr	r3, [pc, #32]	; (800085c <SetSysClockTo24+0xd8>)
 800083a:	4a08      	ldr	r2, [pc, #32]	; (800085c <SetSysClockTo24+0xd8>)
 800083c:	6852      	ldr	r2, [r2, #4]
 800083e:	f042 0202 	orr.w	r2, r2, #2
 8000842:	605a      	str	r2, [r3, #4]
 8000844:	bf00      	nop
 8000846:	4b05      	ldr	r3, [pc, #20]	; (800085c <SetSysClockTo24+0xd8>)
 8000848:	685b      	ldr	r3, [r3, #4]
 800084a:	f003 030c 	and.w	r3, r3, #12
 800084e:	2b08      	cmp	r3, #8
 8000850:	d1f9      	bne.n	8000846 <SetSysClockTo24+0xc2>
 8000852:	f107 070c 	add.w	r7, r7, #12
 8000856:	46bd      	mov	sp, r7
 8000858:	bc80      	pop	{r7}
 800085a:	4770      	bx	lr
 800085c:	40021000 	.word	0x40021000

08000860 <main>:
 8000860:	b590      	push	{r4, r7, lr}
 8000862:	b085      	sub	sp, #20
 8000864:	af00      	add	r7, sp, #0
 8000866:	f04f 038a 	mov.w	r3, #138	; 0x8a
 800086a:	60fb      	str	r3, [r7, #12]
 800086c:	f44f 7302 	mov.w	r3, #520	; 0x208
 8000870:	80fb      	strh	r3, [r7, #6]
 8000872:	f240 2309 	movw	r3, #521	; 0x209
 8000876:	80bb      	strh	r3, [r7, #4]
 8000878:	f240 230a 	movw	r3, #522	; 0x20a
 800087c:	807b      	strh	r3, [r7, #2]
 800087e:	4b36      	ldr	r3, [pc, #216]	; (8000958 <main+0xf8>)
 8000880:	681b      	ldr	r3, [r3, #0]
 8000882:	88fa      	ldrh	r2, [r7, #6]
 8000884:	4610      	mov	r0, r2
 8000886:	4798      	blx	r3
 8000888:	4b33      	ldr	r3, [pc, #204]	; (8000958 <main+0xf8>)
 800088a:	681b      	ldr	r3, [r3, #0]
 800088c:	88ba      	ldrh	r2, [r7, #4]
 800088e:	4610      	mov	r0, r2
 8000890:	4798      	blx	r3
 8000892:	4b31      	ldr	r3, [pc, #196]	; (8000958 <main+0xf8>)
 8000894:	681b      	ldr	r3, [r3, #0]
 8000896:	887a      	ldrh	r2, [r7, #2]
 8000898:	4610      	mov	r0, r2
 800089a:	4798      	blx	r3
 800089c:	4b2e      	ldr	r3, [pc, #184]	; (8000958 <main+0xf8>)
 800089e:	685b      	ldr	r3, [r3, #4]
 80008a0:	88fa      	ldrh	r2, [r7, #6]
 80008a2:	4610      	mov	r0, r2
 80008a4:	f04f 0101 	mov.w	r1, #1
 80008a8:	4798      	blx	r3
 80008aa:	4b2b      	ldr	r3, [pc, #172]	; (8000958 <main+0xf8>)
 80008ac:	685b      	ldr	r3, [r3, #4]
 80008ae:	88ba      	ldrh	r2, [r7, #4]
 80008b0:	4610      	mov	r0, r2
 80008b2:	f04f 0101 	mov.w	r1, #1
 80008b6:	4798      	blx	r3
 80008b8:	4b27      	ldr	r3, [pc, #156]	; (8000958 <main+0xf8>)
 80008ba:	685b      	ldr	r3, [r3, #4]
 80008bc:	887a      	ldrh	r2, [r7, #2]
 80008be:	4610      	mov	r0, r2
 80008c0:	f04f 0100 	mov.w	r1, #0
 80008c4:	4798      	blx	r3
 80008c6:	4b24      	ldr	r3, [pc, #144]	; (8000958 <main+0xf8>)
 80008c8:	691c      	ldr	r4, [r3, #16]
 80008ca:	887b      	ldrh	r3, [r7, #2]
 80008cc:	4618      	mov	r0, r3
 80008ce:	f04f 0101 	mov.w	r1, #1
 80008d2:	f04f 0200 	mov.w	r2, #0
 80008d6:	f04f 0300 	mov.w	r3, #0
 80008da:	47a0      	blx	r4
 80008dc:	4b1e      	ldr	r3, [pc, #120]	; (8000958 <main+0xf8>)
 80008de:	689b      	ldr	r3, [r3, #8]
 80008e0:	88fa      	ldrh	r2, [r7, #6]
 80008e2:	4610      	mov	r0, r2
 80008e4:	f04f 0100 	mov.w	r1, #0
 80008e8:	4798      	blx	r3
 80008ea:	4b1b      	ldr	r3, [pc, #108]	; (8000958 <main+0xf8>)
 80008ec:	689b      	ldr	r3, [r3, #8]
 80008ee:	88ba      	ldrh	r2, [r7, #4]
 80008f0:	4610      	mov	r0, r2
 80008f2:	f04f 0101 	mov.w	r1, #1
 80008f6:	4798      	blx	r3
 80008f8:	f04f 0300 	mov.w	r3, #0
 80008fc:	60bb      	str	r3, [r7, #8]
 80008fe:	e007      	b.n	8000910 <main+0xb0>
 8000900:	68fb      	ldr	r3, [r7, #12]
 8000902:	f103 0301 	add.w	r3, r3, #1
 8000906:	60fb      	str	r3, [r7, #12]
 8000908:	68bb      	ldr	r3, [r7, #8]
 800090a:	f103 0301 	add.w	r3, r3, #1
 800090e:	60bb      	str	r3, [r7, #8]
 8000910:	68ba      	ldr	r2, [r7, #8]
 8000912:	4b12      	ldr	r3, [pc, #72]	; (800095c <main+0xfc>)
 8000914:	429a      	cmp	r2, r3
 8000916:	d9f3      	bls.n	8000900 <main+0xa0>
 8000918:	4b0f      	ldr	r3, [pc, #60]	; (8000958 <main+0xf8>)
 800091a:	689b      	ldr	r3, [r3, #8]
 800091c:	88fa      	ldrh	r2, [r7, #6]
 800091e:	4610      	mov	r0, r2
 8000920:	f04f 0101 	mov.w	r1, #1
 8000924:	4798      	blx	r3
 8000926:	4b0c      	ldr	r3, [pc, #48]	; (8000958 <main+0xf8>)
 8000928:	689b      	ldr	r3, [r3, #8]
 800092a:	88ba      	ldrh	r2, [r7, #4]
 800092c:	4610      	mov	r0, r2
 800092e:	f04f 0100 	mov.w	r1, #0
 8000932:	4798      	blx	r3
 8000934:	f04f 0300 	mov.w	r3, #0
 8000938:	60bb      	str	r3, [r7, #8]
 800093a:	e007      	b.n	800094c <main+0xec>
 800093c:	68fb      	ldr	r3, [r7, #12]
 800093e:	f103 0301 	add.w	r3, r3, #1
 8000942:	60fb      	str	r3, [r7, #12]
 8000944:	68bb      	ldr	r3, [r7, #8]
 8000946:	f103 0301 	add.w	r3, r3, #1
 800094a:	60bb      	str	r3, [r7, #8]
 800094c:	68ba      	ldr	r2, [r7, #8]
 800094e:	4b03      	ldr	r3, [pc, #12]	; (800095c <main+0xfc>)
 8000950:	429a      	cmp	r2, r3
 8000952:	d9f3      	bls.n	800093c <main+0xdc>
 8000954:	e7c2      	b.n	80008dc <main+0x7c>
 8000956:	bf00      	nop
 8000958:	08000960 	.word	0x08000960
 800095c:	000ffffe 	.word	0x000ffffe

08000960 <pi_pio>:
 8000960:	08000225 080002dd 08000529 08000449     %.......)...I...
 8000970:	0800059d                                ....
