
Allocating common symbols
Common symbol       size              file

rxbuf               0x28              ..\obj\USART_Example.o
tmp                 0x4               ..\obj\USART_Example.o
HSEStartUpStatus    0x1               ..\obj\STM32_USART.o
err                 0x1               ..\obj\USART_Example.o
GPIO_InitStructure  0x4               ..\obj\GPIO_Blink.o
ut_count            0x4               ..\obj\USART_Example.o

Discarded input sections

 .text          0x00000000        0x0 ..\obj\startup_stm32f10x_md_vl.o
 .data          0x00000000        0x0 ..\obj\startup_stm32f10x_md_vl.o
 .bss           0x00000000        0x0 ..\obj\startup_stm32f10x_md_vl.o
 .text          0x00000000        0x0 ..\obj\core_cm3.o
 .data          0x00000000        0x0 ..\obj\core_cm3.o
 .bss           0x00000000        0x0 ..\obj\core_cm3.o
 .text.__get_PSP
                0x00000000       0x10 ..\obj\core_cm3.o
 .text.__set_PSP
                0x00000000        0x8 ..\obj\core_cm3.o
 .text.__get_MSP
                0x00000000       0x10 ..\obj\core_cm3.o
 .text.__set_MSP
                0x00000000        0x8 ..\obj\core_cm3.o
 .text.__get_BASEPRI
                0x00000000       0x20 ..\obj\core_cm3.o
 .text.__set_BASEPRI
                0x00000000       0x18 ..\obj\core_cm3.o
 .text.__get_PRIMASK
                0x00000000       0x20 ..\obj\core_cm3.o
 .text.__set_PRIMASK
                0x00000000       0x18 ..\obj\core_cm3.o
 .text.__get_FAULTMASK
                0x00000000       0x20 ..\obj\core_cm3.o
 .text.__set_FAULTMASK
                0x00000000       0x18 ..\obj\core_cm3.o
 .text.__get_CONTROL
                0x00000000       0x20 ..\obj\core_cm3.o
 .text.__set_CONTROL
                0x00000000       0x18 ..\obj\core_cm3.o
 .text.__REV    0x00000000       0x24 ..\obj\core_cm3.o
 .text.__REV16  0x00000000       0x24 ..\obj\core_cm3.o
 .text.__REVSH  0x00000000       0x24 ..\obj\core_cm3.o
 .text.__RBIT   0x00000000       0x24 ..\obj\core_cm3.o
 .text.__LDREXB
                0x00000000       0x24 ..\obj\core_cm3.o
 .text.__LDREXH
                0x00000000       0x24 ..\obj\core_cm3.o
 .text.__LDREXW
                0x00000000       0x24 ..\obj\core_cm3.o
 .text.__STREXB
                0x00000000       0x2c ..\obj\core_cm3.o
 .text.__STREXH
                0x00000000       0x2c ..\obj\core_cm3.o
 .text.__STREXW
                0x00000000       0x28 ..\obj\core_cm3.o
 .text          0x00000000        0x0 ..\obj\system_stm32f10x.o
 .data          0x00000000       0x14 ..\obj\system_stm32f10x.o
 .bss           0x00000000        0x0 ..\obj\system_stm32f10x.o
 .text.SystemCoreClockUpdate
                0x00000000       0xe4 ..\obj\system_stm32f10x.o
 .text          0x00000000        0x0 ..\obj\USART_Example.o
 .text          0x00000000        0x0 ..\obj\STM32_USART.o
 .data          0x00000000        0x0 ..\obj\STM32_USART.o
 .bss           0x00000000        0x0 ..\obj\STM32_USART.o
 .text          0x00000000        0x0 ..\obj\stm32f10x_gpio.o
 .data          0x00000000        0x0 ..\obj\stm32f10x_gpio.o
 .bss           0x00000000        0x0 ..\obj\stm32f10x_gpio.o
 .text.GPIO_DeInit
                0x00000000      0x118 ..\obj\stm32f10x_gpio.o
 .text.GPIO_AFIODeInit
                0x00000000       0x20 ..\obj\stm32f10x_gpio.o
 .text.GPIO_StructInit
                0x00000000       0x2c ..\obj\stm32f10x_gpio.o
 .text.GPIO_ReadInputDataBit
                0x00000000       0x3c ..\obj\stm32f10x_gpio.o
 .text.GPIO_ReadInputData
                0x00000000       0x1c ..\obj\stm32f10x_gpio.o
 .text.GPIO_ReadOutputDataBit
                0x00000000       0x3c ..\obj\stm32f10x_gpio.o
 .text.GPIO_ReadOutputData
                0x00000000       0x1c ..\obj\stm32f10x_gpio.o
 .text.GPIO_SetBits
                0x00000000       0x1c ..\obj\stm32f10x_gpio.o
 .text.GPIO_ResetBits
                0x00000000       0x1c ..\obj\stm32f10x_gpio.o
 .text.GPIO_Write
                0x00000000       0x1c ..\obj\stm32f10x_gpio.o
 .text.GPIO_PinLockConfig
                0x00000000       0x44 ..\obj\stm32f10x_gpio.o
 .text.GPIO_EventOutputConfig
                0x00000000       0x54 ..\obj\stm32f10x_gpio.o
 .text.GPIO_EventOutputCmd
                0x00000000       0x20 ..\obj\stm32f10x_gpio.o
 .text.GPIO_PinRemapConfig
                0x00000000      0x104 ..\obj\stm32f10x_gpio.o
 .text.GPIO_EXTILineConfig
                0x00000000       0x9c ..\obj\stm32f10x_gpio.o
 .text.GPIO_ETH_MediaInterfaceConfig
                0x00000000       0x1c ..\obj\stm32f10x_gpio.o
 .text          0x00000000        0x0 ..\obj\main.o
 .data          0x00000000        0x0 ..\obj\main.o
 .bss           0x00000000        0x0 ..\obj\main.o
 .text          0x00000000        0x0 ..\obj\stm32f10x_rcc.o
 .data          0x00000000       0x14 ..\obj\stm32f10x_rcc.o
 .bss           0x00000000        0x0 ..\obj\stm32f10x_rcc.o
 .text.RCC_DeInit
                0x00000000       0x64 ..\obj\stm32f10x_rcc.o
 .text.RCC_HSEConfig
                0x00000000       0x5c ..\obj\stm32f10x_rcc.o
 .text.RCC_WaitForHSEStartUp
                0x00000000       0x64 ..\obj\stm32f10x_rcc.o
 .text.RCC_AdjustHSICalibrationValue
                0x00000000       0x40 ..\obj\stm32f10x_rcc.o
 .text.RCC_HSICmd
                0x00000000       0x20 ..\obj\stm32f10x_rcc.o
 .text.RCC_PLLConfig
                0x00000000       0x44 ..\obj\stm32f10x_rcc.o
 .text.RCC_PLLCmd
                0x00000000       0x20 ..\obj\stm32f10x_rcc.o
 .text.RCC_PREDIV1Config
                0x00000000       0x48 ..\obj\stm32f10x_rcc.o
 .text.RCC_SYSCLKConfig
                0x00000000       0x3c ..\obj\stm32f10x_rcc.o
 .text.RCC_GetSYSCLKSource
                0x00000000       0x1c ..\obj\stm32f10x_rcc.o
 .text.RCC_HCLKConfig
                0x00000000       0x3c ..\obj\stm32f10x_rcc.o
 .text.RCC_PCLK1Config
                0x00000000       0x3c ..\obj\stm32f10x_rcc.o
 .text.RCC_PCLK2Config
                0x00000000       0x40 ..\obj\stm32f10x_rcc.o
 .text.RCC_ITConfig
                0x00000000       0x50 ..\obj\stm32f10x_rcc.o
 .text.RCC_USBCLKConfig
                0x00000000       0x1c ..\obj\stm32f10x_rcc.o
 .text.RCC_ADCCLKConfig
                0x00000000       0x3c ..\obj\stm32f10x_rcc.o
 .text.RCC_LSEConfig
                0x00000000       0x48 ..\obj\stm32f10x_rcc.o
 .text.RCC_LSICmd
                0x00000000       0x20 ..\obj\stm32f10x_rcc.o
 .text.RCC_RTCCLKConfig
                0x00000000       0x24 ..\obj\stm32f10x_rcc.o
 .text.RCC_RTCCLKCmd
                0x00000000       0x20 ..\obj\stm32f10x_rcc.o
 .text.RCC_GetClocksFreq
                0x00000000      0x17c ..\obj\stm32f10x_rcc.o
 .text.RCC_AHBPeriphClockCmd
                0x00000000       0x44 ..\obj\stm32f10x_rcc.o
 .text.RCC_APB1PeriphClockCmd
                0x00000000       0x44 ..\obj\stm32f10x_rcc.o
 .text.RCC_APB2PeriphResetCmd
                0x00000000       0x44 ..\obj\stm32f10x_rcc.o
 .text.RCC_APB1PeriphResetCmd
                0x00000000       0x44 ..\obj\stm32f10x_rcc.o
 .text.RCC_BackupResetCmd
                0x00000000       0x20 ..\obj\stm32f10x_rcc.o
 .text.RCC_ClockSecuritySystemCmd
                0x00000000       0x20 ..\obj\stm32f10x_rcc.o
 .text.RCC_MCOConfig
                0x00000000       0x20 ..\obj\stm32f10x_rcc.o
 .text.RCC_GetFlagStatus
                0x00000000       0x84 ..\obj\stm32f10x_rcc.o
 .text.RCC_ClearFlag
                0x00000000       0x1c ..\obj\stm32f10x_rcc.o
 .text.RCC_GetITStatus
                0x00000000       0x40 ..\obj\stm32f10x_rcc.o
 .text.RCC_ClearITPendingBit
                0x00000000       0x20 ..\obj\stm32f10x_rcc.o
 .text          0x00000000        0x0 ..\obj\GPIO_Blink.o
 .data          0x00000000        0x0 ..\obj\GPIO_Blink.o
 .bss           0x00000000        0x0 ..\obj\GPIO_Blink.o

Memory Configuration

Name             Origin             Length             Attributes
rom              0x08000000         0x00020000         xr
ram              0x20000000         0x00002000         xrw
*default*        0x00000000         0xffffffff

Linker script and memory map

                0x20002000                _eram = 0x20002000

.text           0x08000000     0x1560
 *(.isr_vector .isr_vector.*)
 .isr_vector    0x08000000      0x124 ..\obj\startup_stm32f10x_md_vl.o
                0x08000000                g_pfnVectors
 *(.text .text.* .gnu.linkonce.t.*)
 .text.Default_Reset_Handler
                0x08000124       0x68 ..\obj\startup_stm32f10x_md_vl.o
                0x08000124                Default_Reset_Handler
                0x08000124                Reset_Handler
 .text.Default_Handler
                0x0800018c        0x8 ..\obj\startup_stm32f10x_md_vl.o
                0x0800018c                EXTI2_IRQHandler
                0x0800018c                DebugMon_Handler
                0x0800018c                TIM1_CC_IRQHandler
                0x0800018c                HardFault_Handler
                0x0800018c                SysTick_Handler
                0x0800018c                PVD_IRQHandler
                0x0800018c                PendSV_Handler
                0x0800018c                NMI_Handler
                0x0800018c                EXTI3_IRQHandler
                0x0800018c                EXTI0_IRQHandler
                0x0800018c                I2C2_EV_IRQHandler
                0x0800018c                TIM1_UP_TIM16_IRQHandler
                0x0800018c                UsageFault_Handler
                0x0800018c                SPI1_IRQHandler
                0x0800018c                TAMPER_IRQHandler
                0x0800018c                TIM6_DAC_IRQHandler
                0x0800018c                DMA1_Channel4_IRQHandler
                0x0800018c                ADC1_IRQHandler
                0x0800018c                USART3_IRQHandler
                0x0800018c                RTC_IRQHandler
                0x0800018c                DMA1_Channel7_IRQHandler
                0x0800018c                TIM4_IRQHandler
                0x0800018c                I2C1_EV_IRQHandler
                0x0800018c                DMA1_Channel6_IRQHandler
                0x0800018c                TIM3_IRQHandler
                0x0800018c                RCC_IRQHandler
                0x0800018c                DMA1_Channel1_IRQHandler
                0x0800018c                CEC_IRQHandler
                0x0800018c                EXTI15_10_IRQHandler
                0x0800018c                TIM7_IRQHandler
                0x0800018c                EXTI9_5_IRQHandler
                0x0800018c                SPI2_IRQHandler
                0x0800018c                MemManage_Handler
                0x0800018c                SVC_Handler
                0x0800018c                DMA1_Channel5_IRQHandler
                0x0800018c                EXTI4_IRQHandler
                0x0800018c                TIM1_TRG_COM_TIM17_IRQHandler
                0x0800018c                DMA1_Channel3_IRQHandler
                0x0800018c                WWDG_IRQHandler
                0x0800018c                TIM2_IRQHandler
                0x0800018c                EXTI1_IRQHandler
                0x0800018c                RTCAlarm_IRQHandler
                0x0800018c                USART2_IRQHandler
                0x0800018c                I2C2_ER_IRQHandler
                0x0800018c                DMA1_Channel2_IRQHandler
                0x0800018c                FLASH_IRQHandler
                0x0800018c                BusFault_Handler
                0x0800018c                USART1_IRQHandler
                0x0800018c                I2C1_ER_IRQHandler
                0x0800018c                TIM1_BRK_TIM15_IRQHandler
 .text.SystemInit
                0x08000194       0x70 ..\obj\system_stm32f10x.o
                0x08000194                SystemInit
 .text.SetSysClock
                0x08000204        0xc ..\obj\system_stm32f10x.o
 .text.SetSysClockTo24
                0x08000210       0xdc ..\obj\system_stm32f10x.o
 .text.USART_Example
                0x080002ec      0x100 ..\obj\USART_Example.o
                0x080002ec                USART_Example
 .text.STM_GPIO_Init
                0x080003ec      0x1c4 ..\obj\STM32_USART.o
                0x080003ec                STM_GPIO_Init
 .text.STM_RCC_GetFlagStatus
                0x080005b0       0x84 ..\obj\STM32_USART.o
                0x080005b0                STM_RCC_GetFlagStatus
 .text.STM_RCC_WaitForHSEStartUp
                0x08000634       0x64 ..\obj\STM32_USART.o
                0x08000634                STM_RCC_WaitForHSEStartUp
 .text.STM_RCC_Configuration
                0x08000698      0x198 ..\obj\STM32_USART.o
                0x08000698                STM_RCC_Configuration
 .text.STM_RCC_GetClockFreq
                0x08000830      0x174 ..\obj\STM32_USART.o
                0x08000830                STM_RCC_GetClockFreq
 .text.STM_UART_Init
                0x080009a4      0x2c8 ..\obj\STM32_USART.o
 .text.STM_UART_Write
                0x08000c6c       0x54 ..\obj\STM32_USART.o
 .text.STM_UART_Read
                0x08000cc0       0x54 ..\obj\STM32_USART.o
 .text.STM_UART_SetRate
                0x08000d14       0xc8 ..\obj\STM32_USART.o
 .text.STM_UART_Cfg
                0x08000ddc      0x28c ..\obj\STM32_USART.o
 .text.STM_Serial1_Init
                0x08001068       0x20 ..\obj\STM32_USART.o
 .text.STM_Serial2_Init
                0x08001088       0x20 ..\obj\STM32_USART.o
 .text.STM_Serial3_Init
                0x080010a8       0x20 ..\obj\STM32_USART.o
 .text.STM_Serial1_Write
                0x080010c8       0x24 ..\obj\STM32_USART.o
 .text.STM_Serial2_Write
                0x080010ec       0x24 ..\obj\STM32_USART.o
 .text.STM_Serial3_Write
                0x08001110       0x24 ..\obj\STM32_USART.o
 .text.STM_Serial1_Read
                0x08001134       0x24 ..\obj\STM32_USART.o
 .text.STM_Serial2_Read
                0x08001158       0x24 ..\obj\STM32_USART.o
 .text.STM_Serial3_Read
                0x0800117c       0x24 ..\obj\STM32_USART.o
 .text.STM_Serial1_Cfg
                0x080011a0       0x2c ..\obj\STM32_USART.o
 .text.STM_Serial2_Cfg
                0x080011cc       0x2c ..\obj\STM32_USART.o
 .text.STM_Serial3_Cfg
                0x080011f8       0x2c ..\obj\STM32_USART.o
 .text.GPIO_Init
                0x08001224      0x1c0 ..\obj\stm32f10x_gpio.o
                0x08001224                GPIO_Init
 .text.GPIO_WriteBit
                0x080013e4       0x30 ..\obj\stm32f10x_gpio.o
                0x080013e4                GPIO_WriteBit
 .text.main     0x08001414       0x10 ..\obj\main.o
                0x08001414                main
 .text.RCC_APB2PeriphClockCmd
                0x08001424       0x44 ..\obj\stm32f10x_rcc.o
                0x08001424                RCC_APB2PeriphClockCmd
 .text.GPIO_Blink
                0x08001468       0x90 ..\obj\GPIO_Blink.o
                0x08001468                GPIO_Blink
 .text.Delay    0x080014f8       0x24 ..\obj\GPIO_Blink.o
                0x080014f8                Delay
 *(.glue_7t)
 .glue_7t       0x00000000        0x0 linker stubs
 *(.glue_7)
 .glue_7        0x00000000        0x0 linker stubs
 *(.rodata .rodata* .gnu.linkonce.r.*)
 .rodata        0x0800151c       0x44 ..\obj\STM32_USART.o
                0x08001530                pi_serial1
                0x08001540                pi_serial2
                0x08001550                pi_serial3

.vfp11_veneer   0x08001560        0x0
 .vfp11_veneer  0x00000000        0x0 linker stubs

.v4_bx          0x08001560        0x0
 .v4_bx         0x00000000        0x0 linker stubs

.ARM.extab
 *(.ARM.extab* .gnu.linkonce.armextab.*)

.ARM.exidx
 *(.ARM.exidx* .gnu.linkonce.armexidx.*)
                0x08001560                . = ALIGN (0x4)
                0x08001560                _etext = .
                0x08001560                _sidata = .

.data           0x20000000       0x18 load address 0x08001560
                0x20000000                _sdata = .
 *(.data .data.*)
 .data          0x20000000       0x18 ..\obj\USART_Example.o
                0x20000000                uart
                0x20000004                wxbuf
                0x20000018                . = ALIGN (0x4)
                0x20000018                _edata = .

.bss            0x20000018       0x40 load address 0x08001578
                0x20000018                _sbss = .
 *(.bss .bss.*)
 .bss           0x20000018        0x4 ..\obj\USART_Example.o
                0x20000018                a
 *(COMMON)
 COMMON         0x2000001c       0x34 ..\obj\USART_Example.o
                0x2000001c                rxbuf
                0x20000044                tmp
                0x20000048                err
                0x2000004c                ut_count
 COMMON         0x20000050        0x1 ..\obj\STM32_USART.o
                0x20000050                HSEStartUpStatus
 *fill*         0x20000051        0x3 00
 COMMON         0x20000054        0x4 ..\obj\GPIO_Blink.o
                0x20000054                GPIO_InitStructure
                0x20000058                . = ALIGN (0x4)
                0x20000058                _ebss = .

.co_stack       0x20000058      0x400 load address 0x080015b8
                0x20000058                . = ALIGN (0x8)
 *(.co_stack .co_stack.*)
 .co_stack      0x20000058      0x400 ..\obj\startup_stm32f10x_md_vl.o
                0x20000058                pulStack
                0x20000458                . = ALIGN (0x4)
                0x20000458                _end = .
LOAD ..\obj\startup_stm32f10x_md_vl.o
LOAD ..\obj\core_cm3.o
LOAD ..\obj\system_stm32f10x.o
LOAD ..\obj\USART_Example.o
LOAD ..\obj\STM32_USART.o
LOAD ..\obj\stm32f10x_gpio.o
LOAD ..\obj\main.o
LOAD ..\obj\stm32f10x_rcc.o
LOAD ..\obj\GPIO_Blink.o
START GROUP
LOAD j:/cocenter/cooide/gcc/sourcery g++ lite/bin/../lib/gcc/arm-none-eabi/4.5.2/thumb2\libgcc.a
LOAD j:/cocenter/cooide/gcc/sourcery g++ lite/bin/../lib/gcc/arm-none-eabi/4.5.2/../../../../arm-none-eabi/lib/thumb2\libc.a
END GROUP
OUTPUT(STM32DscvrGPIO.elf elf32-littlearm)

.debug_abbrev   0x00000000      0xadb
 .debug_abbrev  0x00000000       0xa5 ..\obj\startup_stm32f10x_md_vl.o
 .debug_abbrev  0x000000a5       0xd7 ..\obj\core_cm3.o
 .debug_abbrev  0x0000017c      0x18f ..\obj\system_stm32f10x.o
 .debug_abbrev  0x0000030b      0x113 ..\obj\USART_Example.o
 .debug_abbrev  0x0000041e      0x227 ..\obj\STM32_USART.o
 .debug_abbrev  0x00000645      0x1a6 ..\obj\stm32f10x_gpio.o
 .debug_abbrev  0x000007eb       0x38 ..\obj\main.o
 .debug_abbrev  0x00000823      0x193 ..\obj\stm32f10x_rcc.o
 .debug_abbrev  0x000009b6      0x125 ..\obj\GPIO_Blink.o

.debug_info     0x00000000     0x30d6
 .debug_info    0x00000000      0x135 ..\obj\startup_stm32f10x_md_vl.o
 .debug_info    0x00000135      0x54c ..\obj\core_cm3.o
 .debug_info    0x00000681      0x432 ..\obj\system_stm32f10x.o
 .debug_info    0x00000ab3      0x303 ..\obj\USART_Example.o
 .debug_info    0x00000db6      0xfda ..\obj\STM32_USART.o
 .debug_info    0x00001d90      0x727 ..\obj\stm32f10x_gpio.o
 .debug_info    0x000024b7       0x4a ..\obj\main.o
 .debug_info    0x00002501      0x97a ..\obj\stm32f10x_rcc.o
 .debug_info    0x00002e7b      0x25b ..\obj\GPIO_Blink.o

.debug_line     0x00000000     0x19a3
 .debug_line    0x00000000       0xac ..\obj\startup_stm32f10x_md_vl.o
 .debug_line    0x000000ac      0x2e7 ..\obj\core_cm3.o
 .debug_line    0x00000393      0x295 ..\obj\system_stm32f10x.o
 .debug_line    0x00000628      0x1f1 ..\obj\USART_Example.o
 .debug_line    0x00000819      0x564 ..\obj\STM32_USART.o
 .debug_line    0x00000d7d      0x414 ..\obj\stm32f10x_gpio.o
 .debug_line    0x00001191       0x67 ..\obj\main.o
 .debug_line    0x000011f8      0x527 ..\obj\stm32f10x_rcc.o
 .debug_line    0x0000171f      0x284 ..\obj\GPIO_Blink.o

.debug_macinfo  0x00000000   0x11dde6
 .debug_macinfo
                0x00000000     0x223c ..\obj\startup_stm32f10x_md_vl.o
 .debug_macinfo
                0x0000223c     0x2afc ..\obj\core_cm3.o
 .debug_macinfo
                0x00004d38    0x34c30 ..\obj\system_stm32f10x.o
 .debug_macinfo
                0x00039968     0x3357 ..\obj\USART_Example.o
 .debug_macinfo
                0x0003ccbf    0x35478 ..\obj\STM32_USART.o
 .debug_macinfo
                0x00072137    0x391c6 ..\obj\stm32f10x_gpio.o
 .debug_macinfo
                0x000ab2fd     0x2206 ..\obj\main.o
 .debug_macinfo
                0x000ad503    0x37967 ..\obj\stm32f10x_rcc.o
 .debug_macinfo
                0x000e4e6a    0x38f7c ..\obj\GPIO_Blink.o

.debug_loc      0x00000000     0x15a2
 .debug_loc     0x00000000       0x64 ..\obj\startup_stm32f10x_md_vl.o
 .debug_loc     0x00000064      0x3f0 ..\obj\core_cm3.o
 .debug_loc     0x00000454       0xc8 ..\obj\system_stm32f10x.o
 .debug_loc     0x0000051c       0x2c ..\obj\USART_Example.o
 .debug_loc     0x00000548      0x4d2 ..\obj\STM32_USART.o
 .debug_loc     0x00000a1a      0x3e4 ..\obj\stm32f10x_gpio.o
 .debug_loc     0x00000dfe       0x2c ..\obj\main.o
 .debug_loc     0x00000e2a      0x714 ..\obj\stm32f10x_rcc.o
 .debug_loc     0x0000153e       0x64 ..\obj\GPIO_Blink.o

.debug_pubnames
                0x00000000      0x80d
 .debug_pubnames
                0x00000000       0x4a ..\obj\startup_stm32f10x_md_vl.o
 .debug_pubnames
                0x0000004a      0x159 ..\obj\core_cm3.o
 .debug_pubnames
                0x000001a3       0x61 ..\obj\system_stm32f10x.o
 .debug_pubnames
                0x00000204       0x64 ..\obj\USART_Example.o
 .debug_pubnames
                0x00000268       0xd1 ..\obj\STM32_USART.o
 .debug_pubnames
                0x00000339      0x19d ..\obj\stm32f10x_gpio.o
 .debug_pubnames
                0x000004d6       0x1b ..\obj\main.o
 .debug_pubnames
                0x000004f1      0x2da ..\obj\stm32f10x_rcc.o
 .debug_pubnames
                0x000007cb       0x42 ..\obj\GPIO_Blink.o

.debug_aranges  0x00000000      0x420
 .debug_aranges
                0x00000000       0x28 ..\obj\startup_stm32f10x_md_vl.o
 .debug_aranges
                0x00000028       0xc8 ..\obj\core_cm3.o
 .debug_aranges
                0x000000f0       0x38 ..\obj\system_stm32f10x.o
 .debug_aranges
                0x00000128       0x20 ..\obj\USART_Example.o
 .debug_aranges
                0x00000148       0xc8 ..\obj\STM32_USART.o
 .debug_aranges
                0x00000210       0xa8 ..\obj\stm32f10x_gpio.o
 .debug_aranges
                0x000002b8       0x20 ..\obj\main.o
 .debug_aranges
                0x000002d8      0x120 ..\obj\stm32f10x_rcc.o
 .debug_aranges
                0x000003f8       0x28 ..\obj\GPIO_Blink.o

.debug_ranges   0x00000000      0x390
 .debug_ranges  0x00000000       0x18 ..\obj\startup_stm32f10x_md_vl.o
 .debug_ranges  0x00000018       0xb8 ..\obj\core_cm3.o
 .debug_ranges  0x000000d0       0x28 ..\obj\system_stm32f10x.o
 .debug_ranges  0x000000f8       0x10 ..\obj\USART_Example.o
 .debug_ranges  0x00000108       0xb8 ..\obj\STM32_USART.o
 .debug_ranges  0x000001c0       0x98 ..\obj\stm32f10x_gpio.o
 .debug_ranges  0x00000258       0x10 ..\obj\main.o
 .debug_ranges  0x00000268      0x110 ..\obj\stm32f10x_rcc.o
 .debug_ranges  0x00000378       0x18 ..\obj\GPIO_Blink.o

.debug_str      0x00000000     0x1411
 .debug_str     0x00000000       0xc6 ..\obj\startup_stm32f10x_md_vl.o
                                 0xe5 (size before relaxing)
 .debug_str     0x000000c6      0x1e0 ..\obj\core_cm3.o
                                0x230 (size before relaxing)
 .debug_str     0x000002a6      0x17a ..\obj\system_stm32f10x.o
                                0x238 (size before relaxing)
 .debug_str     0x00000420      0x1be ..\obj\USART_Example.o
                                0x278 (size before relaxing)
 .debug_str     0x000005de      0x81b ..\obj\STM32_USART.o
                                0xad9 (size before relaxing)
 .debug_str     0x00000df9      0x239 ..\obj\stm32f10x_gpio.o
                                0x47d (size before relaxing)
 .debug_str     0x00001032       0x38 ..\obj\main.o
                                 0x44 (size before relaxing)
 .debug_str     0x0000106a      0x34e ..\obj\stm32f10x_rcc.o
                                0x5d1 (size before relaxing)
 .debug_str     0x000013b8       0x59 ..\obj\GPIO_Blink.o
                                0x259 (size before relaxing)

.comment        0x00000000       0x2a
 .comment       0x00000000       0x2a ..\obj\startup_stm32f10x_md_vl.o
                                 0x2b (size before relaxing)
 .comment       0x00000000       0x2b ..\obj\core_cm3.o
 .comment       0x00000000       0x2b ..\obj\system_stm32f10x.o
 .comment       0x00000000       0x2b ..\obj\USART_Example.o
 .comment       0x00000000       0x2b ..\obj\STM32_USART.o
 .comment       0x00000000       0x2b ..\obj\stm32f10x_gpio.o
 .comment       0x00000000       0x2b ..\obj\main.o
 .comment       0x00000000       0x2b ..\obj\stm32f10x_rcc.o
 .comment       0x00000000       0x2b ..\obj\GPIO_Blink.o

.ARM.attributes
                0x00000000       0x31
 .ARM.attributes
                0x00000000       0x31 ..\obj\startup_stm32f10x_md_vl.o
 .ARM.attributes
                0x00000031       0x31 ..\obj\core_cm3.o
 .ARM.attributes
                0x00000062       0x31 ..\obj\system_stm32f10x.o
 .ARM.attributes
                0x00000093       0x31 ..\obj\USART_Example.o
 .ARM.attributes
                0x000000c4       0x31 ..\obj\STM32_USART.o
 .ARM.attributes
                0x000000f5       0x31 ..\obj\stm32f10x_gpio.o
 .ARM.attributes
                0x00000126       0x31 ..\obj\main.o
 .ARM.attributes
                0x00000157       0x31 ..\obj\stm32f10x_rcc.o
 .ARM.attributes
                0x00000188       0x31 ..\obj\GPIO_Blink.o

.debug_frame    0x00000000      0xc58
 .debug_frame   0x00000000       0x48 ..\obj\startup_stm32f10x_md_vl.o
 .debug_frame   0x00000048      0x280 ..\obj\core_cm3.o
 .debug_frame   0x000002c8       0x80 ..\obj\system_stm32f10x.o
 .debug_frame   0x00000348       0x2c ..\obj\USART_Example.o
 .debug_frame   0x00000374      0x2bc ..\obj\STM32_USART.o
 .debug_frame   0x00000630      0x210 ..\obj\stm32f10x_gpio.o
 .debug_frame   0x00000840       0x2c ..\obj\main.o
 .debug_frame   0x0000086c      0x3a4 ..\obj\stm32f10x_rcc.o
 .debug_frame   0x00000c10       0x48 ..\obj\GPIO_Blink.o

.debug_pubtypes
                0x00000000      0x4de
 .debug_pubtypes
                0x00000000       0x50 ..\obj\core_cm3.o
 .debug_pubtypes
                0x00000050       0x55 ..\obj\system_stm32f10x.o
 .debug_pubtypes
                0x000000a5       0x50 ..\obj\USART_Example.o
 .debug_pubtypes
                0x000000f5      0x20b ..\obj\STM32_USART.o
 .debug_pubtypes
                0x00000300       0xc3 ..\obj\stm32f10x_gpio.o
 .debug_pubtypes
                0x000003c3       0x9e ..\obj\stm32f10x_rcc.o
 .debug_pubtypes
                0x00000461       0x7d ..\obj\GPIO_Blink.o
