Archive member included because of file (symbol)

j:/cocenter/cooide/gcc/sourcery g++ lite/bin/../lib/gcc/arm-none-eabi/4.5.2/thumb2\libgcc.a(_arm_addsubsf3.o)
                              ..\obj\lpc_pwm.o (__aeabi_ui2f)
j:/cocenter/cooide/gcc/sourcery g++ lite/bin/../lib/gcc/arm-none-eabi/4.5.2/thumb2\libgcc.a(_arm_muldivsf3.o)
                              ..\obj\lpc_pwm.o (__aeabi_fmul)
j:/cocenter/cooide/gcc/sourcery g++ lite/bin/../lib/gcc/arm-none-eabi/4.5.2/thumb2\libgcc.a(_arm_cmpsf2.o)
                              ..\obj\lpc_pwm.o (__aeabi_fcmpgt)
j:/cocenter/cooide/gcc/sourcery g++ lite/bin/../lib/gcc/arm-none-eabi/4.5.2/thumb2\libgcc.a(_arm_fixunssfsi.o)
                              ..\obj\lpc_pwm.o (__aeabi_f2uiz)
j:/cocenter/cooide/gcc/sourcery g++ lite/bin/../lib/gcc/arm-none-eabi/4.5.2/thumb2\libgcc.a(_fixunssfdi.o)
                              ..\obj\lpc_pwm.o (__aeabi_f2ulz)
j:/cocenter/cooide/gcc/sourcery g++ lite/bin/../lib/gcc/arm-none-eabi/4.5.2/thumb2\libgcc.a(_arm_addsubdf3.o)
                              j:/cocenter/cooide/gcc/sourcery g++ lite/bin/../lib/gcc/arm-none-eabi/4.5.2/thumb2\libgcc.a(_fixunssfdi.o) (__aeabi_dsub)
j:/cocenter/cooide/gcc/sourcery g++ lite/bin/../lib/gcc/arm-none-eabi/4.5.2/thumb2\libgcc.a(_arm_muldivdf3.o)
                              j:/cocenter/cooide/gcc/sourcery g++ lite/bin/../lib/gcc/arm-none-eabi/4.5.2/thumb2\libgcc.a(_fixunssfdi.o) (__aeabi_dmul)
j:/cocenter/cooide/gcc/sourcery g++ lite/bin/../lib/gcc/arm-none-eabi/4.5.2/thumb2\libgcc.a(_arm_fixunsdfsi.o)
                              j:/cocenter/cooide/gcc/sourcery g++ lite/bin/../lib/gcc/arm-none-eabi/4.5.2/thumb2\libgcc.a(_fixunssfdi.o) (__aeabi_d2uiz)

Discarded input sections

 .text          0x00000000        0x0 ..\obj\kernelHeap.o
 .data          0x00000000        0x0 ..\obj\kernelHeap.o
 .bss           0x00000000       0xd4 ..\obj\kernelHeap.o
 .text.CoCreateKheap
                0x00000000       0x4c ..\obj\kernelHeap.o
 .text.CoKmalloc
                0x00000000      0x184 ..\obj\kernelHeap.o
 .text.CoKfree  0x00000000      0x308 ..\obj\kernelHeap.o
 .text.GetPreFMB
                0x00000000       0x38 ..\obj\kernelHeap.o
 .text          0x00000000        0x0 ..\obj\core.o
 .data          0x00000000        0x0 ..\obj\core.o
 .text.CoEnterISR
                0x00000000       0x10 ..\obj\core.o
 .text.CoExitISR
                0x00000000       0x50 ..\obj\core.o
 .text.CoSchedLock
                0x00000000       0x20 ..\obj\core.o
 .text.CoSchedUnlock
                0x00000000        0xc ..\obj\core.o
 .text.CoInitOS
                0x00000000       0x84 ..\obj\core.o
 .text.CoStartOS
                0x00000000       0x38 ..\obj\core.o
 .text.CoGetOSVersion
                0x00000000       0x10 ..\obj\core.o
 .text          0x00000000        0x0 ..\obj\core_cm3.o
 .data          0x00000000        0x0 ..\obj\core_cm3.o
 .bss           0x00000000        0x0 ..\obj\core_cm3.o
 .text.__get_PSP
                0x00000000       0x10 ..\obj\core_cm3.o
 .text.__set_PSP
                0x00000000        0x8 ..\obj\core_cm3.o
 .text.__get_MSP
                0x00000000       0x10 ..\obj\core_cm3.o
 .text.__set_MSP
                0x00000000        0x8 ..\obj\core_cm3.o
 .text.__get_BASEPRI
                0x00000000       0x20 ..\obj\core_cm3.o
 .text.__set_BASEPRI
                0x00000000       0x18 ..\obj\core_cm3.o
 .text.__get_PRIMASK
                0x00000000       0x20 ..\obj\core_cm3.o
 .text.__set_PRIMASK
                0x00000000       0x18 ..\obj\core_cm3.o
 .text.__get_FAULTMASK
                0x00000000       0x20 ..\obj\core_cm3.o
 .text.__set_FAULTMASK
                0x00000000       0x18 ..\obj\core_cm3.o
 .text.__get_CONTROL
                0x00000000       0x20 ..\obj\core_cm3.o
 .text.__set_CONTROL
                0x00000000       0x18 ..\obj\core_cm3.o
 .text.__REV    0x00000000       0x24 ..\obj\core_cm3.o
 .text.__REV16  0x00000000       0x24 ..\obj\core_cm3.o
 .text.__REVSH  0x00000000       0x24 ..\obj\core_cm3.o
 .text.__RBIT   0x00000000       0x24 ..\obj\core_cm3.o
 .text.__LDREXB
                0x00000000       0x24 ..\obj\core_cm3.o
 .text.__LDREXH
                0x00000000       0x24 ..\obj\core_cm3.o
 .text.__LDREXW
                0x00000000       0x24 ..\obj\core_cm3.o
 .text.__STREXB
                0x00000000       0x2c ..\obj\core_cm3.o
 .text.__STREXH
                0x00000000       0x2c ..\obj\core_cm3.o
 .text.__STREXW
                0x00000000       0x28 ..\obj\core_cm3.o
 .text          0x00000000        0x0 ..\obj\timer.o
 .data          0x00000000        0x0 ..\obj\timer.o
 .text.CoCreateTmr
                0x00000000      0x174 ..\obj\timer.o
 .text.CoStartTmr
                0x00000000       0x88 ..\obj\timer.o
 .text.CoStopTmr
                0x00000000       0x88 ..\obj\timer.o
 .text.CoDelTmr
                0x00000000       0x84 ..\obj\timer.o
 .text.CoGetCurTmrCnt
                0x00000000       0x7c ..\obj\timer.o
 .text.CoSetTmrCnt
                0x00000000       0xac ..\obj\timer.o
 .text          0x00000000        0x0 ..\obj\utility.o
 .data          0x00000000        0x0 ..\obj\utility.o
 .bss           0x00000000        0x0 ..\obj\utility.o
 .text.CoTickToTime
                0x00000000       0xc0 ..\obj\utility.o
 .text.CoTimeToTick
                0x00000000       0x8c ..\obj\utility.o
 .text          0x00000000        0x0 ..\obj\lpc_pwm.o
 .data          0x00000000        0x0 ..\obj\lpc_pwm.o
 .bss           0x00000000        0x0 ..\obj\lpc_pwm.o
 .text          0x00000000        0x0 ..\obj\system_LPC17xx.o
 .bss           0x00000000        0x0 ..\obj\system_LPC17xx.o
 .text.SystemCoreClockUpdate
                0x00000000      0x1a8 ..\obj\system_LPC17xx.o
 .text          0x00000000        0x0 ..\obj\task.o
 .data          0x00000000        0x0 ..\obj\task.o
 .text.CreateTCBList
                0x00000000       0x74 ..\obj\task.o
 .text.CoSetPriority
                0x00000000      0x1dc ..\obj\task.o
 .text.AssignTCB
                0x00000000       0x50 ..\obj\task.o
 .text.CreateTask
                0x00000000      0x14c ..\obj\task.o
 .text.CoDelTask
                0x00000000      0x12c ..\obj\task.o
 .text.CoExitTask
                0x00000000       0x18 ..\obj\task.o
 .text.CoGetCurTaskID
                0x00000000       0x18 ..\obj\task.o
 .text.CoSuspendTask
                0x00000000       0xb4 ..\obj\task.o
 .text.CoAwakeTask
                0x00000000       0xb8 ..\obj\task.o
 .text          0x00000000        0x0 ..\obj\serviceReq.o
 .data          0x00000000        0x0 ..\obj\serviceReq.o
 .text.InsertInSRQ
                0x00000000       0xa0 ..\obj\serviceReq.o
 .text          0x00000000        0x0 ..\obj\main.o
 .data          0x00000000        0x0 ..\obj\main.o
 .bss           0x00000000        0x0 ..\obj\main.o
 .text          0x00000000        0x0 ..\obj\mbox.o
 .data          0x00000000        0x0 ..\obj\mbox.o
 .bss           0x00000000        0x0 ..\obj\mbox.o
 .text.CoCreateMbox
                0x00000000       0x40 ..\obj\mbox.o
 .text.CoDelMbox
                0x00000000       0x54 ..\obj\mbox.o
 .text.CoAcceptMail
                0x00000000       0xa8 ..\obj\mbox.o
 .text.CoPendMail
                0x00000000      0x158 ..\obj\mbox.o
 .text.isr_PostMail
                0x00000000       0x50 ..\obj\mbox.o
 .text          0x00000000        0x0 ..\obj\mm.o
 .data          0x00000000        0x0 ..\obj\mm.o
 .bss           0x00000000       0x24 ..\obj\mm.o
 .text.CoCreateMemPartition
                0x00000000      0x140 ..\obj\mm.o
 .text.CoDelMemoryPartition
                0x00000000       0xa8 ..\obj\mm.o
 .text.CoGetFreeBlockNum
                0x00000000       0xa8 ..\obj\mm.o
 .text.CoGetMemoryBuffer
                0x00000000       0x90 ..\obj\mm.o
 .text.CoFreeMemoryBuffer
                0x00000000       0xe0 ..\obj\mm.o
 .text          0x00000000        0x0 ..\obj\startup_LPC17xx.o
 .data          0x00000000        0x0 ..\obj\startup_LPC17xx.o
 .bss           0x00000000        0x0 ..\obj\startup_LPC17xx.o
 .text          0x00000000        0x0 ..\obj\time.o
 .data          0x00000000        0x0 ..\obj\time.o
 .text.InsertDelayList
                0x00000000       0xf4 ..\obj\time.o
 .text.CoGetOSTime
                0x00000000       0x18 ..\obj\time.o
 .text.CoTickDelay
                0x00000000       0x7c ..\obj\time.o
 .text.CoResetTaskDelayTick
                0x00000000       0x8c ..\obj\time.o
 .text.CoTimeDelay
                0x00000000       0xb4 ..\obj\time.o
 .text          0x00000000        0x0 ..\obj\event.o
 .data          0x00000000        0x0 ..\obj\event.o
 .text.CreateEventList
                0x00000000       0x88 ..\obj\event.o
 .text.ReleaseECB
                0x00000000       0x48 ..\obj\event.o
 .text.CreatEvent
                0x00000000       0x90 ..\obj\event.o
 .text.DeleteEvent
                0x00000000       0x98 ..\obj\event.o
 .text.EventTaskToWait
                0x00000000      0x10c ..\obj\event.o
 .text          0x00000000        0x0 ..\obj\port.o
 .bss           0x00000000        0x0 ..\obj\port.o
 .text.Inc8     0x00000000       0x34 ..\obj\port.o
 .text.Dec8     0x00000000       0x30 ..\obj\port.o
 .text.SetEnvironment
                0x00000000        0xc ..\obj\port.o
 .text          0x00000000        0x0 ..\obj\queue.o
 .data          0x00000000        0x0 ..\obj\queue.o
 .bss           0x00000000       0x24 ..\obj\queue.o
 .text.CoCreateQueue
                0x00000000      0x12c ..\obj\queue.o
 .text.CoDelQueue
                0x00000000       0xb4 ..\obj\queue.o
 .text.CoAcceptQueueMail
                0x00000000       0xdc ..\obj\queue.o
 .text.CoPendQueueMail
                0x00000000      0x188 ..\obj\queue.o
 .text.isr_PostQueueMail
                0x00000000       0x50 ..\obj\queue.o
 .text          0x00000000        0x0 ..\obj\mutex.o
 .data          0x00000000        0x0 ..\obj\mutex.o
 .bss           0x00000000       0x54 ..\obj\mutex.o
 .text.CoCreateMutex
                0x00000000       0x8c ..\obj\mutex.o
 .text.CoEnterMutexSection
                0x00000000      0x198 ..\obj\mutex.o
 .text.CoLeaveMutexSection
                0x00000000      0x14c ..\obj\mutex.o
 .text.RemoveMutexList
                0x00000000      0x108 ..\obj\mutex.o
 .text          0x00000000        0x0 ..\obj\flag.o
 .data          0x00000000        0x0 ..\obj\flag.o
 .text.CoCreateFlag
                0x00000000       0xa4 ..\obj\flag.o
 .text.CoDelFlag
                0x00000000      0x13c ..\obj\flag.o
 .text.CoAcceptSingleFlag
                0x00000000       0x9c ..\obj\flag.o
 .text.CoAcceptMultipleFlags
                0x00000000       0xd8 ..\obj\flag.o
 .text.CoWaitForSingleFlag
                0x00000000      0x1b4 ..\obj\flag.o
 .text.CoWaitForMultipleFlags
                0x00000000      0x1fc ..\obj\flag.o
 .text.CoClearFlag
                0x00000000       0x64 ..\obj\flag.o
 .text.isr_SetFlag
                0x00000000       0x50 ..\obj\flag.o
 .text.FlagBlock
                0x00000000       0x80 ..\obj\flag.o
 .text          0x00000000        0x0 ..\obj\lpc_lowlayer.o
 .data          0x00000000        0x0 ..\obj\lpc_lowlayer.o
 .bss           0x00000000        0x0 ..\obj\lpc_lowlayer.o
 .text.LPC_PCLK_Status
                0x00000000       0x34 ..\obj\lpc_lowlayer.o
 .text          0x00000000        0x0 ..\obj\arch.o
 .data          0x00000000        0x0 ..\obj\arch.o
 .text.InitTaskContext
                0x00000000       0x5c ..\obj\arch.o
 .text          0x00000000        0x0 ..\obj\PWMOutput.o
 .data          0x00000000        0x0 ..\obj\PWMOutput.o
 .bss           0x00000000        0x0 ..\obj\PWMOutput.o
 .text          0x00000000        0x0 ..\obj\sem.o
 .data          0x00000000        0x0 ..\obj\sem.o
 .bss           0x00000000        0x0 ..\obj\sem.o
 .text.CoCreateSem
                0x00000000       0x6c ..\obj\sem.o
 .text.CoDelSem
                0x00000000       0x54 ..\obj\sem.o
 .text.CoAcceptSem
                0x00000000       0x80 ..\obj\sem.o
 .text.CoPendSem
                0x00000000      0x108 ..\obj\sem.o
 .text.isr_PostSem
                0x00000000       0x50 ..\obj\sem.o
 .text          0x00000000        0x0 ..\obj\hook.o
 .data          0x00000000        0x0 ..\obj\hook.o
 .bss           0x00000000        0x0 ..\obj\hook.o
 .text.CoIdleTask
                0x00000000        0xc ..\obj\hook.o
 .data          0x00000000        0x0 j:/cocenter/cooide/gcc/sourcery g++ lite/bin/../lib/gcc/arm-none-eabi/4.5.2/thumb2\libgcc.a(_arm_addsubsf3.o)
 .bss           0x00000000        0x0 j:/cocenter/cooide/gcc/sourcery g++ lite/bin/../lib/gcc/arm-none-eabi/4.5.2/thumb2\libgcc.a(_arm_addsubsf3.o)
 .data          0x00000000        0x0 j:/cocenter/cooide/gcc/sourcery g++ lite/bin/../lib/gcc/arm-none-eabi/4.5.2/thumb2\libgcc.a(_arm_muldivsf3.o)
 .bss           0x00000000        0x0 j:/cocenter/cooide/gcc/sourcery g++ lite/bin/../lib/gcc/arm-none-eabi/4.5.2/thumb2\libgcc.a(_arm_muldivsf3.o)
 .data          0x00000000        0x0 j:/cocenter/cooide/gcc/sourcery g++ lite/bin/../lib/gcc/arm-none-eabi/4.5.2/thumb2\libgcc.a(_arm_cmpsf2.o)
 .bss           0x00000000        0x0 j:/cocenter/cooide/gcc/sourcery g++ lite/bin/../lib/gcc/arm-none-eabi/4.5.2/thumb2\libgcc.a(_arm_cmpsf2.o)
 .data          0x00000000        0x0 j:/cocenter/cooide/gcc/sourcery g++ lite/bin/../lib/gcc/arm-none-eabi/4.5.2/thumb2\libgcc.a(_arm_fixunssfsi.o)
 .bss           0x00000000        0x0 j:/cocenter/cooide/gcc/sourcery g++ lite/bin/../lib/gcc/arm-none-eabi/4.5.2/thumb2\libgcc.a(_arm_fixunssfsi.o)
 .data          0x00000000        0x0 j:/cocenter/cooide/gcc/sourcery g++ lite/bin/../lib/gcc/arm-none-eabi/4.5.2/thumb2\libgcc.a(_fixunssfdi.o)
 .bss           0x00000000        0x0 j:/cocenter/cooide/gcc/sourcery g++ lite/bin/../lib/gcc/arm-none-eabi/4.5.2/thumb2\libgcc.a(_fixunssfdi.o)
 .data          0x00000000        0x0 j:/cocenter/cooide/gcc/sourcery g++ lite/bin/../lib/gcc/arm-none-eabi/4.5.2/thumb2\libgcc.a(_arm_addsubdf3.o)
 .bss           0x00000000        0x0 j:/cocenter/cooide/gcc/sourcery g++ lite/bin/../lib/gcc/arm-none-eabi/4.5.2/thumb2\libgcc.a(_arm_addsubdf3.o)
 .data          0x00000000        0x0 j:/cocenter/cooide/gcc/sourcery g++ lite/bin/../lib/gcc/arm-none-eabi/4.5.2/thumb2\libgcc.a(_arm_muldivdf3.o)
 .bss           0x00000000        0x0 j:/cocenter/cooide/gcc/sourcery g++ lite/bin/../lib/gcc/arm-none-eabi/4.5.2/thumb2\libgcc.a(_arm_muldivdf3.o)
 .data          0x00000000        0x0 j:/cocenter/cooide/gcc/sourcery g++ lite/bin/../lib/gcc/arm-none-eabi/4.5.2/thumb2\libgcc.a(_arm_fixunsdfsi.o)
 .bss           0x00000000        0x0 j:/cocenter/cooide/gcc/sourcery g++ lite/bin/../lib/gcc/arm-none-eabi/4.5.2/thumb2\libgcc.a(_arm_fixunsdfsi.o)

Memory Configuration

Name             Origin             Length             Attributes
rom              0x00000000         0x00080000         xr
ram              0x10000000         0x00008000         xrw
ram1             0x2007c000         0x00008000         xrw
*default*        0x00000000         0xffffffff

Linker script and memory map

                0x10008000                _eram = 0x10008000

.text           0x00000000     0x2dd4
 *(.isr_vector .isr_vector.*)
 .isr_vector    0x00000000       0xcc ..\obj\startup_LPC17xx.o
                0x00000000                g_pfnVectors
 *(.text .text.* .gnu.linkonce.t.*)
 .text.OsSchedUnlock
                0x000000cc       0x50 ..\obj\core.o
                0x000000cc                OsSchedUnlock
 .text.InsertTmrList
                0x0000011c      0x248 ..\obj\timer.o
 .text.RemoveTmrList
                0x00000364       0xec ..\obj\timer.o
 .text.TmrDispose
                0x00000450       0x7c ..\obj\timer.o
                0x00000450                TmrDispose
 .text.isr_TmrDispose
                0x000004cc       0x34 ..\obj\timer.o
                0x000004cc                isr_TmrDispose
 .text.LPC_PWM_PinCfg
                0x00000500      0x15c ..\obj\lpc_pwm.o
 .text.LPC_PWM_Channel
                0x0000065c      0x108 ..\obj\lpc_pwm.o
                0x0000065c                LPC_PWM_Channel
 .text.LPC_PWM_Init
                0x00000764       0x78 ..\obj\lpc_pwm.o
                0x00000764                LPC_PWM_Init
 .text.LPC_PWM_Period
                0x000007dc       0x80 ..\obj\lpc_pwm.o
                0x000007dc                LPC_PWM_Period
 .text.LPC_PWM_Width
                0x0000085c       0xec ..\obj\lpc_pwm.o
                0x0000085c                LPC_PWM_Width
 .text.LPC_PWM_usPeriod
                0x00000948       0x88 ..\obj\lpc_pwm.o
                0x00000948                LPC_PWM_usPeriod
 .text.LPC_PWM_usWidth
                0x000009d0      0x108 ..\obj\lpc_pwm.o
                0x000009d0                LPC_PWM_usWidth
 .text.LPC_PWM_Duty
                0x00000ad8      0x104 ..\obj\lpc_pwm.o
                0x00000ad8                LPC_PWM_Duty
 .text.LPC_PWM_Start
                0x00000bdc       0x6c ..\obj\lpc_pwm.o
                0x00000bdc                LPC_PWM_Start
 .text.LPC_PWM_Stop
                0x00000c48       0x64 ..\obj\lpc_pwm.o
                0x00000c48                LPC_PWM_Stop
 .text.SystemInit
                0x00000cac      0x180 ..\obj\system_LPC17xx.o
                0x00000cac                SystemInit
 .text.InsertToTCBRdyList
                0x00000e2c      0x108 ..\obj\task.o
                0x00000e2c                InsertToTCBRdyList
 .text.RemoveFromTCBRdyList
                0x00000f34       0x94 ..\obj\task.o
                0x00000f34                RemoveFromTCBRdyList
 .text.Schedule
                0x00000fc8      0x164 ..\obj\task.o
                0x00000fc8                Schedule
 .text.RespondSRQ
                0x0000112c      0x11c ..\obj\serviceReq.o
                0x0000112c                RespondSRQ
 .text.main     0x00001248        0xc ..\obj\main.o
                0x00001248                main
 .text.CoPostMail
                0x00001254       0x84 ..\obj\mbox.o
                0x00001254                CoPostMail
 .text.Default_Reset_Handler
                0x000012d8       0x68 ..\obj\startup_LPC17xx.o
                0x000012d8                Default_Reset_Handler
                0x000012d8                Reset_Handler
 .text.Default_Handler
                0x00001340        0x8 ..\obj\startup_LPC17xx.o
                0x00001340                TIMER2_IRQHandler
                0x00001340                DebugMon_Handler
                0x00001340                RIT_IRQHandler
                0x00001340                I2C0_IRQHandler
                0x00001340                HardFault_Handler
                0x00001340                USBActivity_IRQHandler
                0x00001340                PWM1_IRQHandler
                0x00001340                NMI_Handler
                0x00001340                I2C1_IRQHandler
                0x00001340                EINT2_IRQHandler
                0x00001340                UART1_IRQHandler
                0x00001340                EINT3_IRQHandler
                0x00001340                CANActivity_IRQHandler
                0x00001340                TIMER3_IRQHandler
                0x00001340                UART0_IRQHandler
                0x00001340                UsageFault_Handler
                0x00001340                PLL0_IRQHandler
                0x00001340                CAN_IRQHandler
                0x00001340                PLL1_IRQHandler
                0x00001340                SSP0_IRQHandler
                0x00001340                I2S_IRQHandler
                0x00001340                I2C2_IRQHandler
                0x00001340                RTC_IRQHandler
                0x00001340                TIMER0_IRQHandler
                0x00001340                SPI_IRQHandler
                0x00001340                EINT1_IRQHandler
                0x00001340                TIMER1_IRQHandler
                0x00001340                UART2_IRQHandler
                0x00001340                ADC_IRQHandler
                0x00001340                SSP1_IRQHandler
                0x00001340                USB_IRQHandler
                0x00001340                BOD_IRQHandler
                0x00001340                MemManage_Handler
                0x00001340                WDT_IRQHandler
                0x00001340                SVC_Handler
                0x00001340                QEI_IRQHandler
                0x00001340                EINT0_IRQHandler
                0x00001340                DMA_IRQHandler
                0x00001340                BusFault_Handler
                0x00001340                UART3_IRQHandler
                0x00001340                MCPWM_IRQHandler
                0x00001340                ENET_IRQHandler
 .text.RemoveDelayList
                0x00001348       0xc0 ..\obj\time.o
                0x00001348                RemoveDelayList
 .text.TimeDispose
                0x00001408       0x7c ..\obj\time.o
                0x00001408                TimeDispose
 .text.isr_TimeDispose
                0x00001484       0x34 ..\obj\time.o
                0x00001484                isr_TimeDispose
 .text.EventTaskToRdy
                0x000014b8      0x128 ..\obj\event.o
                0x000014b8                EventTaskToRdy
 .text.RemoveEventWaittingList
                0x000015e0       0xac ..\obj\event.o
                0x000015e0                RemoveEventWaittingList
 .text.IRQ_ENABLE_RESTORE
                0x0000168c        0xc ..\obj\port.o
                0x0000168c                IRQ_ENABLE_RESTORE
 .text.IRQ_DISABLE_SAVE
                0x00001698        0xc ..\obj\port.o
                0x00001698                IRQ_DISABLE_SAVE
 .text.SwitchContext
                0x000016a4       0x14 ..\obj\port.o
                0x000016a4                SwitchContext
 .text.PendSV_Handler
                0x000016b8       0x3c ..\obj\port.o
                0x000016b8                PendSV_Handler
 .text.CoPostQueueMail
                0x000016f4       0xc4 ..\obj\queue.o
                0x000016f4                CoPostQueueMail
 .text.CoSetFlag
                0x000017b8      0x118 ..\obj\flag.o
                0x000017b8                CoSetFlag
 .text.RemoveFromLink
                0x000018d0       0x58 ..\obj\flag.o
 .text.RemoveLinkNode
                0x00001928       0x90 ..\obj\flag.o
                0x00001928                RemoveLinkNode
 .text.LPC_PCLK_Cmd
                0x000019b8       0x4c ..\obj\lpc_lowlayer.o
                0x000019b8                LPC_PCLK_Cmd
 .text.LPC_Pin_Func
                0x00001a04       0xc0 ..\obj\lpc_lowlayer.o
                0x00001a04                LPC_Pin_Func
 .text.LPC_Pin_Mode
                0x00001ac4       0xc0 ..\obj\lpc_lowlayer.o
                0x00001ac4                LPC_Pin_Mode
 .text.LPC_Pin_OD
                0x00001b84       0x9c ..\obj\lpc_lowlayer.o
                0x00001b84                LPC_Pin_OD
 .text.LPC_PCLK_Div
                0x00001c20       0x8c ..\obj\lpc_lowlayer.o
                0x00001c20                LPC_PCLK_Div
 .text.LPC_PCLK_Set
                0x00001cac       0xf8 ..\obj\lpc_lowlayer.o
                0x00001cac                LPC_PCLK_Set
 .text.LPC_PCLK
                0x00001da4       0x24 ..\obj\lpc_lowlayer.o
                0x00001da4                LPC_PCLK
 .text.LPC_CCLK
                0x00001dc8       0x14 ..\obj\lpc_lowlayer.o
                0x00001dc8                LPC_CCLK
 .text.SysTick_Handler
                0x00001ddc       0xac ..\obj\arch.o
                0x00001ddc                SysTick_Handler
 .text.pwm_test
                0x00001e88       0x94 ..\obj\PWMOutput.o
                0x00001e88                pwm_test
 .text.CoPostSem
                0x00001f1c       0x88 ..\obj\sem.o
                0x00001f1c                CoPostSem
 .text.CoStkOverflowHook
                0x00001fa4        0xc ..\obj\hook.o
                0x00001fa4                CoStkOverflowHook
 .text          0x00001fb0      0x21c j:/cocenter/cooide/gcc/sourcery g++ lite/bin/../lib/gcc/arm-none-eabi/4.5.2/thumb2\libgcc.a(_arm_addsubsf3.o)
                0x00001fb0                __aeabi_frsub
                0x00001fb8                __subsf3
                0x00001fb8                __aeabi_fsub
                0x00001fbc                __aeabi_fadd
                0x00001fbc                __addsf3
                0x0000211c                __aeabi_ui2f
                0x0000211c                __floatunsisf
                0x00002124                __aeabi_i2f
                0x00002124                __floatsisf
                0x00002140                __aeabi_ul2f
                0x00002140                __floatundisf
                0x00002150                __aeabi_l2f
                0x00002150                __floatdisf
 .text          0x000021cc      0x2a0 j:/cocenter/cooide/gcc/sourcery g++ lite/bin/../lib/gcc/arm-none-eabi/4.5.2/thumb2\libgcc.a(_arm_muldivsf3.o)
                0x000021cc                __mulsf3
                0x000021cc                __aeabi_fmul
                0x00002334                __aeabi_fdiv
                0x00002334                __divsf3
 .text          0x0000246c       0xec j:/cocenter/cooide/gcc/sourcery g++ lite/bin/../lib/gcc/arm-none-eabi/4.5.2/thumb2\libgcc.a(_arm_cmpsf2.o)
                0x0000246c                __gesf2
                0x0000246c                __gtsf2
                0x00002474                __lesf2
                0x00002474                __ltsf2
                0x0000247c                __nesf2
                0x0000247c                __eqsf2
                0x0000247c                __cmpsf2
                0x000024dc                __aeabi_cfrcmple
                0x000024e4                __aeabi_cfcmpeq
                0x000024e4                __aeabi_cfcmple
                0x000024f4                __aeabi_fcmpeq
                0x00002508                __aeabi_fcmplt
                0x0000251c                __aeabi_fcmple
                0x00002530                __aeabi_fcmpge
                0x00002544                __aeabi_fcmpgt
 .text          0x00002558       0x40 j:/cocenter/cooide/gcc/sourcery g++ lite/bin/../lib/gcc/arm-none-eabi/4.5.2/thumb2\libgcc.a(_arm_fixunssfsi.o)
                0x00002558                __fixunssfsi
                0x00002558                __aeabi_f2uiz
 .text          0x00002598       0x48 j:/cocenter/cooide/gcc/sourcery g++ lite/bin/../lib/gcc/arm-none-eabi/4.5.2/thumb2\libgcc.a(_fixunssfdi.o)
                0x00002598                __fixunssfdi
                0x00002598                __aeabi_f2ulz
 .text          0x000025e0      0x370 j:/cocenter/cooide/gcc/sourcery g++ lite/bin/../lib/gcc/arm-none-eabi/4.5.2/thumb2\libgcc.a(_arm_addsubdf3.o)
                0x000025e0                __aeabi_drsub
                0x000025e8                __aeabi_dsub
                0x000025e8                __subdf3
                0x000025ec                __aeabi_dadd
                0x000025ec                __adddf3
                0x00002864                __floatunsidf
                0x00002864                __aeabi_ui2d
                0x00002884                __floatsidf
                0x00002884                __aeabi_i2d
                0x000028a8                __aeabi_f2d
                0x000028a8                __extendsfdf2
                0x000028e4                __floatundidf
                0x000028e4                __aeabi_ul2d
                0x000028f4                __floatdidf
                0x000028f4                __aeabi_l2d
 .text          0x00002950      0x424 j:/cocenter/cooide/gcc/sourcery g++ lite/bin/../lib/gcc/arm-none-eabi/4.5.2/thumb2\libgcc.a(_arm_muldivdf3.o)
                0x00002950                __aeabi_dmul
                0x00002950                __muldf3
                0x00002ba4                __divdf3
                0x00002ba4                __aeabi_ddiv
 .text          0x00002d74       0x40 j:/cocenter/cooide/gcc/sourcery g++ lite/bin/../lib/gcc/arm-none-eabi/4.5.2/thumb2\libgcc.a(_arm_fixunsdfsi.o)
                0x00002d74                __aeabi_d2uiz
                0x00002d74                __fixunsdfsi
 *(.glue_7t)
 .glue_7t       0x00000000        0x0 linker stubs
 *(.glue_7)
 .glue_7        0x00000000        0x0 linker stubs
 *(.rodata .rodata* .gnu.linkonce.r.*)
 .rodata        0x00002db4       0x20 ..\obj\lpc_pwm.o
                0x00002db4                pi_pwm

.vfp11_veneer   0x00002dd4        0x0
 .vfp11_veneer  0x00000000        0x0 linker stubs

.v4_bx          0x00002dd4        0x0
 .v4_bx         0x00000000        0x0 linker stubs

.ARM.extab
 *(.ARM.extab* .gnu.linkonce.armextab.*)

.ARM.exidx
 *(.ARM.exidx* .gnu.linkonce.armexidx.*)
                0x00002dd4                . = ALIGN (0x4)
                0x00002dd4                _etext = .
                0x00002dd4                _sidata = .

.data           0x10000000       0x10 load address 0x00002dd4
                0x10000000                _sdata = .
 *(.data .data.*)
 .data          0x10000000        0x4 ..\obj\system_LPC17xx.o
                0x10000000                SystemCoreClock
 .data          0x10000004        0xc ..\obj\port.o
                0x10000004                NVIC_INT_CTRL
                0x10000008                NVIC_PENDSVSET
                0x1000000c                INT_EXIT
                0x10000010                . = ALIGN (0x4)
                0x10000010                _edata = .

.bss            0x10000010      0x360 load address 0x00002de4
                0x10000010                _sbss = .
 *(.bss .bss.*)
 .bss           0x10000010        0x3 ..\obj\core.o
                0x10000010                OSIntNesting
                0x10000011                OSSchedLock
                0x10000012                TaskSchedReq
 *fill*         0x10000013        0x1 00
 .bss           0x10000014       0x38 ..\obj\timer.o
                0x10000014                TmrTbl
                0x10000044                TmrList
                0x10000048                TmrIDVessel
 *fill*         0x1000004c        0x4 00
 .bss           0x10000050      0x188 ..\obj\task.o
                0x10000050                TCBTbl
                0x10000158                idle_stk
                0x100001bc                FreeTCB
                0x100001c0                TCBRdy
                0x100001c4                TCBNext
                0x100001c8                TCBRunning
                0x100001d0                OSCheckTime
 .bss           0x100001d8       0x30 ..\obj\serviceReq.o
                0x100001d8                ServiceReq
                0x10000204                IsrReq
                0x10000205                TimeReq
                0x10000206                TimerReq
 .bss           0x10000208        0x4 ..\obj\time.o
                0x10000208                DlyList
 .bss           0x1000020c      0x144 ..\obj\event.o
                0x1000020c                EventTbl
                0x1000034c                FreeEventList
 .bss           0x10000350       0x14 ..\obj\flag.o
                0x10000350                FlagCrl
 *fill*         0x10000364        0x4 00
 .bss           0x10000368        0x8 ..\obj\arch.o
                0x10000368                OSTickCnt
 *(COMMON)
                0x10000370                . = ALIGN (0x4)
                0x10000370                _ebss = .

.co_stack       0x10000370      0x400 load address 0x00003144
                0x10000370                . = ALIGN (0x8)
 *(.co_stack .co_stack.*)
 .co_stack      0x10000370      0x400 ..\obj\startup_LPC17xx.o
                0x10000370                pulStack
                0x10000770                . = ALIGN (0x4)
                0x10000770                _end = .
LOAD ..\obj\kernelHeap.o
LOAD ..\obj\core.o
LOAD ..\obj\core_cm3.o
LOAD ..\obj\timer.o
LOAD ..\obj\utility.o
LOAD ..\obj\lpc_pwm.o
LOAD ..\obj\system_LPC17xx.o
LOAD ..\obj\task.o
LOAD ..\obj\serviceReq.o
LOAD ..\obj\main.o
LOAD ..\obj\mbox.o
LOAD ..\obj\mm.o
LOAD ..\obj\startup_LPC17xx.o
LOAD ..\obj\time.o
LOAD ..\obj\event.o
LOAD ..\obj\port.o
LOAD ..\obj\queue.o
LOAD ..\obj\mutex.o
LOAD ..\obj\flag.o
LOAD ..\obj\lpc_lowlayer.o
LOAD ..\obj\arch.o
LOAD ..\obj\PWMOutput.o
LOAD ..\obj\sem.o
LOAD ..\obj\hook.o
START GROUP
LOAD j:/cocenter/cooide/gcc/sourcery g++ lite/bin/../lib/gcc/arm-none-eabi/4.5.2/thumb2\libgcc.a
LOAD j:/cocenter/cooide/gcc/sourcery g++ lite/bin/../lib/gcc/arm-none-eabi/4.5.2/../../../../arm-none-eabi/lib/thumb2\libc.a
END GROUP
OUTPUT(TES.elf elf32-littlearm)

.debug_abbrev   0x00000000     0x1b7c
 .debug_abbrev  0x00000000      0x147 ..\obj\kernelHeap.o
 .debug_abbrev  0x00000147       0xdb ..\obj\core.o
 .debug_abbrev  0x00000222       0xd7 ..\obj\core_cm3.o
 .debug_abbrev  0x000002f9      0x16d ..\obj\timer.o
 .debug_abbrev  0x00000466       0xac ..\obj\utility.o
 .debug_abbrev  0x00000512      0x1c3 ..\obj\lpc_pwm.o
 .debug_abbrev  0x000006d5       0xd9 ..\obj\system_LPC17xx.o
 .debug_abbrev  0x000007ae      0x1c7 ..\obj\task.o
 .debug_abbrev  0x00000975      0x123 ..\obj\serviceReq.o
 .debug_abbrev  0x00000a98       0x38 ..\obj\main.o
 .debug_abbrev  0x00000ad0      0x15d ..\obj\mbox.o
 .debug_abbrev  0x00000c2d      0x104 ..\obj\mm.o
 .debug_abbrev  0x00000d31       0xa5 ..\obj\startup_LPC17xx.o
 .debug_abbrev  0x00000dd6      0x186 ..\obj\time.o
 .debug_abbrev  0x00000f5c      0x198 ..\obj\event.o
 .debug_abbrev  0x000010f4       0xf4 ..\obj\port.o
 .debug_abbrev  0x000011e8      0x17d ..\obj\queue.o
 .debug_abbrev  0x00001365      0x15d ..\obj\mutex.o
 .debug_abbrev  0x000014c2      0x18a ..\obj\flag.o
 .debug_abbrev  0x0000164c      0x18d ..\obj\lpc_lowlayer.o
 .debug_abbrev  0x000017d9      0x10f ..\obj\arch.o
 .debug_abbrev  0x000018e8       0xcd ..\obj\PWMOutput.o
 .debug_abbrev  0x000019b5      0x13f ..\obj\sem.o
 .debug_abbrev  0x00001af4       0x88 ..\obj\hook.o

.debug_info     0x00000000     0x5fa2
 .debug_info    0x00000000      0x32a ..\obj\kernelHeap.o
 .debug_info    0x0000032a      0x37c ..\obj\core.o
 .debug_info    0x000006a6      0x54c ..\obj\core_cm3.o
 .debug_info    0x00000bf2      0x44c ..\obj\timer.o
 .debug_info    0x0000103e      0x171 ..\obj\utility.o
 .debug_info    0x000011af      0x632 ..\obj\lpc_pwm.o
 .debug_info    0x000017e1      0x4fd ..\obj\system_LPC17xx.o
 .debug_info    0x00001cde      0x7ed ..\obj\task.o
 .debug_info    0x000024cb      0x232 ..\obj\serviceReq.o
 .debug_info    0x000026fd       0x4a ..\obj\main.o
 .debug_info    0x00002747      0x48f ..\obj\mbox.o
 .debug_info    0x00002bd6      0x34c ..\obj\mm.o
 .debug_info    0x00002f22      0x135 ..\obj\startup_LPC17xx.o
 .debug_info    0x00003057      0x497 ..\obj\time.o
 .debug_info    0x000034ee      0x543 ..\obj\event.o
 .debug_info    0x00003a31      0x1b4 ..\obj\port.o
 .debug_info    0x00003be5      0x5d1 ..\obj\queue.o
 .debug_info    0x000041b6      0x532 ..\obj\mutex.o
 .debug_info    0x000046e8      0x6e4 ..\obj\flag.o
 .debug_info    0x00004dcc      0x776 ..\obj\lpc_lowlayer.o
 .debug_info    0x00005542      0x381 ..\obj\arch.o
 .debug_info    0x000058c3      0x1cb ..\obj\PWMOutput.o
 .debug_info    0x00005a8e      0x44f ..\obj\sem.o
 .debug_info    0x00005edd       0xc5 ..\obj\hook.o

.debug_line     0x00000000     0x34e5
 .debug_line    0x00000000      0x284 ..\obj\kernelHeap.o
 .debug_line    0x00000284      0x1f6 ..\obj\core.o
 .debug_line    0x0000047a      0x2dc ..\obj\core_cm3.o
 .debug_line    0x00000756      0x2bc ..\obj\timer.o
 .debug_line    0x00000a12      0x18c ..\obj\utility.o
 .debug_line    0x00000b9e      0x425 ..\obj\lpc_pwm.o
 .debug_line    0x00000fc3      0x248 ..\obj\system_LPC17xx.o
 .debug_line    0x0000120b      0x376 ..\obj\task.o
 .debug_line    0x00001581      0x1b0 ..\obj\serviceReq.o
 .debug_line    0x00001731       0x5b ..\obj\main.o
 .debug_line    0x0000178c      0x20e ..\obj\mbox.o
 .debug_line    0x0000199a      0x225 ..\obj\mm.o
 .debug_line    0x00001bbf       0x99 ..\obj\startup_LPC17xx.o
 .debug_line    0x00001c58      0x270 ..\obj\time.o
 .debug_line    0x00001ec8      0x285 ..\obj\event.o
 .debug_line    0x0000214d      0x20e ..\obj\port.o
 .debug_line    0x0000235b      0x244 ..\obj\queue.o
 .debug_line    0x0000259f      0x22f ..\obj\mutex.o
 .debug_line    0x000027ce      0x33e ..\obj\flag.o
 .debug_line    0x00002b0c      0x2fb ..\obj\lpc_lowlayer.o
 .debug_line    0x00002e07      0x188 ..\obj\arch.o
 .debug_line    0x00002f8f      0x1d6 ..\obj\PWMOutput.o
 .debug_line    0x00003165      0x206 ..\obj\sem.o
 .debug_line    0x0000336b      0x17a ..\obj\hook.o

.debug_macinfo  0x00000000    0x51175
 .debug_macinfo
                0x00000000     0x2e73 ..\obj\kernelHeap.o
 .debug_macinfo
                0x00002e73     0x2e73 ..\obj\core.o
 .debug_macinfo
                0x00005ce6     0x2aba ..\obj\core_cm3.o
 .debug_macinfo
                0x000087a0     0x2e73 ..\obj\timer.o
 .debug_macinfo
                0x0000b613     0x2e73 ..\obj\utility.o
 .debug_macinfo
                0x0000e486     0x791a ..\obj\lpc_pwm.o
 .debug_macinfo
                0x00015da0     0x725b ..\obj\system_LPC17xx.o
 .debug_macinfo
                0x0001cffb     0x2e8e ..\obj\task.o
 .debug_macinfo
                0x0001fe89     0x2e73 ..\obj\serviceReq.o
 .debug_macinfo
                0x00022cfc     0x21c4 ..\obj\main.o
 .debug_macinfo
                0x00024ec0     0x2e73 ..\obj\mbox.o
 .debug_macinfo
                0x00027d33     0x2e73 ..\obj\mm.o
 .debug_macinfo
                0x0002aba6     0x21fa ..\obj\startup_LPC17xx.o
 .debug_macinfo
                0x0002cda0     0x2e73 ..\obj\time.o
 .debug_macinfo
                0x0002fc13     0x2e73 ..\obj\event.o
 .debug_macinfo
                0x00032a86     0x2e73 ..\obj\port.o
 .debug_macinfo
                0x000358f9     0x2e73 ..\obj\queue.o
 .debug_macinfo
                0x0003876c     0x2e73 ..\obj\mutex.o
 .debug_macinfo
                0x0003b5df     0x2e85 ..\obj\flag.o
 .debug_macinfo
                0x0003e464     0x73a7 ..\obj\lpc_lowlayer.o
 .debug_macinfo
                0x0004580b     0x2e73 ..\obj\arch.o
 .debug_macinfo
                0x0004867e     0x2e11 ..\obj\PWMOutput.o
 .debug_macinfo
                0x0004b48f     0x2e73 ..\obj\sem.o
 .debug_macinfo
                0x0004e302     0x2e73 ..\obj\hook.o

.debug_loc      0x00000000     0x1e34
 .debug_loc     0x00000000       0xd4 ..\obj\kernelHeap.o
 .debug_loc     0x000000d4      0x160 ..\obj\core.o
 .debug_loc     0x00000234      0x3f0 ..\obj\core_cm3.o
 .debug_loc     0x00000624      0x224 ..\obj\timer.o
 .debug_loc     0x00000848       0x70 ..\obj\utility.o
 .debug_loc     0x000008b8      0x224 ..\obj\lpc_pwm.o
 .debug_loc     0x00000adc       0x58 ..\obj\system_LPC17xx.o
 .debug_loc     0x00000b34      0x288 ..\obj\task.o
 .debug_loc     0x00000dbc       0x70 ..\obj\serviceReq.o
 .debug_loc     0x00000e2c       0x2c ..\obj\main.o
 .debug_loc     0x00000e58      0x150 ..\obj\mbox.o
 .debug_loc     0x00000fa8      0x118 ..\obj\mm.o
 .debug_loc     0x000010c0       0x64 ..\obj\startup_LPC17xx.o
 .debug_loc     0x00001124      0x1a8 ..\obj\time.o
 .debug_loc     0x000012cc      0x188 ..\obj\event.o
 .debug_loc     0x00001454       0xc8 ..\obj\port.o
 .debug_loc     0x0000151c      0x150 ..\obj\queue.o
 .debug_loc     0x0000166c       0xe0 ..\obj\mutex.o
 .debug_loc     0x0000174c      0x2a0 ..\obj\flag.o
 .debug_loc     0x000019ec      0x1ec ..\obj\lpc_lowlayer.o
 .debug_loc     0x00001bd8       0x64 ..\obj\arch.o
 .debug_loc     0x00001c3c       0x38 ..\obj\PWMOutput.o
 .debug_loc     0x00001c74      0x150 ..\obj\sem.o
 .debug_loc     0x00001dc4       0x70 ..\obj\hook.o

.debug_pubnames
                0x00000000      0xd5c
 .debug_pubnames
                0x00000000       0x63 ..\obj\kernelHeap.o
 .debug_pubnames
                0x00000063       0xc3 ..\obj\core.o
 .debug_pubnames
                0x00000126      0x159 ..\obj\core_cm3.o
 .debug_pubnames
                0x0000027f       0xb8 ..\obj\timer.o
 .debug_pubnames
                0x00000337       0x34 ..\obj\utility.o
 .debug_pubnames
                0x0000036b       0xc4 ..\obj\lpc_pwm.o
 .debug_pubnames
                0x0000042f       0x4f ..\obj\system_LPC17xx.o
 .debug_pubnames
                0x0000047e      0x12e ..\obj\task.o
 .debug_pubnames
                0x000005ac       0x64 ..\obj\serviceReq.o
 .debug_pubnames
                0x00000610       0x1b ..\obj\main.o
 .debug_pubnames
                0x0000062b       0x71 ..\obj\mbox.o
 .debug_pubnames
                0x0000069c       0xa8 ..\obj\mm.o
 .debug_pubnames
                0x00000744       0x4a ..\obj\startup_LPC17xx.o
 .debug_pubnames
                0x0000078e       0xb3 ..\obj\time.o
 .debug_pubnames
                0x00000841       0xa7 ..\obj\event.o
 .debug_pubnames
                0x000008e8       0xba ..\obj\port.o
 .debug_pubnames
                0x000009a2       0xa6 ..\obj\queue.o
 .debug_pubnames
                0x00000a48       0x85 ..\obj\mutex.o
 .debug_pubnames
                0x00000acd       0xe2 ..\obj\flag.o
 .debug_pubnames
                0x00000baf       0xa4 ..\obj\lpc_lowlayer.o
 .debug_pubnames
                0x00000c53       0x48 ..\obj\arch.o
 .debug_pubnames
                0x00000c9b       0x1f ..\obj\PWMOutput.o
 .debug_pubnames
                0x00000cba       0x6b ..\obj\sem.o
 .debug_pubnames
                0x00000d25       0x37 ..\obj\hook.o

.debug_pubtypes
                0x00000000      0xb21
 .debug_pubtypes
                0x00000000       0x6c ..\obj\kernelHeap.o
 .debug_pubtypes
                0x0000006c       0x8f ..\obj\core.o
 .debug_pubtypes
                0x000000fb       0x50 ..\obj\core_cm3.o
 .debug_pubtypes
                0x0000014b       0x80 ..\obj\timer.o
 .debug_pubtypes
                0x000001cb       0x38 ..\obj\utility.o
 .debug_pubtypes
                0x00000203       0x64 ..\obj\lpc_pwm.o
 .debug_pubtypes
                0x00000267       0x4b ..\obj\system_LPC17xx.o
 .debug_pubtypes
                0x000002b2       0xe9 ..\obj\task.o
 .debug_pubtypes
                0x0000039b       0x63 ..\obj\serviceReq.o
 .debug_pubtypes
                0x000003fe       0xa2 ..\obj\mbox.o
 .debug_pubtypes
                0x000004a0       0x74 ..\obj\mm.o
 .debug_pubtypes
                0x00000514       0xa3 ..\obj\time.o
 .debug_pubtypes
                0x000005b7       0xbf ..\obj\event.o
 .debug_pubtypes
                0x00000676       0x2c ..\obj\port.o
 .debug_pubtypes
                0x000006a2       0xbe ..\obj\queue.o
 .debug_pubtypes
                0x00000760       0xd5 ..\obj\mutex.o
 .debug_pubtypes
                0x00000835       0xdd ..\obj\flag.o
 .debug_pubtypes
                0x00000912       0x4d ..\obj\lpc_lowlayer.o
 .debug_pubtypes
                0x0000095f       0xc1 ..\obj\arch.o
 .debug_pubtypes
                0x00000a20       0x3b ..\obj\PWMOutput.o
 .debug_pubtypes
                0x00000a5b       0xa2 ..\obj\sem.o
 .debug_pubtypes
                0x00000afd       0x24 ..\obj\hook.o

.debug_aranges  0x00000000      0x6f0
 .debug_aranges
                0x00000000       0x38 ..\obj\kernelHeap.o
 .debug_aranges
                0x00000038       0x58 ..\obj\core.o
 .debug_aranges
                0x00000090       0xc8 ..\obj\core_cm3.o
 .debug_aranges
                0x00000158       0x68 ..\obj\timer.o
 .debug_aranges
                0x000001c0       0x28 ..\obj\utility.o
 .debug_aranges
                0x000001e8       0x68 ..\obj\lpc_pwm.o
 .debug_aranges
                0x00000250       0x28 ..\obj\system_LPC17xx.o
 .debug_aranges
                0x00000278       0x78 ..\obj\task.o
 .debug_aranges
                0x000002f0       0x28 ..\obj\serviceReq.o
 .debug_aranges
                0x00000318       0x20 ..\obj\main.o
 .debug_aranges
                0x00000338       0x48 ..\obj\mbox.o
 .debug_aranges
                0x00000380       0x40 ..\obj\mm.o
 .debug_aranges
                0x000003c0       0x28 ..\obj\startup_LPC17xx.o
 .debug_aranges
                0x000003e8       0x58 ..\obj\time.o
 .debug_aranges
                0x00000440       0x50 ..\obj\event.o
 .debug_aranges
                0x00000490       0x50 ..\obj\port.o
 .debug_aranges
                0x000004e0       0x48 ..\obj\queue.o
 .debug_aranges
                0x00000528       0x38 ..\obj\mutex.o
 .debug_aranges
                0x00000560       0x78 ..\obj\flag.o
 .debug_aranges
                0x000005d8       0x60 ..\obj\lpc_lowlayer.o
 .debug_aranges
                0x00000638       0x28 ..\obj\arch.o
 .debug_aranges
                0x00000660       0x20 ..\obj\PWMOutput.o
 .debug_aranges
                0x00000680       0x48 ..\obj\sem.o
 .debug_aranges
                0x000006c8       0x28 ..\obj\hook.o

.debug_ranges   0x00000000      0x570
 .debug_ranges  0x00000000       0x28 ..\obj\kernelHeap.o
 .debug_ranges  0x00000028       0x48 ..\obj\core.o
 .debug_ranges  0x00000070       0xb8 ..\obj\core_cm3.o
 .debug_ranges  0x00000128       0x58 ..\obj\timer.o
 .debug_ranges  0x00000180       0x18 ..\obj\utility.o
 .debug_ranges  0x00000198       0x58 ..\obj\lpc_pwm.o
 .debug_ranges  0x000001f0       0x18 ..\obj\system_LPC17xx.o
 .debug_ranges  0x00000208       0x68 ..\obj\task.o
 .debug_ranges  0x00000270       0x18 ..\obj\serviceReq.o
 .debug_ranges  0x00000288       0x10 ..\obj\main.o
 .debug_ranges  0x00000298       0x38 ..\obj\mbox.o
 .debug_ranges  0x000002d0       0x30 ..\obj\mm.o
 .debug_ranges  0x00000300       0x18 ..\obj\startup_LPC17xx.o
 .debug_ranges  0x00000318       0x48 ..\obj\time.o
 .debug_ranges  0x00000360       0x40 ..\obj\event.o
 .debug_ranges  0x000003a0       0x40 ..\obj\port.o
 .debug_ranges  0x000003e0       0x38 ..\obj\queue.o
 .debug_ranges  0x00000418       0x28 ..\obj\mutex.o
 .debug_ranges  0x00000440       0x68 ..\obj\flag.o
 .debug_ranges  0x000004a8       0x50 ..\obj\lpc_lowlayer.o
 .debug_ranges  0x000004f8       0x18 ..\obj\arch.o
 .debug_ranges  0x00000510       0x10 ..\obj\PWMOutput.o
 .debug_ranges  0x00000520       0x38 ..\obj\sem.o
 .debug_ranges  0x00000558       0x18 ..\obj\hook.o

.debug_str      0x00000000     0x1797
 .debug_str     0x00000000      0x199 ..\obj\kernelHeap.o
                                0x1b8 (size before relaxing)
 .debug_str     0x00000199      0x180 ..\obj\core.o
                                0x207 (size before relaxing)
 .debug_str     0x00000319      0x185 ..\obj\core_cm3.o
                                0x225 (size before relaxing)
 .debug_str     0x0000049e      0x143 ..\obj\timer.o
                                0x1f5 (size before relaxing)
 .debug_str     0x000005e1       0x75 ..\obj\utility.o
                                 0xf5 (size before relaxing)
 .debug_str     0x00000656      0x154 ..\obj\lpc_pwm.o
                                0x23c (size before relaxing)
 .debug_str     0x000007aa      0x1f2 ..\obj\system_LPC17xx.o
                                0x2b4 (size before relaxing)
 .debug_str     0x0000099c      0x221 ..\obj\task.o
                                0x3a6 (size before relaxing)
 .debug_str     0x00000bbd       0x9e ..\obj\serviceReq.o
                                0x12d (size before relaxing)
 .debug_str     0x00000c5b       0x2d ..\obj\main.o
                                 0x39 (size before relaxing)
 .debug_str     0x00000c88       0x93 ..\obj\mbox.o
                                0x248 (size before relaxing)
 .debug_str     0x00000d1b      0x11c ..\obj\mm.o
                                0x1bc (size before relaxing)
 .debug_str     0x00000e37       0xa7 ..\obj\startup_LPC17xx.o
                                 0xd2 (size before relaxing)
 .debug_str     0x00000ede       0xb5 ..\obj\time.o
                                0x264 (size before relaxing)
 .debug_str     0x00000f93       0xde ..\obj\event.o
                                0x2af (size before relaxing)
 .debug_str     0x00001071       0xbf ..\obj\port.o
                                0x147 (size before relaxing)
 .debug_str     0x00001130       0xa9 ..\obj\queue.o
                                0x2ac (size before relaxing)
 .debug_str     0x000011d9       0x87 ..\obj\mutex.o
                                0x2b7 (size before relaxing)
 .debug_str     0x00001260      0x1aa ..\obj\flag.o
                                0x325 (size before relaxing)
 .debug_str     0x0000140a      0x211 ..\obj\lpc_lowlayer.o
                                0x3fc (size before relaxing)
 .debug_str     0x0000161b       0x64 ..\obj\arch.o
                                0x227 (size before relaxing)
 .debug_str     0x0000167f       0x3e ..\obj\PWMOutput.o
                                0x141 (size before relaxing)
 .debug_str     0x000016bd       0x83 ..\obj\sem.o
                                0x24b (size before relaxing)
 .debug_str     0x00001740       0x57 ..\obj\hook.o
                                 0xda (size before relaxing)

.comment        0x00000000       0x2a
 .comment       0x00000000       0x2a ..\obj\kernelHeap.o
                                 0x2b (size before relaxing)
 .comment       0x00000000       0x2b ..\obj\core.o
 .comment       0x00000000       0x2b ..\obj\core_cm3.o
 .comment       0x00000000       0x2b ..\obj\timer.o
 .comment       0x00000000       0x2b ..\obj\utility.o
 .comment       0x00000000       0x2b ..\obj\lpc_pwm.o
 .comment       0x00000000       0x2b ..\obj\system_LPC17xx.o
 .comment       0x00000000       0x2b ..\obj\task.o
 .comment       0x00000000       0x2b ..\obj\serviceReq.o
 .comment       0x00000000       0x2b ..\obj\main.o
 .comment       0x00000000       0x2b ..\obj\mbox.o
 .comment       0x00000000       0x2b ..\obj\mm.o
 .comment       0x00000000       0x2b ..\obj\startup_LPC17xx.o
 .comment       0x00000000       0x2b ..\obj\time.o
 .comment       0x00000000       0x2b ..\obj\event.o
 .comment       0x00000000       0x2b ..\obj\port.o
 .comment       0x00000000       0x2b ..\obj\queue.o
 .comment       0x00000000       0x2b ..\obj\mutex.o
 .comment       0x00000000       0x2b ..\obj\flag.o
 .comment       0x00000000       0x2b ..\obj\lpc_lowlayer.o
 .comment       0x00000000       0x2b ..\obj\arch.o
 .comment       0x00000000       0x2b ..\obj\PWMOutput.o
 .comment       0x00000000       0x2b ..\obj\sem.o
 .comment       0x00000000       0x2b ..\obj\hook.o

.ARM.attributes
                0x00000000       0x31
 .ARM.attributes
                0x00000000       0x31 ..\obj\kernelHeap.o
 .ARM.attributes
                0x00000031       0x31 ..\obj\core.o
 .ARM.attributes
                0x00000062       0x31 ..\obj\core_cm3.o
 .ARM.attributes
                0x00000093       0x31 ..\obj\timer.o
 .ARM.attributes
                0x000000c4       0x31 ..\obj\utility.o
 .ARM.attributes
                0x000000f5       0x31 ..\obj\lpc_pwm.o
 .ARM.attributes
                0x00000126       0x31 ..\obj\system_LPC17xx.o
 .ARM.attributes
                0x00000157       0x31 ..\obj\task.o
 .ARM.attributes
                0x00000188       0x31 ..\obj\serviceReq.o
 .ARM.attributes
                0x000001b9       0x31 ..\obj\main.o
 .ARM.attributes
                0x000001ea       0x31 ..\obj\mbox.o
 .ARM.attributes
                0x0000021b       0x31 ..\obj\mm.o
 .ARM.attributes
                0x0000024c       0x31 ..\obj\startup_LPC17xx.o
 .ARM.attributes
                0x0000027d       0x31 ..\obj\time.o
 .ARM.attributes
                0x000002ae       0x31 ..\obj\event.o
 .ARM.attributes
                0x000002df       0x31 ..\obj\port.o
 .ARM.attributes
                0x00000310       0x31 ..\obj\queue.o
 .ARM.attributes
                0x00000341       0x31 ..\obj\mutex.o
 .ARM.attributes
                0x00000372       0x31 ..\obj\flag.o
 .ARM.attributes
                0x000003a3       0x31 ..\obj\lpc_lowlayer.o
 .ARM.attributes
                0x000003d4       0x31 ..\obj\arch.o
 .ARM.attributes
                0x00000405       0x31 ..\obj\PWMOutput.o
 .ARM.attributes
                0x00000436       0x31 ..\obj\sem.o
 .ARM.attributes
                0x00000467       0x31 ..\obj\hook.o
 .ARM.attributes
                0x00000498       0x1b j:/cocenter/cooide/gcc/sourcery g++ lite/bin/../lib/gcc/arm-none-eabi/4.5.2/thumb2\libgcc.a(_arm_addsubsf3.o)
 .ARM.attributes
                0x000004b3       0x1b j:/cocenter/cooide/gcc/sourcery g++ lite/bin/../lib/gcc/arm-none-eabi/4.5.2/thumb2\libgcc.a(_arm_muldivsf3.o)
 .ARM.attributes
                0x000004ce       0x1b j:/cocenter/cooide/gcc/sourcery g++ lite/bin/../lib/gcc/arm-none-eabi/4.5.2/thumb2\libgcc.a(_arm_cmpsf2.o)
 .ARM.attributes
                0x000004e9       0x1b j:/cocenter/cooide/gcc/sourcery g++ lite/bin/../lib/gcc/arm-none-eabi/4.5.2/thumb2\libgcc.a(_arm_fixunssfsi.o)
 .ARM.attributes
                0x00000504       0x29 j:/cocenter/cooide/gcc/sourcery g++ lite/bin/../lib/gcc/arm-none-eabi/4.5.2/thumb2\libgcc.a(_fixunssfdi.o)
 .ARM.attributes
                0x0000052d       0x1b j:/cocenter/cooide/gcc/sourcery g++ lite/bin/../lib/gcc/arm-none-eabi/4.5.2/thumb2\libgcc.a(_arm_addsubdf3.o)
 .ARM.attributes
                0x00000548       0x1b j:/cocenter/cooide/gcc/sourcery g++ lite/bin/../lib/gcc/arm-none-eabi/4.5.2/thumb2\libgcc.a(_arm_muldivdf3.o)
 .ARM.attributes
                0x00000563       0x1b j:/cocenter/cooide/gcc/sourcery g++ lite/bin/../lib/gcc/arm-none-eabi/4.5.2/thumb2\libgcc.a(_arm_fixunsdfsi.o)

.debug_frame    0x00000000     0x1300
 .debug_frame   0x00000000       0x84 ..\obj\kernelHeap.o
 .debug_frame   0x00000084       0xe8 ..\obj\core.o
 .debug_frame   0x0000016c      0x280 ..\obj\core_cm3.o
 .debug_frame   0x000003ec      0x148 ..\obj\timer.o
 .debug_frame   0x00000534       0x48 ..\obj\utility.o
 .debug_frame   0x0000057c      0x148 ..\obj\lpc_pwm.o
 .debug_frame   0x000006c4       0x40 ..\obj\system_LPC17xx.o
 .debug_frame   0x00000704      0x178 ..\obj\task.o
 .debug_frame   0x0000087c       0x50 ..\obj\serviceReq.o
 .debug_frame   0x000008cc       0x2c ..\obj\main.o
 .debug_frame   0x000008f8       0xd0 ..\obj\mbox.o
 .debug_frame   0x000009c8       0xb0 ..\obj\mm.o
 .debug_frame   0x00000a78       0x48 ..\obj\startup_LPC17xx.o
 .debug_frame   0x00000ac0       0xfc ..\obj\time.o
 .debug_frame   0x00000bbc       0xe8 ..\obj\event.o
 .debug_frame   0x00000ca4       0xb0 ..\obj\port.o
 .debug_frame   0x00000d54       0xd0 ..\obj\queue.o
 .debug_frame   0x00000e24       0x90 ..\obj\mutex.o
 .debug_frame   0x00000eb4      0x184 ..\obj\flag.o
 .debug_frame   0x00001038      0x10c ..\obj\lpc_lowlayer.o
 .debug_frame   0x00001144       0x48 ..\obj\arch.o
 .debug_frame   0x0000118c       0x30 ..\obj\PWMOutput.o
 .debug_frame   0x000011bc       0xd0 ..\obj\sem.o
 .debug_frame   0x0000128c       0x48 ..\obj\hook.o
 .debug_frame   0x000012d4       0x2c j:/cocenter/cooide/gcc/sourcery g++ lite/bin/../lib/gcc/arm-none-eabi/4.5.2/thumb2\libgcc.a(_fixunssfdi.o)
